 client

 Timestamp is 5c1032b4 (Wed Dec 12 00:57:08 2018)

 Preferred load address is 10000000

 Start         Length     Name                   Class
 0001:00000000 0005d4b0H .text                   CODE
 0001:0005d4b0 00000d52H .text$x                 CODE
 0001:0005e210 000000e6H .text$yc                CODE
 0001:0005e300 0000005aH .text$yd                CODE
 0002:00000000 000009f8H .idata$5                DATA
 0002:000009f8 00000004H .CRT$XCA                DATA
 0002:000009fc 00000020H .CRT$XCU                DATA
 0002:00000a1c 00000004H .CRT$XCZ                DATA
 0002:00000a20 00000004H .CRT$XIA                DATA
 0002:00000a24 00000014H .CRT$XIC                DATA
 0002:00000a38 00000004H .CRT$XIZ                DATA
 0002:00000a3c 00000004H .CRT$XPA                DATA
 0002:00000a40 00000008H .CRT$XPX                DATA
 0002:00000a48 00000004H .CRT$XPXA               DATA
 0002:00000a4c 00000004H .CRT$XPZ                DATA
 0002:00000a50 00000004H .CRT$XTA                DATA
 0002:00000a54 00000004H .CRT$XTZ                DATA
 0002:00000a60 0001d480H .rdata                  DATA
 0002:0001dee0 000032fcH .rdata$r                DATA
 0002:000211e0 00000088H .rdata$sxdata           DATA
 0002:00021268 00000004H .rtc$IAA                DATA
 0002:0002126c 00000004H .rtc$IZZ                DATA
 0002:00021270 00000004H .rtc$TAA                DATA
 0002:00021274 00000004H .rtc$TZZ                DATA
 0002:00021278 0000107cH .xdata$x                DATA
 0002:000222f4 00000078H .idata$2                DATA
 0002:0002236c 00000014H .idata$3                DATA
 0002:00022380 000009f8H .idata$4                DATA
 0002:00022d78 000066c2H .idata$6                DATA
 0002:00029440 00006e79H .edata                  DATA
 0003:00000000 000042a0H .data                   DATA
 0003:000042a0 000377b8H .bss                    DATA
 0004:00000000 000000a0H .rsrc$01                DATA
 0004:000000a0 000003d8H .rsrc$02                DATA

  Address         Publics by Value              Rva+Base       Lib:Object

 0000:00000000       __except_list              00000000     <absolute>
 0000:00000022       ___safe_se_handler_count   00000022     <absolute>
 0000:00000000       ___ImageBase               10000000     <linker-defined>
 0001:00000000       ??0?$Dar@D@vgui@@QAE@H@Z   10001000 f i ammo.obj
 0001:00000030       ??0?$Dar@D@vgui@@QAE@XZ    10001030 f i ammo.obj
 0001:00000060       ??0?$Dar@PAVDesktopIcon@vgui@@@vgui@@QAE@H@Z 10001060 f i ammo.obj
 0001:00000060       ??0?$Dar@PAVIntChangeSignal@vgui@@@vgui@@QAE@H@Z 10001060 f i ammo.obj
 0001:00000060       ??0?$Dar@PAVButton@vgui@@@vgui@@QAE@H@Z 10001060 f i ammo.obj
 0001:00000060       ??0?$Dar@PAVFrameSignal@vgui@@@vgui@@QAE@H@Z 10001060 f i ammo.obj
 0001:00000060       ??0?$Dar@PAVFrame@vgui@@@vgui@@QAE@H@Z 10001060 f i ammo.obj
 0001:00000060       ??0?$Dar@PAD@vgui@@QAE@H@Z 10001060 f i ammo.obj
 0001:00000060       ??0?$Dar@PAVPanel@vgui@@@vgui@@QAE@H@Z 10001060 f i ammo.obj
 0001:00000060       ??0?$Dar@PAVInputSignal@vgui@@@vgui@@QAE@H@Z 10001060 f i ammo.obj
 0001:00000060       ??0?$Dar@PAVActionSignal@vgui@@@vgui@@QAE@H@Z 10001060 f i ammo.obj
 0001:00000060       ??0?$Dar@PAVRepaintSignal@vgui@@@vgui@@QAE@H@Z 10001060 f i ammo.obj
 0001:00000060       ??0?$Dar@PAVLabel@vgui@@@vgui@@QAE@H@Z 10001060 f i ammo.obj
 0001:00000060       ??0?$Dar@PAVChangeSignal@vgui@@@vgui@@QAE@H@Z 10001060 f i ammo.obj
 0001:00000060       ??0?$Dar@PAVSurfaceBase@vgui@@@vgui@@QAE@H@Z 10001060 f i ammo.obj
 0001:00000060       ??0?$Dar@PAV?$Dar@D@vgui@@@vgui@@QAE@H@Z 10001060 f i ammo.obj
 0001:00000060       ??0?$Dar@PAVFocusChangeSignal@vgui@@@vgui@@QAE@H@Z 10001060 f i ammo.obj
 0001:00000060       ??0?$Dar@PAVTickSignal@vgui@@@vgui@@QAE@H@Z 10001060 f i ammo.obj
 0001:00000060       ??0?$Dar@H@vgui@@QAE@H@Z   10001060 f i ammo.obj
 0001:00000090       ??0?$Dar@PAVChangeSignal@vgui@@@vgui@@QAE@XZ 10001090 f i ammo.obj
 0001:00000090       ??0?$Dar@H@vgui@@QAE@XZ    10001090 f i ammo.obj
 0001:00000090       ??0?$Dar@PAVActionSignal@vgui@@@vgui@@QAE@XZ 10001090 f i ammo.obj
 0001:00000090       ??0?$Dar@PAVTickSignal@vgui@@@vgui@@QAE@XZ 10001090 f i ammo.obj
 0001:00000090       ??0?$Dar@PAVFrame@vgui@@@vgui@@QAE@XZ 10001090 f i ammo.obj
 0001:00000090       ??0?$Dar@PAVDesktopIcon@vgui@@@vgui@@QAE@XZ 10001090 f i ammo.obj
 0001:00000090       ??0?$Dar@PAVLabel@vgui@@@vgui@@QAE@XZ 10001090 f i ammo.obj
 0001:00000090       ??0?$Dar@PAVFrameSignal@vgui@@@vgui@@QAE@XZ 10001090 f i ammo.obj
 0001:00000090       ??0?$Dar@PAD@vgui@@QAE@XZ  10001090 f i ammo.obj
 0001:00000090       ??0?$Dar@PAV?$Dar@D@vgui@@@vgui@@QAE@XZ 10001090 f i ammo.obj
 0001:00000090       ??0?$Dar@PAVIntChangeSignal@vgui@@@vgui@@QAE@XZ 10001090 f i ammo.obj
 0001:00000090       ??0?$Dar@PAVPanel@vgui@@@vgui@@QAE@XZ 10001090 f i ammo.obj
 0001:00000090       ??0?$Dar@PAVButton@vgui@@@vgui@@QAE@XZ 10001090 f i ammo.obj
 0001:00000090       ??0?$Dar@PAVInputSignal@vgui@@@vgui@@QAE@XZ 10001090 f i ammo.obj
 0001:00000090       ??0?$Dar@PAVSurfaceBase@vgui@@@vgui@@QAE@XZ 10001090 f i ammo.obj
 0001:00000090       ??0?$Dar@PAVRepaintSignal@vgui@@@vgui@@QAE@XZ 10001090 f i ammo.obj
 0001:00000090       ??0?$Dar@PAVFocusChangeSignal@vgui@@@vgui@@QAE@XZ 10001090 f i ammo.obj
 0001:000000c0       ??0ActionSignal@vgui@@QAE@ABV01@@Z 100010c0 f i ammo.obj
 0001:000000d0       ??0ActionSignal@vgui@@QAE@XZ 100010d0 f i ammo.obj
 0001:000000e0       ??0App@vgui@@QAE@ABV01@@Z  100010e0 f i ammo.obj
 0001:00000250       ??0Bitmap@vgui@@QAE@ABV01@@Z 10001250 f i ammo.obj
 0001:000002b0       ??0BitmapTGA@vgui@@QAE@ABV01@@Z 100012b0 f i ammo.obj
 0001:00000320       ??0Border@vgui@@QAE@ABV01@@Z 10001320 f i ammo.obj
 0001:00000390       ??0Button@vgui@@QAE@ABV01@@Z 10001390 f i ammo.obj
 0001:00000430       ??0Color@vgui@@QAE@ABV01@@Z 10001430 f i ammo.obj
 0001:00000450       ??0Cursor@vgui@@QAE@ABV01@@Z 10001450 f i ammo.obj
 0001:00000480       ??0DesktopIcon@vgui@@QAE@ABV01@@Z 10001480 f i ammo.obj
 0001:000004d0       ??0FileInputStream@vgui@@QAE@ABV01@@Z 100014d0 f i ammo.obj
 0001:000004f0       ??0Font@vgui@@QAE@ABV01@@Z 100014f0 f i ammo.obj
 0001:00000520       ??0Frame@vgui@@QAE@ABV01@@Z 10001520 f i ammo.obj
 0001:00000650       ??0Image@vgui@@QAE@ABV01@@Z 10001650 f i ammo.obj
 0001:000006a0       ??0ImagePanel@vgui@@QAE@ABV01@@Z 100016a0 f i ammo.obj
 0001:000006d0       ??0ImagePanel@vgui@@QAE@XZ 100016d0 f i ammo.obj
 0001:000006f0       ??0InputSignal@vgui@@QAE@ABV01@@Z 100016f0 f i ammo.obj
 0001:00000700       ??0InputSignal@vgui@@QAE@XZ 10001700 f i ammo.obj
 0001:00000710       ??0InputStream@vgui@@QAE@ABV01@@Z 10001710 f i ammo.obj
 0001:00000720       ??0InputStream@vgui@@QAE@XZ 10001720 f i ammo.obj
 0001:00000730       ??0Label@vgui@@QAE@ABV01@@Z 10001730 f i ammo.obj
 0001:000007b0       ??0Label@vgui@@QAE@XZ      100017b0 f i ammo.obj
 0001:000007e0       ??0LineBorder@vgui@@QAE@ABV01@@Z 100017e0 f i ammo.obj
 0001:00000860       ??0MiniApp@vgui@@QAE@ABV01@@Z 10001860 f i ammo.obj
 0001:00000880       ??0Panel@vgui@@QAE@ABV01@@Z 10001880 f i ammo.obj
 0001:00000a20       ??0Scheme@vgui@@QAE@ABV01@@Z 10001a20 f i ammo.obj
 0001:00000a90       ??0ScrollBar@vgui@@QAE@ABV01@@Z 10001a90 f i ammo.obj
 0001:00000b00       ??0ScrollPanel@vgui@@QAE@ABV01@@Z 10001b00 f i ammo.obj
 0001:00000b60       ??0Slider@vgui@@QAE@ABV01@@Z 10001b60 f i ammo.obj
 0001:00000c50       ??0TextPanel@vgui@@QAE@ABV01@@Z 10001c50 f i ammo.obj
 0001:00000c80       ??4?$Dar@PAVSurfaceBase@vgui@@@vgui@@QAEAAV01@ABV01@@Z 10001c80 f i ammo.obj
 0001:00000c80       ??4?$Dar@PAVDesktopIcon@vgui@@@vgui@@QAEAAV01@ABV01@@Z 10001c80 f i ammo.obj
 0001:00000c80       ??4?$Dar@PAVFocusChangeSignal@vgui@@@vgui@@QAEAAV01@ABV01@@Z 10001c80 f i ammo.obj
 0001:00000c80       ??4?$Dar@PAD@vgui@@QAEAAV01@ABV01@@Z 10001c80 f i ammo.obj
 0001:00000c80       ??4?$Dar@PAVChangeSignal@vgui@@@vgui@@QAEAAV01@ABV01@@Z 10001c80 f i ammo.obj
 0001:00000c80       ??4?$Dar@PAVIntChangeSignal@vgui@@@vgui@@QAEAAV01@ABV01@@Z 10001c80 f i ammo.obj
 0001:00000c80       ??4?$Dar@PAVLabel@vgui@@@vgui@@QAEAAV01@ABV01@@Z 10001c80 f i ammo.obj
 0001:00000c80       ??4?$Dar@D@vgui@@QAEAAV01@ABV01@@Z 10001c80 f i ammo.obj
 0001:00000c80       ??4?$Dar@H@vgui@@QAEAAV01@ABV01@@Z 10001c80 f i ammo.obj
 0001:00000c80       ??4?$Dar@PAVPanel@vgui@@@vgui@@QAEAAV01@ABV01@@Z 10001c80 f i ammo.obj
 0001:00000c80       ??4?$Dar@PAVButton@vgui@@@vgui@@QAEAAV01@ABV01@@Z 10001c80 f i ammo.obj
 0001:00000c80       ??4?$Dar@PAVInputSignal@vgui@@@vgui@@QAEAAV01@ABV01@@Z 10001c80 f i ammo.obj
 0001:00000c80       ??4?$Dar@PAVTickSignal@vgui@@@vgui@@QAEAAV01@ABV01@@Z 10001c80 f i ammo.obj
 0001:00000c80       ??4?$Dar@PAVActionSignal@vgui@@@vgui@@QAEAAV01@ABV01@@Z 10001c80 f i ammo.obj
 0001:00000c80       ??4?$Dar@PAVFrame@vgui@@@vgui@@QAEAAV01@ABV01@@Z 10001c80 f i ammo.obj
 0001:00000c80       ??4?$Dar@PAV?$Dar@D@vgui@@@vgui@@QAEAAV01@ABV01@@Z 10001c80 f i ammo.obj
 0001:00000c80       ??4?$Dar@PAVFrameSignal@vgui@@@vgui@@QAEAAV01@ABV01@@Z 10001c80 f i ammo.obj
 0001:00000c80       ??4?$Dar@PAVRepaintSignal@vgui@@@vgui@@QAEAAV01@ABV01@@Z 10001c80 f i ammo.obj
 0001:00000ca0       ??4App@vgui@@QAEAAV01@ABV01@@Z 10001ca0 f i ammo.obj
 0001:00000e30       ??4Bitmap@vgui@@QAEAAV01@ABV01@@Z 10001e30 f i ammo.obj
 0001:00000e30       ??4BitmapTGA@vgui@@QAEAAV01@ABV01@@Z 10001e30 f i ammo.obj
 0001:00000e90       ??4Border@vgui@@QAEAAV01@ABV01@@Z 10001e90 f i ammo.obj
 0001:00000f00       ??4Button@vgui@@QAEAAV01@ABV01@@Z 10001f00 f i ammo.obj
 0001:00000f90       ??4Color@vgui@@QAEAAV01@ABV01@@Z 10001f90 f i ammo.obj
 0001:00000fc0       ??4Cursor@vgui@@QAEAAV01@ABV01@@Z 10001fc0 f i ammo.obj
 0001:00000ff0       ??4DesktopIcon@vgui@@QAEAAV01@ABV01@@Z 10001ff0 f i ammo.obj
 0001:00001030       ??4Font@vgui@@QAEAAV01@ABV01@@Z 10002030 f i ammo.obj
 0001:00001050       ??4Frame@vgui@@QAEAAV01@ABV01@@Z 10002050 f i ammo.obj
 0001:00001180       ??4Image@vgui@@QAEAAV01@ABV01@@Z 10002180 f i ammo.obj
 0001:000011d0       ??4TextPanel@vgui@@QAEAAV01@ABV01@@Z 100021d0 f i ammo.obj
 0001:000011d0       ??4ImagePanel@vgui@@QAEAAV01@ABV01@@Z 100021d0 f i ammo.obj
 0001:00001200       ??4InputStream@vgui@@QAEAAV01@ABV01@@Z 10002200 f i ammo.obj
 0001:00001200       ??4ActionSignal@vgui@@QAEAAV01@ABV01@@Z 10002200 f i ammo.obj
 0001:00001200       ??4Layout@vgui@@QAEAAV01@ABV01@@Z 10002200 f i entity.obj
 0001:00001200       ??4InputSignal@vgui@@QAEAAV01@ABV01@@Z 10002200 f i ammo.obj
 0001:00001200       ??4IntChangeSignal@vgui@@QAEAAV01@ABV01@@Z 10002200 f i hud.obj
 0001:00001210       ??4Label@vgui@@QAEAAV01@ABV01@@Z 10002210 f i ammo.obj
 0001:00001280       ??4LineBorder@vgui@@QAEAAV01@ABV01@@Z 10002280 f i ammo.obj
 0001:000012c0       ??4FileInputStream@vgui@@QAEAAV01@ABV01@@Z 100022c0 f i ammo.obj
 0001:000012c0       ??4BorderLayout@vgui@@QAEAAV01@ABV01@@Z 100022c0 f i vgui_int.obj
 0001:000012c0       ??4MiniApp@vgui@@QAEAAV01@ABV01@@Z 100022c0 f i ammo.obj
 0001:000012e0       ??4Panel@vgui@@QAEAAV01@ABV01@@Z 100022e0 f i ammo.obj
 0001:000014b0       ??4Scheme@vgui@@QAEAAV01@ABV01@@Z 100024b0 f i ammo.obj
 0001:00001540       ??4ScrollPanel@vgui@@QAEAAV01@ABV01@@Z 10002540 f i ammo.obj
 0001:000015b0       ??4Slider@vgui@@QAEAAV01@ABV01@@Z 100025b0 f i ammo.obj
 0001:000015b0       ??4Slider2@vgui@@QAEAAV01@ABV01@@Z 100025b0 f i hud.obj
 0001:00001690       ??4String@vgui@@QAEAAV01@ABV01@@Z 10002690 f i ammo.obj
 0001:000016a0       ??A?$Dar@D@vgui@@QAEDH@Z   100026a0 f i ammo.obj
 0001:000016c0       ??A?$Dar@PAV?$Dar@D@vgui@@@vgui@@QAEPAV?$Dar@D@1@H@Z 100026c0 f i ammo.obj
 0001:000016c0       ??A?$Dar@PAVTickSignal@vgui@@@vgui@@QAEPAVTickSignal@1@H@Z 100026c0 f i ammo.obj
 0001:000016c0       ??A?$Dar@PAVFocusChangeSignal@vgui@@@vgui@@QAEPAVFocusChangeSignal@1@H@Z 100026c0 f i ammo.obj
 0001:000016c0       ??A?$Dar@PAVPanel@vgui@@@vgui@@QAEPAVPanel@1@H@Z 100026c0 f i ammo.obj
 0001:000016c0       ??A?$Dar@PAVRepaintSignal@vgui@@@vgui@@QAEPAVRepaintSignal@1@H@Z 100026c0 f i ammo.obj
 0001:000016c0       ??A?$Dar@PAVChangeSignal@vgui@@@vgui@@QAEPAVChangeSignal@1@H@Z 100026c0 f i ammo.obj
 0001:000016c0       ??A?$Dar@PAVButton@vgui@@@vgui@@QAEPAVButton@1@H@Z 100026c0 f i ammo.obj
 0001:000016c0       ??A?$Dar@PAVFrame@vgui@@@vgui@@QAEPAVFrame@1@H@Z 100026c0 f i ammo.obj
 0001:000016c0       ??A?$Dar@PAVSurfaceBase@vgui@@@vgui@@QAEPAVSurfaceBase@1@H@Z 100026c0 f i ammo.obj
 0001:000016c0       ??A?$Dar@PAD@vgui@@QAEPADH@Z 100026c0 f i ammo.obj
 0001:000016c0       ??A?$Dar@PAVDesktopIcon@vgui@@@vgui@@QAEPAVDesktopIcon@1@H@Z 100026c0 f i ammo.obj
 0001:000016c0       ??A?$Dar@PAVFrameSignal@vgui@@@vgui@@QAEPAVFrameSignal@1@H@Z 100026c0 f i ammo.obj
 0001:000016c0       ??A?$Dar@PAVLabel@vgui@@@vgui@@QAEPAVLabel@1@H@Z 100026c0 f i ammo.obj
 0001:000016c0       ??A?$Dar@PAVIntChangeSignal@vgui@@@vgui@@QAEPAVIntChangeSignal@1@H@Z 100026c0 f i ammo.obj
 0001:000016c0       ??A?$Dar@H@vgui@@QAEHH@Z   100026c0 f i ammo.obj
 0001:000016c0       ??A?$Dar@PAVInputSignal@vgui@@@vgui@@QAEPAVInputSignal@1@H@Z 100026c0 f i ammo.obj
 0001:000016c0       ??A?$Dar@PAVActionSignal@vgui@@@vgui@@QAEPAVActionSignal@1@H@Z 100026c0 f i ammo.obj
 0001:000016e0       ?CountAmmo@WeaponsResource@@QAEHH@Z 100026e0 f   ammo.obj
 0001:00001700       ?Draw@CHudAmmo@@UAEHM@Z    10002700 f   ammo.obj
 0001:00001a80       ?DrawAmmoBar@@YAXPAUWEAPON@@HHHH@Z 10002a80 f   ammo.obj
 0001:00001b30       ?DrawBar@@YAHHHHHM@Z       10002b30 f   ammo.obj
 0001:00001be0       ?DrawWList@CHudAmmo@@QAEHM@Z 10002be0 f   ammo.obj
 0001:00001f90       ?GetAmmoPicFromWeapon@WeaponsResource@@QAEPAHHAAUrect_s@@@Z 10002f90 f   ammo.obj
 0001:00002020       ?GetFirstPos@WeaponsResource@@QAEPAUWEAPON@@H@Z 10003020 f   ammo.obj
 0001:00002080       ?GetNextActivePos@WeaponsResource@@QAEPAUWEAPON@@HH@Z 10003080 f   ammo.obj
 0001:000020d0       ?GetSpriteList@@YAPAUclient_sprite_s@@PAU1@PBDHH@Z 100030d0 f   ammo.obj
 0001:00002140       ?HasAmmo@WeaponsResource@@QAEHPAUWEAPON@@@Z 10003140 f   ammo.obj
 0001:000021b0       ?Init@CHudAmmo@@UAEHXZ     100031b0 f   ammo.obj
 0001:00002390       ?LoadAllWeaponSprites@WeaponsResource@@QAEXXZ 10003390 f   ammo.obj
 0001:000023c0       ?LoadWeaponSprites@WeaponsResource@@QAEXPAUWEAPON@@@Z 100033c0 f   ammo.obj
 0001:00002910       ?MsgFunc_AmmoPickup@CHudAmmo@@QAEHPBDHPAX@Z 10003910 f   ammo.obj
 0001:00002950       ?MsgFunc_AmmoX@CHudAmmo@@QAEHPBDHPAX@Z 10003950 f   ammo.obj
 0001:00002990       ?MsgFunc_CurWeapon@CHudAmmo@@QAEHPBDHPAX@Z 10003990 f   ammo.obj
 0001:00002b70       ?MsgFunc_HideWeapon@CHudAmmo@@QAEHPBDHPAX@Z 10003b70 f   ammo.obj
 0001:00002c20       ?MsgFunc_ItemPickup@CHudAmmo@@QAEHPBDHPAX@Z 10003c20 f   ammo.obj
 0001:00002c50       ?MsgFunc_WeapPickup@CHudAmmo@@QAEHPBDHPAX@Z 10003c50 f   ammo.obj
 0001:00002c80       ?MsgFunc_WeaponList@CHudAmmo@@QAEHPBDHPAX@Z 10003c80 f   ammo.obj
 0001:00002d80       ?Reset@CHudAmmo@@UAEXXZ    10003d80 f   ammo.obj
 0001:00002de0       ?SelectSlot@WeaponsResource@@QAEXHHH@Z 10003de0 f   ammo.obj
 0001:00002f60       ?SlotInput@CHudAmmo@@QAEXH@Z 10003f60 f   ammo.obj
 0001:00002f90       ?Think@CHudAmmo@@UAEXXZ    10003f90 f   ammo.obj
 0001:00003080       ?UnpackRGB@@YAXAAH00K@Z    10004080 f i ammo.obj
 0001:000030b0       ?UserCmd_Close@CHudAmmo@@QAAXXZ 100040b0 f   ammo.obj
 0001:000030f0       ?UserCmd_NextWeapon@CHudAmmo@@QAAXXZ 100040f0 f   ammo.obj
 0001:000031c0       ?UserCmd_PrevWeapon@CHudAmmo@@QAAXXZ 100041c0 f   ammo.obj
 0001:000032b0       ?UserCmd_Slot10@CHudAmmo@@QAAXXZ 100042b0 f   ammo.obj
 0001:000032c0       ?UserCmd_Slot1@CHudAmmo@@QAAXXZ 100042c0 f   ammo.obj
 0001:000032d0       ?UserCmd_Slot2@CHudAmmo@@QAAXXZ 100042d0 f   ammo.obj
 0001:000032e0       ?UserCmd_Slot3@CHudAmmo@@QAAXXZ 100042e0 f   ammo.obj
 0001:000032f0       ?UserCmd_Slot4@CHudAmmo@@QAAXXZ 100042f0 f   ammo.obj
 0001:00003300       ?UserCmd_Slot5@CHudAmmo@@QAAXXZ 10004300 f   ammo.obj
 0001:00003310       ?UserCmd_Slot6@CHudAmmo@@QAAXXZ 10004310 f   ammo.obj
 0001:00003320       ?UserCmd_Slot7@CHudAmmo@@QAAXXZ 10004320 f   ammo.obj
 0001:00003330       ?UserCmd_Slot8@CHudAmmo@@QAAXXZ 10004330 f   ammo.obj
 0001:00003340       ?UserCmd_Slot9@CHudAmmo@@QAAXXZ 10004340 f   ammo.obj
 0001:00003350       ?VidInit@CHudAmmo@@UAEHXZ  10004350 f   ammo.obj
 0001:00003430       ?__CmdFunc_Close@@YAXXZ    10004430 f   ammo.obj
 0001:00003440       ?__CmdFunc_NextWeapon@@YAXXZ 10004440 f   ammo.obj
 0001:00003450       ?__CmdFunc_PrevWeapon@@YAXXZ 10004450 f   ammo.obj
 0001:00003460       ?__CmdFunc_Slot10@@YAXXZ   10004460 f   ammo.obj
 0001:00003470       ?__CmdFunc_Slot1@@YAXXZ    10004470 f   ammo.obj
 0001:00003480       ?__CmdFunc_Slot2@@YAXXZ    10004480 f   ammo.obj
 0001:00003490       ?__CmdFunc_Slot3@@YAXXZ    10004490 f   ammo.obj
 0001:000034a0       ?__CmdFunc_Slot4@@YAXXZ    100044a0 f   ammo.obj
 0001:000034b0       ?__CmdFunc_Slot5@@YAXXZ    100044b0 f   ammo.obj
 0001:000034c0       ?__CmdFunc_Slot6@@YAXXZ    100044c0 f   ammo.obj
 0001:000034d0       ?__CmdFunc_Slot7@@YAXXZ    100044d0 f   ammo.obj
 0001:000034e0       ?__CmdFunc_Slot8@@YAXXZ    100044e0 f   ammo.obj
 0001:000034f0       ?__CmdFunc_Slot9@@YAXXZ    100044f0 f   ammo.obj
 0001:00003500       ?__MsgFunc_AmmoPickup@@YAHPBDHPAX@Z 10004500 f   ammo.obj
 0001:00003520       ?__MsgFunc_AmmoX@@YAHPBDHPAX@Z 10004520 f   ammo.obj
 0001:00003540       ?__MsgFunc_CurWeapon@@YAHPBDHPAX@Z 10004540 f   ammo.obj
 0001:00003560       ?__MsgFunc_HideWeapon@@YAHPBDHPAX@Z 10004560 f   ammo.obj
 0001:00003580       ?__MsgFunc_ItemPickup@@YAHPBDHPAX@Z 10004580 f   ammo.obj
 0001:000035a0       ?__MsgFunc_WeapPickup@@YAHPBDHPAX@Z 100045a0 f   ammo.obj
 0001:000035c0       ?__MsgFunc_WeaponList@@YAHPBDHPAX@Z 100045c0 f   ammo.obj
 0001:000035e0       ?addElement@?$Dar@D@vgui@@QAEXD@Z 100045e0 f i ammo.obj
 0001:00003610       ?addElement@?$Dar@PAVButton@vgui@@@vgui@@QAEXPAVButton@2@@Z 10004610 f i ammo.obj
 0001:00003610       ?addElement@?$Dar@PAVTickSignal@vgui@@@vgui@@QAEXPAVTickSignal@2@@Z 10004610 f i ammo.obj
 0001:00003610       ?addElement@?$Dar@PAVFrame@vgui@@@vgui@@QAEXPAVFrame@2@@Z 10004610 f i ammo.obj
 0001:00003610       ?addElement@?$Dar@PAVIntChangeSignal@vgui@@@vgui@@QAEXPAVIntChangeSignal@2@@Z 10004610 f i ammo.obj
 0001:00003610       ?addElement@?$Dar@PAV?$Dar@D@vgui@@@vgui@@QAEXPAV?$Dar@D@2@@Z 10004610 f i ammo.obj
 0001:00003610       ?addElement@?$Dar@PAVRepaintSignal@vgui@@@vgui@@QAEXPAVRepaintSignal@2@@Z 10004610 f i ammo.obj
 0001:00003610       ?addElement@?$Dar@PAVSurfaceBase@vgui@@@vgui@@QAEXPAVSurfaceBase@2@@Z 10004610 f i ammo.obj
 0001:00003610       ?addElement@?$Dar@PAVChangeSignal@vgui@@@vgui@@QAEXPAVChangeSignal@2@@Z 10004610 f i ammo.obj
 0001:00003610       ?addElement@?$Dar@PAVInputSignal@vgui@@@vgui@@QAEXPAVInputSignal@2@@Z 10004610 f i ammo.obj
 0001:00003610       ?addElement@?$Dar@PAVFrameSignal@vgui@@@vgui@@QAEXPAVFrameSignal@2@@Z 10004610 f i ammo.obj
 0001:00003610       ?addElement@?$Dar@H@vgui@@QAEXH@Z 10004610 f i ammo.obj
 0001:00003610       ?addElement@?$Dar@PAVPanel@vgui@@@vgui@@QAEXPAVPanel@2@@Z 10004610 f i ammo.obj
 0001:00003610       ?addElement@?$Dar@PAVLabel@vgui@@@vgui@@QAEXPAVLabel@2@@Z 10004610 f i ammo.obj
 0001:00003610       ?addElement@?$Dar@PAVActionSignal@vgui@@@vgui@@QAEXPAVActionSignal@2@@Z 10004610 f i ammo.obj
 0001:00003610       ?addElement@?$Dar@PAVFocusChangeSignal@vgui@@@vgui@@QAEXPAVFocusChangeSignal@2@@Z 10004610 f i ammo.obj
 0001:00003610       ?addElement@?$Dar@PAD@vgui@@QAEXPAD@Z 10004610 f i ammo.obj
 0001:00003610       ?addElement@?$Dar@PAVDesktopIcon@vgui@@@vgui@@QAEXPAVDesktopIcon@2@@Z 10004610 f i ammo.obj
 0001:00003640       ?ensureCapacity@?$Dar@D@vgui@@QAEXH@Z 10004640 f i ammo.obj
 0001:000036c0       ?ensureCapacity@?$Dar@PAVFrame@vgui@@@vgui@@QAEXH@Z 100046c0 f i ammo.obj
 0001:000036c0       ?ensureCapacity@?$Dar@PAVFocusChangeSignal@vgui@@@vgui@@QAEXH@Z 100046c0 f i ammo.obj
 0001:000036c0       ?ensureCapacity@?$Dar@PAVIntChangeSignal@vgui@@@vgui@@QAEXH@Z 100046c0 f i ammo.obj
 0001:000036c0       ?ensureCapacity@?$Dar@PAVLabel@vgui@@@vgui@@QAEXH@Z 100046c0 f i ammo.obj
 0001:000036c0       ?ensureCapacity@?$Dar@PAVPanel@vgui@@@vgui@@QAEXH@Z 100046c0 f i ammo.obj
 0001:000036c0       ?ensureCapacity@?$Dar@PAVRepaintSignal@vgui@@@vgui@@QAEXH@Z 100046c0 f i ammo.obj
 0001:000036c0       ?ensureCapacity@?$Dar@PAVTickSignal@vgui@@@vgui@@QAEXH@Z 100046c0 f i ammo.obj
 0001:000036c0       ?ensureCapacity@?$Dar@PAVChangeSignal@vgui@@@vgui@@QAEXH@Z 100046c0 f i ammo.obj
 0001:000036c0       ?ensureCapacity@?$Dar@PAVFrameSignal@vgui@@@vgui@@QAEXH@Z 100046c0 f i ammo.obj
 0001:000036c0       ?ensureCapacity@?$Dar@H@vgui@@QAEXH@Z 100046c0 f i ammo.obj
 0001:000036c0       ?ensureCapacity@?$Dar@PAVActionSignal@vgui@@@vgui@@QAEXH@Z 100046c0 f i ammo.obj
 0001:000036c0       ?ensureCapacity@?$Dar@PAVButton@vgui@@@vgui@@QAEXH@Z 100046c0 f i ammo.obj
 0001:000036c0       ?ensureCapacity@?$Dar@PAVDesktopIcon@vgui@@@vgui@@QAEXH@Z 100046c0 f i ammo.obj
 0001:000036c0       ?ensureCapacity@?$Dar@PAD@vgui@@QAEXH@Z 100046c0 f i ammo.obj
 0001:000036c0       ?ensureCapacity@?$Dar@PAVSurfaceBase@vgui@@@vgui@@QAEXH@Z 100046c0 f i ammo.obj
 0001:000036c0       ?ensureCapacity@?$Dar@PAV?$Dar@D@vgui@@@vgui@@QAEXH@Z 100046c0 f i ammo.obj
 0001:000036c0       ?ensureCapacity@?$Dar@PAVInputSignal@vgui@@@vgui@@QAEXH@Z 100046c0 f i ammo.obj
 0001:00003760       ?getCount@?$Dar@PAVSurfaceBase@vgui@@@vgui@@QAEHXZ 10004760 f i ammo.obj
 0001:00003760       ?getCount@?$Dar@PAVPanel@vgui@@@vgui@@QAEHXZ 10004760 f i ammo.obj
 0001:00003760       ?getCount@?$Dar@PAD@vgui@@QAEHXZ 10004760 f i ammo.obj
 0001:00003760       ?getCount@?$Dar@PAVChangeSignal@vgui@@@vgui@@QAEHXZ 10004760 f i ammo.obj
 0001:00003760       ?getCount@?$Dar@PAVFrameSignal@vgui@@@vgui@@QAEHXZ 10004760 f i ammo.obj
 0001:00003760       ?getCount@?$Dar@PAVActionSignal@vgui@@@vgui@@QAEHXZ 10004760 f i ammo.obj
 0001:00003760       ?getCount@?$Dar@PAVFrame@vgui@@@vgui@@QAEHXZ 10004760 f i ammo.obj
 0001:00003760       ?getCount@?$Dar@PAVLabel@vgui@@@vgui@@QAEHXZ 10004760 f i ammo.obj
 0001:00003760       ?getCount@?$Dar@PAVInputSignal@vgui@@@vgui@@QAEHXZ 10004760 f i ammo.obj
 0001:00003760       ?getCount@?$Dar@PAVButton@vgui@@@vgui@@QAEHXZ 10004760 f i ammo.obj
 0001:00003760       ?getCount@?$Dar@PAV?$Dar@D@vgui@@@vgui@@QAEHXZ 10004760 f i ammo.obj
 0001:00003760       ?getCount@?$Dar@PAVIntChangeSignal@vgui@@@vgui@@QAEHXZ 10004760 f i ammo.obj
 0001:00003760       ?getCount@?$Dar@PAVTickSignal@vgui@@@vgui@@QAEHXZ 10004760 f i ammo.obj
 0001:00003760       ?getCount@?$Dar@PAVDesktopIcon@vgui@@@vgui@@QAEHXZ 10004760 f i ammo.obj
 0001:00003760       ?getCount@?$Dar@H@vgui@@QAEHXZ 10004760 f i ammo.obj
 0001:00003760       ?getCount@?$Dar@D@vgui@@QAEHXZ 10004760 f i ammo.obj
 0001:00003760       ?getCount@?$Dar@PAVRepaintSignal@vgui@@@vgui@@QAEHXZ 10004760 f i ammo.obj
 0001:00003760       ?getCount@?$Dar@PAVFocusChangeSignal@vgui@@@vgui@@QAEHXZ 10004760 f i ammo.obj
 0001:00003770       ?hasElement@?$Dar@D@vgui@@QAE_ND@Z 10004770 f i ammo.obj
 0001:000037a0       ?hasElement@?$Dar@PAV?$Dar@D@vgui@@@vgui@@QAE_NPAV?$Dar@D@2@@Z 100047a0 f i ammo.obj
 0001:000037a0       ?hasElement@?$Dar@PAVRepaintSignal@vgui@@@vgui@@QAE_NPAVRepaintSignal@2@@Z 100047a0 f i ammo.obj
 0001:000037a0       ?hasElement@?$Dar@PAVDesktopIcon@vgui@@@vgui@@QAE_NPAVDesktopIcon@2@@Z 100047a0 f i ammo.obj
 0001:000037a0       ?hasElement@?$Dar@PAVButton@vgui@@@vgui@@QAE_NPAVButton@2@@Z 100047a0 f i ammo.obj
 0001:000037a0       ?hasElement@?$Dar@PAVFrameSignal@vgui@@@vgui@@QAE_NPAVFrameSignal@2@@Z 100047a0 f i ammo.obj
 0001:000037a0       ?hasElement@?$Dar@PAVActionSignal@vgui@@@vgui@@QAE_NPAVActionSignal@2@@Z 100047a0 f i ammo.obj
 0001:000037a0       ?hasElement@?$Dar@PAVInputSignal@vgui@@@vgui@@QAE_NPAVInputSignal@2@@Z 100047a0 f i ammo.obj
 0001:000037a0       ?hasElement@?$Dar@PAD@vgui@@QAE_NPAD@Z 100047a0 f i ammo.obj
 0001:000037a0       ?hasElement@?$Dar@PAVChangeSignal@vgui@@@vgui@@QAE_NPAVChangeSignal@2@@Z 100047a0 f i ammo.obj
 0001:000037a0       ?hasElement@?$Dar@PAVIntChangeSignal@vgui@@@vgui@@QAE_NPAVIntChangeSignal@2@@Z 100047a0 f i ammo.obj
 0001:000037a0       ?hasElement@?$Dar@PAVLabel@vgui@@@vgui@@QAE_NPAVLabel@2@@Z 100047a0 f i ammo.obj
 0001:000037a0       ?hasElement@?$Dar@H@vgui@@QAE_NH@Z 100047a0 f i ammo.obj
 0001:000037a0       ?hasElement@?$Dar@PAVFrame@vgui@@@vgui@@QAE_NPAVFrame@2@@Z 100047a0 f i ammo.obj
 0001:000037a0       ?hasElement@?$Dar@PAVPanel@vgui@@@vgui@@QAE_NPAVPanel@2@@Z 100047a0 f i ammo.obj
 0001:000037a0       ?hasElement@?$Dar@PAVSurfaceBase@vgui@@@vgui@@QAE_NPAVSurfaceBase@2@@Z 100047a0 f i ammo.obj
 0001:000037a0       ?hasElement@?$Dar@PAVTickSignal@vgui@@@vgui@@QAE_NPAVTickSignal@2@@Z 100047a0 f i ammo.obj
 0001:000037a0       ?hasElement@?$Dar@PAVFocusChangeSignal@vgui@@@vgui@@QAE_NPAVFocusChangeSignal@2@@Z 100047a0 f i ammo.obj
 0001:000037d0       ?insertElementAt@?$Dar@D@vgui@@QAEXDH@Z 100047d0 f i ammo.obj
 0001:00003840       ?insertElementAt@?$Dar@PAVFrame@vgui@@@vgui@@QAEXPAVFrame@2@H@Z 10004840 f i ammo.obj
 0001:00003840       ?insertElementAt@?$Dar@PAVInputSignal@vgui@@@vgui@@QAEXPAVInputSignal@2@H@Z 10004840 f i ammo.obj
 0001:00003840       ?insertElementAt@?$Dar@PAVChangeSignal@vgui@@@vgui@@QAEXPAVChangeSignal@2@H@Z 10004840 f i ammo.obj
 0001:00003840       ?insertElementAt@?$Dar@PAVRepaintSignal@vgui@@@vgui@@QAEXPAVRepaintSignal@2@H@Z 10004840 f i ammo.obj
 0001:00003840       ?insertElementAt@?$Dar@PAVPanel@vgui@@@vgui@@QAEXPAVPanel@2@H@Z 10004840 f i ammo.obj
 0001:00003840       ?insertElementAt@?$Dar@PAVSurfaceBase@vgui@@@vgui@@QAEXPAVSurfaceBase@2@H@Z 10004840 f i ammo.obj
 0001:00003840       ?insertElementAt@?$Dar@PAVFrameSignal@vgui@@@vgui@@QAEXPAVFrameSignal@2@H@Z 10004840 f i ammo.obj
 0001:00003840       ?insertElementAt@?$Dar@PAV?$Dar@D@vgui@@@vgui@@QAEXPAV?$Dar@D@2@H@Z 10004840 f i ammo.obj
 0001:00003840       ?insertElementAt@?$Dar@PAVActionSignal@vgui@@@vgui@@QAEXPAVActionSignal@2@H@Z 10004840 f i ammo.obj
 0001:00003840       ?insertElementAt@?$Dar@PAVButton@vgui@@@vgui@@QAEXPAVButton@2@H@Z 10004840 f i ammo.obj
 0001:00003840       ?insertElementAt@?$Dar@PAVDesktopIcon@vgui@@@vgui@@QAEXPAVDesktopIcon@2@H@Z 10004840 f i ammo.obj
 0001:00003840       ?insertElementAt@?$Dar@PAVTickSignal@vgui@@@vgui@@QAEXPAVTickSignal@2@H@Z 10004840 f i ammo.obj
 0001:00003840       ?insertElementAt@?$Dar@PAVIntChangeSignal@vgui@@@vgui@@QAEXPAVIntChangeSignal@2@H@Z 10004840 f i ammo.obj
 0001:00003840       ?insertElementAt@?$Dar@H@vgui@@QAEXHH@Z 10004840 f i ammo.obj
 0001:00003840       ?insertElementAt@?$Dar@PAVLabel@vgui@@@vgui@@QAEXPAVLabel@2@H@Z 10004840 f i ammo.obj
 0001:00003840       ?insertElementAt@?$Dar@PAD@vgui@@QAEXPADH@Z 10004840 f i ammo.obj
 0001:00003840       ?insertElementAt@?$Dar@PAVFocusChangeSignal@vgui@@@vgui@@QAEXPAVFocusChangeSignal@2@H@Z 10004840 f i ammo.obj
 0001:000038b0       ?putElement@?$Dar@D@vgui@@QAEXD@Z 100048b0 f i ammo.obj
 0001:000038f0       ?putElement@?$Dar@PAVButton@vgui@@@vgui@@QAEXPAVButton@2@@Z 100048f0 f i ammo.obj
 0001:000038f0       ?putElement@?$Dar@PAVTickSignal@vgui@@@vgui@@QAEXPAVTickSignal@2@@Z 100048f0 f i ammo.obj
 0001:000038f0       ?putElement@?$Dar@PAVRepaintSignal@vgui@@@vgui@@QAEXPAVRepaintSignal@2@@Z 100048f0 f i ammo.obj
 0001:000038f0       ?putElement@?$Dar@PAVFrame@vgui@@@vgui@@QAEXPAVFrame@2@@Z 100048f0 f i ammo.obj
 0001:000038f0       ?putElement@?$Dar@PAVPanel@vgui@@@vgui@@QAEXPAVPanel@2@@Z 100048f0 f i ammo.obj
 0001:000038f0       ?putElement@?$Dar@PAVLabel@vgui@@@vgui@@QAEXPAVLabel@2@@Z 100048f0 f i ammo.obj
 0001:000038f0       ?putElement@?$Dar@PAVFrameSignal@vgui@@@vgui@@QAEXPAVFrameSignal@2@@Z 100048f0 f i ammo.obj
 0001:000038f0       ?putElement@?$Dar@PAVDesktopIcon@vgui@@@vgui@@QAEXPAVDesktopIcon@2@@Z 100048f0 f i ammo.obj
 0001:000038f0       ?putElement@?$Dar@PAVActionSignal@vgui@@@vgui@@QAEXPAVActionSignal@2@@Z 100048f0 f i ammo.obj
 0001:000038f0       ?putElement@?$Dar@PAVSurfaceBase@vgui@@@vgui@@QAEXPAVSurfaceBase@2@@Z 100048f0 f i ammo.obj
 0001:000038f0       ?putElement@?$Dar@PAVChangeSignal@vgui@@@vgui@@QAEXPAVChangeSignal@2@@Z 100048f0 f i ammo.obj
 0001:000038f0       ?putElement@?$Dar@PAVInputSignal@vgui@@@vgui@@QAEXPAVInputSignal@2@@Z 100048f0 f i ammo.obj
 0001:000038f0       ?putElement@?$Dar@PAV?$Dar@D@vgui@@@vgui@@QAEXPAV?$Dar@D@2@@Z 100048f0 f i ammo.obj
 0001:000038f0       ?putElement@?$Dar@PAVIntChangeSignal@vgui@@@vgui@@QAEXPAVIntChangeSignal@2@@Z 100048f0 f i ammo.obj
 0001:000038f0       ?putElement@?$Dar@H@vgui@@QAEXH@Z 100048f0 f i ammo.obj
 0001:000038f0       ?putElement@?$Dar@PAVFocusChangeSignal@vgui@@@vgui@@QAEXPAVFocusChangeSignal@2@@Z 100048f0 f i ammo.obj
 0001:000038f0       ?putElement@?$Dar@PAD@vgui@@QAEXPAD@Z 100048f0 f i ammo.obj
 0001:00003930       ?removeAll@?$Dar@PAVDesktopIcon@vgui@@@vgui@@QAEXXZ 10004930 f i ammo.obj
 0001:00003930       ?removeAll@?$Dar@D@vgui@@QAEXXZ 10004930 f i ammo.obj
 0001:00003930       ?removeAll@?$Dar@PAVRepaintSignal@vgui@@@vgui@@QAEXXZ 10004930 f i ammo.obj
 0001:00003930       ?removeAll@?$Dar@PAVInputSignal@vgui@@@vgui@@QAEXXZ 10004930 f i ammo.obj
 0001:00003930       ?removeAll@?$Dar@PAVChangeSignal@vgui@@@vgui@@QAEXXZ 10004930 f i ammo.obj
 0001:00003930       ?removeAll@?$Dar@H@vgui@@QAEXXZ 10004930 f i ammo.obj
 0001:00003930       ?removeAll@?$Dar@PAVLabel@vgui@@@vgui@@QAEXXZ 10004930 f i ammo.obj
 0001:00003930       ?removeAll@?$Dar@PAVButton@vgui@@@vgui@@QAEXXZ 10004930 f i ammo.obj
 0001:00003930       ?removeAll@?$Dar@PAVTickSignal@vgui@@@vgui@@QAEXXZ 10004930 f i ammo.obj
 0001:00003930       ?removeAll@?$Dar@PAVFrameSignal@vgui@@@vgui@@QAEXXZ 10004930 f i ammo.obj
 0001:00003930       ?removeAll@?$Dar@PAVPanel@vgui@@@vgui@@QAEXXZ 10004930 f i ammo.obj
 0001:00003930       ?removeAll@?$Dar@PAVFrame@vgui@@@vgui@@QAEXXZ 10004930 f i ammo.obj
 0001:00003930       ?removeAll@?$Dar@PAVActionSignal@vgui@@@vgui@@QAEXXZ 10004930 f i ammo.obj
 0001:00003930       ?removeAll@?$Dar@PAVSurfaceBase@vgui@@@vgui@@QAEXXZ 10004930 f i ammo.obj
 0001:00003930       ?removeAll@?$Dar@PAV?$Dar@D@vgui@@@vgui@@QAEXXZ 10004930 f i ammo.obj
 0001:00003930       ?removeAll@?$Dar@PAD@vgui@@QAEXXZ 10004930 f i ammo.obj
 0001:00003930       ?removeAll@?$Dar@PAVFocusChangeSignal@vgui@@@vgui@@QAEXXZ 10004930 f i ammo.obj
 0001:00003930       ?removeAll@?$Dar@PAVIntChangeSignal@vgui@@@vgui@@QAEXXZ 10004930 f i ammo.obj
 0001:00003940       ?removeElement@?$Dar@D@vgui@@QAEXD@Z 10004940 f i ammo.obj
 0001:00003990       ?removeElement@?$Dar@PAVIntChangeSignal@vgui@@@vgui@@QAEXPAVIntChangeSignal@2@@Z 10004990 f i ammo.obj
 0001:00003990       ?removeElement@?$Dar@PAVSurfaceBase@vgui@@@vgui@@QAEXPAVSurfaceBase@2@@Z 10004990 f i ammo.obj
 0001:00003990       ?removeElement@?$Dar@PAVInputSignal@vgui@@@vgui@@QAEXPAVInputSignal@2@@Z 10004990 f i ammo.obj
 0001:00003990       ?removeElement@?$Dar@PAD@vgui@@QAEXPAD@Z 10004990 f i ammo.obj
 0001:00003990       ?removeElement@?$Dar@PAVDesktopIcon@vgui@@@vgui@@QAEXPAVDesktopIcon@2@@Z 10004990 f i ammo.obj
 0001:00003990       ?removeElement@?$Dar@PAVButton@vgui@@@vgui@@QAEXPAVButton@2@@Z 10004990 f i ammo.obj
 0001:00003990       ?removeElement@?$Dar@PAVActionSignal@vgui@@@vgui@@QAEXPAVActionSignal@2@@Z 10004990 f i ammo.obj
 0001:00003990       ?removeElement@?$Dar@PAV?$Dar@D@vgui@@@vgui@@QAEXPAV?$Dar@D@2@@Z 10004990 f i ammo.obj
 0001:00003990       ?removeElement@?$Dar@H@vgui@@QAEXH@Z 10004990 f i ammo.obj
 0001:00003990       ?removeElement@?$Dar@PAVLabel@vgui@@@vgui@@QAEXPAVLabel@2@@Z 10004990 f i ammo.obj
 0001:00003990       ?removeElement@?$Dar@PAVTickSignal@vgui@@@vgui@@QAEXPAVTickSignal@2@@Z 10004990 f i ammo.obj
 0001:00003990       ?removeElement@?$Dar@PAVPanel@vgui@@@vgui@@QAEXPAVPanel@2@@Z 10004990 f i ammo.obj
 0001:00003990       ?removeElement@?$Dar@PAVFrame@vgui@@@vgui@@QAEXPAVFrame@2@@Z 10004990 f i ammo.obj
 0001:00003990       ?removeElement@?$Dar@PAVFrameSignal@vgui@@@vgui@@QAEXPAVFrameSignal@2@@Z 10004990 f i ammo.obj
 0001:00003990       ?removeElement@?$Dar@PAVChangeSignal@vgui@@@vgui@@QAEXPAVChangeSignal@2@@Z 10004990 f i ammo.obj
 0001:00003990       ?removeElement@?$Dar@PAVFocusChangeSignal@vgui@@@vgui@@QAEXPAVFocusChangeSignal@2@@Z 10004990 f i ammo.obj
 0001:00003990       ?removeElement@?$Dar@PAVRepaintSignal@vgui@@@vgui@@QAEXPAVRepaintSignal@2@@Z 10004990 f i ammo.obj
 0001:000039e0       ?removeElementAt@?$Dar@D@vgui@@QAEXH@Z 100049e0 f i ammo.obj
 0001:00003a20       ?removeElementAt@?$Dar@PAVInputSignal@vgui@@@vgui@@QAEXH@Z 10004a20 f i ammo.obj
 0001:00003a20       ?removeElementAt@?$Dar@PAVIntChangeSignal@vgui@@@vgui@@QAEXH@Z 10004a20 f i ammo.obj
 0001:00003a20       ?removeElementAt@?$Dar@PAVTickSignal@vgui@@@vgui@@QAEXH@Z 10004a20 f i ammo.obj
 0001:00003a20       ?removeElementAt@?$Dar@PAVActionSignal@vgui@@@vgui@@QAEXH@Z 10004a20 f i ammo.obj
 0001:00003a20       ?removeElementAt@?$Dar@PAVButton@vgui@@@vgui@@QAEXH@Z 10004a20 f i ammo.obj
 0001:00003a20       ?removeElementAt@?$Dar@PAVFrameSignal@vgui@@@vgui@@QAEXH@Z 10004a20 f i ammo.obj
 0001:00003a20       ?removeElementAt@?$Dar@PAVPanel@vgui@@@vgui@@QAEXH@Z 10004a20 f i ammo.obj
 0001:00003a20       ?removeElementAt@?$Dar@PAVRepaintSignal@vgui@@@vgui@@QAEXH@Z 10004a20 f i ammo.obj
 0001:00003a20       ?removeElementAt@?$Dar@PAVLabel@vgui@@@vgui@@QAEXH@Z 10004a20 f i ammo.obj
 0001:00003a20       ?removeElementAt@?$Dar@PAVChangeSignal@vgui@@@vgui@@QAEXH@Z 10004a20 f i ammo.obj
 0001:00003a20       ?removeElementAt@?$Dar@H@vgui@@QAEXH@Z 10004a20 f i ammo.obj
 0001:00003a20       ?removeElementAt@?$Dar@PAD@vgui@@QAEXH@Z 10004a20 f i ammo.obj
 0001:00003a20       ?removeElementAt@?$Dar@PAVFocusChangeSignal@vgui@@@vgui@@QAEXH@Z 10004a20 f i ammo.obj
 0001:00003a20       ?removeElementAt@?$Dar@PAVFrame@vgui@@@vgui@@QAEXH@Z 10004a20 f i ammo.obj
 0001:00003a20       ?removeElementAt@?$Dar@PAV?$Dar@D@vgui@@@vgui@@QAEXH@Z 10004a20 f i ammo.obj
 0001:00003a20       ?removeElementAt@?$Dar@PAVSurfaceBase@vgui@@@vgui@@QAEXH@Z 10004a20 f i ammo.obj
 0001:00003a20       ?removeElementAt@?$Dar@PAVDesktopIcon@vgui@@@vgui@@QAEXH@Z 10004a20 f i ammo.obj
 0001:00003a60       ?setCount@?$Dar@PAVLabel@vgui@@@vgui@@QAEXH@Z 10004a60 f i ammo.obj
 0001:00003a60       ?setCount@?$Dar@PAVButton@vgui@@@vgui@@QAEXH@Z 10004a60 f i ammo.obj
 0001:00003a60       ?setCount@?$Dar@PAVInputSignal@vgui@@@vgui@@QAEXH@Z 10004a60 f i ammo.obj
 0001:00003a60       ?setCount@?$Dar@PAVTickSignal@vgui@@@vgui@@QAEXH@Z 10004a60 f i ammo.obj
 0001:00003a60       ?setCount@?$Dar@PAVFrame@vgui@@@vgui@@QAEXH@Z 10004a60 f i ammo.obj
 0001:00003a60       ?setCount@?$Dar@PAV?$Dar@D@vgui@@@vgui@@QAEXH@Z 10004a60 f i ammo.obj
 0001:00003a60       ?setCount@?$Dar@PAVDesktopIcon@vgui@@@vgui@@QAEXH@Z 10004a60 f i ammo.obj
 0001:00003a60       ?setCount@?$Dar@PAVFrameSignal@vgui@@@vgui@@QAEXH@Z 10004a60 f i ammo.obj
 0001:00003a60       ?setCount@?$Dar@PAVActionSignal@vgui@@@vgui@@QAEXH@Z 10004a60 f i ammo.obj
 0001:00003a60       ?setCount@?$Dar@PAVSurfaceBase@vgui@@@vgui@@QAEXH@Z 10004a60 f i ammo.obj
 0001:00003a60       ?setCount@?$Dar@PAVPanel@vgui@@@vgui@@QAEXH@Z 10004a60 f i ammo.obj
 0001:00003a60       ?setCount@?$Dar@PAD@vgui@@QAEXH@Z 10004a60 f i ammo.obj
 0001:00003a60       ?setCount@?$Dar@PAVChangeSignal@vgui@@@vgui@@QAEXH@Z 10004a60 f i ammo.obj
 0001:00003a60       ?setCount@?$Dar@PAVIntChangeSignal@vgui@@@vgui@@QAEXH@Z 10004a60 f i ammo.obj
 0001:00003a60       ?setCount@?$Dar@PAVFocusChangeSignal@vgui@@@vgui@@QAEXH@Z 10004a60 f i ammo.obj
 0001:00003a60       ?setCount@?$Dar@PAVRepaintSignal@vgui@@@vgui@@QAEXH@Z 10004a60 f i ammo.obj
 0001:00003a60       ?setCount@?$Dar@H@vgui@@QAEXH@Z 10004a60 f i ammo.obj
 0001:00003a60       ?setCount@?$Dar@D@vgui@@QAEXH@Z 10004a60 f i ammo.obj
 0001:00003a80       ?setElementAt@?$Dar@D@vgui@@QAEXDH@Z 10004a80 f i ammo.obj
 0001:00003aa0       ?setElementAt@?$Dar@PAVInputSignal@vgui@@@vgui@@QAEXPAVInputSignal@2@H@Z 10004aa0 f i ammo.obj
 0001:00003aa0       ?setElementAt@?$Dar@PAVButton@vgui@@@vgui@@QAEXPAVButton@2@H@Z 10004aa0 f i ammo.obj
 0001:00003aa0       ?setElementAt@?$Dar@PAV?$Dar@D@vgui@@@vgui@@QAEXPAV?$Dar@D@2@H@Z 10004aa0 f i ammo.obj
 0001:00003aa0       ?setElementAt@?$Dar@PAVPanel@vgui@@@vgui@@QAEXPAVPanel@2@H@Z 10004aa0 f i ammo.obj
 0001:00003aa0       ?setElementAt@?$Dar@H@vgui@@QAEXHH@Z 10004aa0 f i ammo.obj
 0001:00003aa0       ?setElementAt@?$Dar@PAVLabel@vgui@@@vgui@@QAEXPAVLabel@2@H@Z 10004aa0 f i ammo.obj
 0001:00003aa0       ?setElementAt@?$Dar@PAVIntChangeSignal@vgui@@@vgui@@QAEXPAVIntChangeSignal@2@H@Z 10004aa0 f i ammo.obj
 0001:00003aa0       ?setElementAt@?$Dar@PAVFrameSignal@vgui@@@vgui@@QAEXPAVFrameSignal@2@H@Z 10004aa0 f i ammo.obj
 0001:00003aa0       ?setElementAt@?$Dar@PAVActionSignal@vgui@@@vgui@@QAEXPAVActionSignal@2@H@Z 10004aa0 f i ammo.obj
 0001:00003aa0       ?setElementAt@?$Dar@PAD@vgui@@QAEXPADH@Z 10004aa0 f i ammo.obj
 0001:00003aa0       ?setElementAt@?$Dar@PAVChangeSignal@vgui@@@vgui@@QAEXPAVChangeSignal@2@H@Z 10004aa0 f i ammo.obj
 0001:00003aa0       ?setElementAt@?$Dar@PAVTickSignal@vgui@@@vgui@@QAEXPAVTickSignal@2@H@Z 10004aa0 f i ammo.obj
 0001:00003aa0       ?setElementAt@?$Dar@PAVSurfaceBase@vgui@@@vgui@@QAEXPAVSurfaceBase@2@H@Z 10004aa0 f i ammo.obj
 0001:00003aa0       ?setElementAt@?$Dar@PAVRepaintSignal@vgui@@@vgui@@QAEXPAVRepaintSignal@2@H@Z 10004aa0 f i ammo.obj
 0001:00003aa0       ?setElementAt@?$Dar@PAVFrame@vgui@@@vgui@@QAEXPAVFrame@2@H@Z 10004aa0 f i ammo.obj
 0001:00003aa0       ?setElementAt@?$Dar@PAVDesktopIcon@vgui@@@vgui@@QAEXPAVDesktopIcon@2@H@Z 10004aa0 f i ammo.obj
 0001:00003aa0       ?setElementAt@?$Dar@PAVFocusChangeSignal@vgui@@@vgui@@QAEXPAVFocusChangeSignal@2@H@Z 10004aa0 f i ammo.obj
 0001:00003ac0       ?setLineColor@LineBorder@vgui@@QAEXHHHH@Z 10004ac0 f i ammo.obj
 0001:00003b30       ?Draw@CHudAmmoSecondary@@UAEHM@Z 10004b30 f   ammo_secondary.obj
 0001:00003d10       ?Init@CHudAmmoSecondary@@UAEHXZ 10004d10 f   ammo_secondary.obj
 0001:00003d80       ?MsgFunc_SecAmmoIcon@CHudAmmoSecondary@@QAEHPBDHPAX@Z 10004d80 f   ammo_secondary.obj
 0001:00003dc0       ?MsgFunc_SecAmmoVal@CHudAmmoSecondary@@QAEHPBDHPAX@Z 10004dc0 f   ammo_secondary.obj
 0001:00003e50       ?Reset@CHudAmmoSecondary@@UAEXXZ 10004e50 f   ammo_secondary.obj
 0001:00003e60       ?__MsgFunc_SecAmmoIcon@@YAHPBDHPAX@Z 10004e60 f   ammo_secondary.obj
 0001:00003e80       ?__MsgFunc_SecAmmoVal@@YAHPBDHPAX@Z 10004e80 f   ammo_secondary.obj
 0001:00003ea0       ?AddToHistory@HistoryResource@@QAEXHHH@Z 10004ea0 f   ammohistory.obj
 0001:00003f50       ?AddToHistory@HistoryResource@@QAEXHPBDH@Z 10004f50 f   ammohistory.obj
 0001:00004000       ?CheckClearHistory@HistoryResource@@QAEXXZ 10005000 f   ammohistory.obj
 0001:00004020       ?DrawAmmoHistory@HistoryResource@@QAEHM@Z 10005020 f   ammohistory.obj
 0001:00004380       ?Draw@CHudBattery@@UAEHM@Z 10005380 f   battery.obj
 0001:000045e0       ?Init@CHudBattery@@UAEHXZ  100055e0 f   battery.obj
 0001:00004620       ?MsgFunc_Battery@CHudBattery@@QAEHPBDHPAX@Z 10005620 f   battery.obj
 0001:00004660       ?VidInit@CHudBattery@@UAEHXZ 10005660 f   battery.obj
 0001:000046d0       ?__MsgFunc_Battery@@YAHPBDHPAX@Z 100056d0 f   battery.obj
 0001:000046f0       ??0CHud@@QAE@XZ            100056f0 f i cdll_int.obj
 0001:000047a0       ??1CHudBase@@UAE@XZ        100057a0 f i cdll_int.obj
 0001:000047a0       ??1CHudStatusIcons@@UAE@XZ 100057a0 f i cdll_int.obj
 0001:000047a0       ??1CHudTrain@@UAE@XZ       100057a0 f i cdll_int.obj
 0001:000047a0       ??1CHudSayText@@UAE@XZ     100057a0 f i cdll_int.obj
 0001:000047a0       ??1CHudHealth@@UAE@XZ      100057a0 f i cdll_int.obj
 0001:000047a0       ??1CHudFlashlight@@UAE@XZ  100057a0 f i cdll_int.obj
 0001:000047a0       ??1CHudAmmo@@UAE@XZ        100057a0 f i cdll_int.obj
 0001:000047a0       ??1CHudGeiger@@UAE@XZ      100057a0 f i cdll_int.obj
 0001:000047a0       ??1CHudAmmoSecondary@@UAE@XZ 100057a0 f i cdll_int.obj
 0001:000047a0       ??1CHudMessage@@UAE@XZ     100057a0 f i cdll_int.obj
 0001:000047a0       ??1CHudTextMessage@@UAE@XZ 100057a0 f i cdll_int.obj
 0001:000047a0       ??1CHudMenu@@UAE@XZ        100057a0 f i cdll_int.obj
 0001:000047a0       ??1CHudDeathNotice@@UAE@XZ 100057a0 f i cdll_int.obj
 0001:000047a0       ??1CHudStatusBar@@UAE@XZ   100057a0 f i cdll_int.obj
 0001:000047a0       ??1CHudSpectator@@UAE@XZ   100057a0 f i cdll_int.obj
 0001:000047a0       ??1CHudBattery@@UAE@XZ     100057a0 f i cdll_int.obj
 0001:000047b0       ??_GCHudTrain@@UAEPAXI@Z   100057b0 f i cdll_int.obj
 0001:000047b0       ??_ECHudStatusBar@@UAEPAXI@Z 100057b0 f i cdll_int.obj
 0001:000047b0       ??_ECHudBattery@@UAEPAXI@Z 100057b0 f i cdll_int.obj
 0001:000047b0       ??_ECHudTextMessage@@UAEPAXI@Z 100057b0 f i cdll_int.obj
 0001:000047b0       ??_ECHudGeiger@@UAEPAXI@Z  100057b0 f i cdll_int.obj
 0001:000047b0       ??_GCHudMessage@@UAEPAXI@Z 100057b0 f i cdll_int.obj
 0001:000047b0       ??_ECHudTrain@@UAEPAXI@Z   100057b0 f i cdll_int.obj
 0001:000047b0       ??_GCHudGeiger@@UAEPAXI@Z  100057b0 f i cdll_int.obj
 0001:000047b0       ??_GCHudBattery@@UAEPAXI@Z 100057b0 f i cdll_int.obj
 0001:000047b0       ??_GCHudSayText@@UAEPAXI@Z 100057b0 f i cdll_int.obj
 0001:000047b0       ??_ECHudAmmo@@UAEPAXI@Z    100057b0 f i cdll_int.obj
 0001:000047b0       ??_GCHudDeathNotice@@UAEPAXI@Z 100057b0 f i cdll_int.obj
 0001:000047b0       ??_ECHudBase@@UAEPAXI@Z    100057b0 f i cdll_int.obj
 0001:000047b0       ??_ECHudStatusIcons@@UAEPAXI@Z 100057b0 f i cdll_int.obj
 0001:000047b0       ??_ECHudMessage@@UAEPAXI@Z 100057b0 f i cdll_int.obj
 0001:000047b0       ??_GCHudAmmoSecondary@@UAEPAXI@Z 100057b0 f i cdll_int.obj
 0001:000047b0       ??_GCHudSpectator@@UAEPAXI@Z 100057b0 f i cdll_int.obj
 0001:000047b0       ??_ECHudSpectator@@UAEPAXI@Z 100057b0 f i cdll_int.obj
 0001:000047b0       ??_ECHudDeathNotice@@UAEPAXI@Z 100057b0 f i cdll_int.obj
 0001:000047b0       ??_GCHudStatusIcons@@UAEPAXI@Z 100057b0 f i cdll_int.obj
 0001:000047b0       ??_ECHudMenu@@UAEPAXI@Z    100057b0 f i cdll_int.obj
 0001:000047b0       ??_GCHudTextMessage@@UAEPAXI@Z 100057b0 f i cdll_int.obj
 0001:000047b0       ??_GCHudFlashlight@@UAEPAXI@Z 100057b0 f i cdll_int.obj
 0001:000047b0       ??_GCHudBase@@UAEPAXI@Z    100057b0 f i cdll_int.obj
 0001:000047b0       ??_GCHudHealth@@UAEPAXI@Z  100057b0 f i cdll_int.obj
 0001:000047b0       ??_GCHudStatusBar@@UAEPAXI@Z 100057b0 f i cdll_int.obj
 0001:000047b0       ??_ECHudFlashlight@@UAEPAXI@Z 100057b0 f i cdll_int.obj
 0001:000047b0       ??_ECHudHealth@@UAEPAXI@Z  100057b0 f i cdll_int.obj
 0001:000047b0       ??_GCHudAmmo@@UAEPAXI@Z    100057b0 f i cdll_int.obj
 0001:000047b0       ??_ECHudAmmoSecondary@@UAEPAXI@Z 100057b0 f i cdll_int.obj
 0001:000047b0       ??_ECHudSayText@@UAEPAXI@Z 100057b0 f i cdll_int.obj
 0001:000047b0       ??_GCHudMenu@@UAEPAXI@Z    100057b0 f i cdll_int.obj
 0001:000047e0       _HUD_ConnectionlessPacket  100057e0 f   cdll_int.obj
 0001:000047f0       _HUD_DirectorMessage       100057f0 f   cdll_int.obj
 0001:00004810       _HUD_Frame                 10005810 f   cdll_int.obj
 0001:00004840       _HUD_GetHullBounds         10005840 f   cdll_int.obj
 0001:00004860       _HUD_Init                  10005860 f   cdll_int.obj
 0001:00004880       _HUD_PlayerMove            10005880 f   cdll_int.obj
 0001:00004890       _HUD_PlayerMoveInit        10005890 f   cdll_int.obj
 0001:000048a0       _HUD_PlayerMoveTexture     100058a0 f   cdll_int.obj
 0001:000048b0       _HUD_Redraw                100058b0 f   cdll_int.obj
 0001:000048e0       _HUD_Reset                 100058e0 f   cdll_int.obj
 0001:000048f0       _HUD_UpdateClientData      100058f0 f   cdll_int.obj
 0001:00004920       _HUD_VidInit               10005920 f   cdll_int.obj
 0001:00004940       _HUD_VoiceStatus           10005940 f   cdll_int.obj
 0001:00004960       _Initialize                10005960 f   cdll_int.obj
 0001:000049a0       ?HUD_GetWeaponAnim@@YAHXZ  100059a0 f   com_weapons.obj
 0001:000049b0       ?HUD_PlaySound@@YAXPADM@Z  100059b0 f   com_weapons.obj
 0001:000049f0       ?HUD_PlaybackEvent@@YAXHPBUedict_s@@GMPAM1MMHHHH@Z 100059f0 f   com_weapons.obj
 0001:00004a80       ?HUD_SendWeaponAnim@@YAXHHH@Z 10005a80 f   com_weapons.obj
 0001:00004ab0       ?UTIL_SharedRandomFloat@@YAMIMM@Z 10005ab0 f   com_weapons.obj
 0001:00004b60       ?GetDelay@CBaseEntity@@UAEMXZ 10005b60 f   crossbow.obj
 0001:00004b60       ?UTIL_WeaponTimeBase@@YAMXZ 10005b60 f   com_weapons.obj
 0001:00004b70       ?U_Random@@YAIXZ           10005b70 f   com_weapons.obj
 0001:00004ba0       ?U_Srand@@YAXI@Z           10005ba0 f   com_weapons.obj
 0001:00004bc0       ?stub_NameForFunction@@YAPBDK@Z 10005bc0 f   com_weapons.obj
 0001:00004bd0       ?Draw@CHudDeathNotice@@UAEHM@Z 10005bd0 f   death.obj
 0001:00004f00       ?GetClientColor@@YAPAMH@Z  10005f00 f   death.obj
 0001:00004f60       ?Init@CHudDeathNotice@@UAEHXZ 10005f60 f   death.obj
 0001:00004fa0       ?InitHUDData@CHudDeathNotice@@UAEXXZ 10005fa0 f   death.obj
 0001:00004fc0       ?MsgFunc_DeathMsg@CHudDeathNotice@@QAEHPBDHPAX@Z 10005fc0 f   death.obj
 0001:000053e0       ?VidInit@CHudDeathNotice@@UAEHXZ 100063e0 f   death.obj
 0001:00005400       ?__MsgFunc_DeathMsg@@YAHPBDHPAX@Z 10006400 f   death.obj
 0001:00005420       ?Demo_WriteBuffer@@YAXHHPAE@Z 10006420 f   demo.obj
 0001:00005480       _Demo_ReadBuffer           10006480 f   demo.obj
 0001:00005520       ??0Layout@vgui@@QAE@ABV01@@Z 10006520 f i entity.obj
 0001:00005530       ??0StackLayout@vgui@@QAE@ABV01@@Z 10006530 f i entity.obj
 0001:00005550       ??0TextImage@vgui@@QAE@ABV01@@Z 10006550 f i entity.obj
 0001:000055d0       ??4StackLayout@vgui@@QAEAAV01@ABV01@@Z 100065d0 f i entity.obj
 0001:000055f0       ??4TextImage@vgui@@QAEAAV01@ABV01@@Z 100065f0 f i entity.obj
 0001:00005680       ?ChatSpam@@YAXPAD@Z        10006680 f   entity.obj
 0001:000056a0       ?DrawLightning@@YAXPAUcl_entity_s@@H@Z 100066a0 f   entity.obj
 0001:00005860       ?MakeAlpha@@YAXPAUcl_entity_s@@@Z 10006860 f   entity.obj
 0001:000058e0       ?NameChanger@@YAX_N@Z      100068e0 f   entity.obj
 0001:00005960       ?RemoveHitboxes@@YAXPAUcl_entity_s@@@Z 10006960 f   entity.obj
 0001:00005a80       _HUD_AddEntity             10006a80 f   entity.obj
 0001:00006120       _HUD_CreateEntities        10007120 f   entity.obj
 0001:00006140       _HUD_ProcessPlayerState    10007140 f   entity.obj
 0001:000064f0       _HUD_StudioEvent           100074f0 f   entity.obj
 0001:00006640       _HUD_TempEntUpdate         10007640 f   entity.obj
 0001:000070c0       _HUD_TxferLocalOverrides   100080c0 f   entity.obj
 0001:000071e0       _HUD_TxferPredictionData   100081e0 f   entity.obj
 0001:00007520       ?EV_CreateTracer@@YAXPAM0@Z 10008520 f   ev_common.obj
 0001:00007540       ?EV_EjectBrass@@YAXPAM0MHH@Z 10008540 f   ev_common.obj
 0001:00007590       ?EV_GetDefaultShellInfo@@YAXPAUevent_args_s@@PAM111111MMM@Z 10008590 f   ev_common.obj
 0001:00007790       ?EV_GetGunPosition@@YAXPAUevent_args_s@@PAM1@Z 10008790 f   ev_common.obj
 0001:00007850       ?EV_IsLocal@@YAHH@Z        10008850 f   ev_common.obj
 0001:000078b0       ?EV_IsPlayer@@YAHH@Z       100088b0 f   ev_common.obj
 0001:000078d0       ?EV_MuzzleFlash@@YAXXZ     100088d0 f   ev_common.obj
 0001:000078f0       ?GetViewEntity@@YAPAUcl_entity_s@@XZ 100088f0 f   ev_common.obj
 0001:00007900       ?EV_HookEvents@@YAXXZ      10008900 f   events.obj
 0001:00007910       ?Draw@CHudFlashlight@@UAEHM@Z 10008910 f   flashlight.obj
 0001:00007ac0       ?Init@CHudFlashlight@@UAEHXZ 10008ac0 f   flashlight.obj
 0001:00007b10       ?MsgFunc_FlashBat@CHudFlashlight@@QAEHPBDHPAX@Z 10008b10 f   flashlight.obj
 0001:00007b60       ?MsgFunc_Flashlight@CHudFlashlight@@QAEHPBDHPAX@Z 10008b60 f   flashlight.obj
 0001:00007bb0       ?Reset@CHudFlashlight@@UAEXXZ 10008bb0 f   flashlight.obj
 0001:00007bc0       ?VidInit@CHudFlashlight@@UAEHXZ 10008bc0 f   flashlight.obj
 0001:00007c70       ?__MsgFunc_FlashBat@@YAHPBDHPAX@Z 10008c70 f   flashlight.obj
 0001:00007c90       ?__MsgFunc_Flashlight@@YAHPBDHPAX@Z 10008c90 f   flashlight.obj
 0001:00007cb0       ?R_StudioDrawPlayer@@YAHHPAUentity_state_s@@@Z 10008cb0 f   GameStudioModelRenderer.obj
 0001:00007cd0       ?R_StudioDrawModel@@YAHH@Z 10008cd0 f   GameStudioModelRenderer.obj
 0001:00007cf0       ??0CGameStudioModelRenderer@@QAE@XZ 10008cf0 f   GameStudioModelRenderer.obj
 0001:00007d10       ??_GCGameStudioModelRenderer@@UAEPAXI@Z 10008d10 f i GameStudioModelRenderer.obj
 0001:00007d10       ??_ECGameStudioModelRenderer@@UAEPAXI@Z 10008d10 f i GameStudioModelRenderer.obj
 0001:00007d10       ??_GCStudioModelRenderer@@UAEPAXI@Z 10008d10 f i StudioModelRenderer.obj
 0001:00007d10       ??_ECStudioModelRenderer@@UAEPAXI@Z 10008d10 f i StudioModelRenderer.obj
 0001:00007d40       ?R_StudioInit@@YAXXZ       10008d40 f   GameStudioModelRenderer.obj
 0001:00007d50       _HUD_GetStudioModelInterface 10008d50 f   GameStudioModelRenderer.obj
 0001:00007d90       ?Draw@CHudGeiger@@UAEHM@Z  10008d90 f   geiger.obj
 0001:00007fa0       ?Init@CHudGeiger@@UAEHXZ   10008fa0 f   geiger.obj
 0001:00007ff0       ?MsgFunc_Geiger@CHudGeiger@@QAEHPBDHPAX@Z 10008ff0 f   geiger.obj
 0001:00008020       ?__MsgFunc_Geiger@@YAHPBDHPAX@Z 10009020 f   geiger.obj
 0001:00008040       ?CalcDamageDirection@CHudHealth@@AAEXVVector@@@Z 10009040 f   health.obj
 0001:000082e0       ?Draw@CHudHealth@@UAEHM@Z  100092e0 f   health.obj
 0001:000084f0       ?DrawDamage@CHudHealth@@AAEHM@Z 100094f0 f   health.obj
 0001:00008720       ?DrawPain@CHudHealth@@AAEHM@Z 10009720 f   health.obj
 0001:00008b40       ?GetPainColor@CHudHealth@@QAEXAAH00@Z 10009b40 f   health.obj
 0001:00008b90       ?Init@CHudHealth@@UAEHXZ   10009b90 f   health.obj
 0001:00008c30       ?MsgFunc_Damage@CHudHealth@@QAEHPBDHPAX@Z 10009c30 f   health.obj
 0001:00008cd0       ?MsgFunc_Health@CHudHealth@@QAEHPBDHPAX@Z 10009cd0 f   health.obj
 0001:00008d10       ?Reset@CHudHealth@@UAEXXZ  10009d10 f   health.obj
 0001:00008d50       ?UpdateTiles@CHudHealth@@AAEXMJ@Z 10009d50 f   health.obj
 0001:00008eb0       ?VidInit@CHudHealth@@UAEHXZ 10009eb0 f   health.obj
 0001:00008f10       ?__MsgFunc_Damage@@YAHPBDHPAX@Z 10009f10 f   health.obj
 0001:00008f30       ?__MsgFunc_Health@@YAHPBDHPAX@Z 10009f30 f   health.obj
 0001:00008f50       ??0HeaderPanel@vgui@@QAE@ABV01@@Z 10009f50 f i hud.obj
 0001:00009010       ??0IntChangeSignal@vgui@@QAE@ABV01@@Z 1000a010 f i hud.obj
 0001:00009020       ??0IntChangeSignal@vgui@@QAE@XZ 1000a020 f i hud.obj
 0001:00009030       ??0ScrollBar2@vgui@@QAE@ABV01@@Z 1000a030 f i hud.obj
 0001:000090a0       ??0Slider2@vgui@@QAE@ABV01@@Z 1000a0a0 f i hud.obj
 0001:00009190       ??0TablePanel@vgui@@QAE@ABV01@@Z 1000a190 f i hud.obj
 0001:000092a0       ??0TextGrid@vgui@@QAE@ABV01@@Z 1000a2a0 f i hud.obj
 0001:00009340       ??1CHud@@QAE@XZ            1000a340 f   hud.obj
 0001:00009460       ??4HeaderPanel@vgui@@QAEAAV01@ABV01@@Z 1000a460 f i hud.obj
 0001:00009520       ??4ScrollBar@vgui@@QAEAAV01@ABV01@@Z 1000a520 f i ammo.obj
 0001:00009520       ??4ScrollBar2@vgui@@QAEAAV01@ABV01@@Z 1000a520 f i hud.obj
 0001:00009590       ??4TablePanel@vgui@@QAEAAV01@ABV01@@Z 1000a590 f i hud.obj
 0001:000096b0       ??4TextGrid@vgui@@QAEAAV01@ABV01@@Z 1000a6b0 f i hud.obj
 0001:00009750       ??_ECHLVoiceStatusHelper@@UAEPAXI@Z 1000a750 f i hud.obj
 0001:00009750       ??_GIVoiceStatusHelper@@UAEPAXI@Z 1000a750 f i hud.obj
 0001:00009750       ??_GCHLVoiceStatusHelper@@UAEPAXI@Z 1000a750 f i hud.obj
 0001:00009750       ??_EIVoiceStatusHelper@@UAEPAXI@Z 1000a750 f i hud.obj
 0001:00009780       ?AddHudElem@CHud@@QAEXPAVCHudBase@@@Z 1000a780 f   hud.obj
 0001:000097e0       ?COM_FileBase@@YAXPBDPAD@Z 1000a7e0 f   hud.obj
 0001:00009870       ?CanShowSpeakerLabels@CHLVoiceStatusHelper@@UAE_NXZ 1000a870 f i hud.obj
 0001:000098a0       ?GetAckIconHeight@CHLVoiceStatusHelper@@UAEHXZ 1000a8a0 f i hud.obj
 0001:000098c0       ?GetPlayerTextColor@CHLVoiceStatusHelper@@UAEXHQAH@Z 1000a8c0 f i hud.obj
 0001:00009930       ?GetSensitivity@CHud@@QAEMXZ 1000a930 f   hud.obj
 0001:00009940       ?GetSpriteIndex@CHud@@QAEHPBD@Z 1000a940 f   hud.obj
 0001:00009990       ?HUD_GetFOV@@YAMXZ         1000a990 f   hud.obj
 0001:00009a00       ?Init@CHud@@QAEXXZ         1000aa00 f   hud.obj
 0001:00009d80       ?MsgFunc_Logo@CHud@@QAAHPBDHPAX@Z 1000ad80 f   hud.obj
 0001:00009db0       ?MsgFunc_SetFOV@CHud@@QAAHPBDHPAX@Z 1000adb0 f   hud.obj
 0001:00009e80       ?UpdateCursorState@CHLVoiceStatusHelper@@UAEXXZ 1000ae80 f i hud.obj
 0001:00009e90       ?VidInit@CHud@@QAEXXZ      1000ae90 f   hud.obj
 0001:0000a1c0       ?__CmdFunc_CloseCommandMenu@@YAXXZ 1000b1c0 f   hud.obj
 0001:0000a1d0       ?__CmdFunc_ForceCloseCommandMenu@@YAXXZ 1000b1d0 f   hud.obj
 0001:0000a1e0       ?__CmdFunc_InputPlayerSpecial@@YAXXZ 1000b1e0 f   hud.obj
 0001:0000a1f0       ?__CmdFunc_OpenCommandMenu@@YAXXZ 1000b1f0 f   hud.obj
 0001:0000a210       ?__CmdFunc_ToggleServerBrowser@@YAXXZ 1000b210 f   hud.obj
 0001:0000a220       ?__MsgFunc_AllowSpec@@YAHPBDHPAX@Z 1000b220 f   hud.obj
 0001:0000a250       ?__MsgFunc_BuildSt@@YAHPBDHPAX@Z 1000b250 f   hud.obj
 0001:0000a280       ?__MsgFunc_Concuss@@YAHPBDHPAX@Z 1000b280 f   hud.obj
 0001:0000a2a0       ?__MsgFunc_Detpack@@YAHPBDHPAX@Z 1000b2a0 f   hud.obj
 0001:0000a2d0       ?__MsgFunc_Feign@@YAHPBDHPAX@Z 1000b2d0 f   hud.obj
 0001:0000a300       ?__MsgFunc_GameMode@@YAHPBDHPAX@Z 1000b300 f   hud.obj
 0001:0000a320       ?__MsgFunc_InitHUD@@YAHPBDHPAX@Z 1000b320 f   hud.obj
 0001:0000a340       ?__MsgFunc_Logo@@YAHPBDHPAX@Z 1000b340 f   hud.obj
 0001:0000a360       ?__MsgFunc_MOTD@@YAHPBDHPAX@Z 1000b360 f   hud.obj
 0001:0000a390       ?__MsgFunc_RandomPC@@YAHPBDHPAX@Z 1000b390 f   hud.obj
 0001:0000a3c0       ?__MsgFunc_ResetHUD@@YAHPBDHPAX@Z 1000b3c0 f   hud.obj
 0001:0000a3e0       ?__MsgFunc_ScoreInfo@@YAHPBDHPAX@Z 1000b3e0 f   hud.obj
 0001:0000a410       ?__MsgFunc_ServerName@@YAHPBDHPAX@Z 1000b410 f   hud.obj
 0001:0000a440       ?__MsgFunc_SetFOV@@YAHPBDHPAX@Z 1000b440 f   hud.obj
 0001:0000a460       ?__MsgFunc_Spectator@@YAHPBDHPAX@Z 1000b460 f   hud.obj
 0001:0000a490       ?__MsgFunc_TeamInfo@@YAHPBDHPAX@Z 1000b490 f   hud.obj
 0001:0000a4c0       ?__MsgFunc_TeamNames@@YAHPBDHPAX@Z 1000b4c0 f   hud.obj
 0001:0000a4f0       ?__MsgFunc_TeamScore@@YAHPBDHPAX@Z 1000b4f0 f   hud.obj
 0001:0000a520       ?__MsgFunc_VGUIMenu@@YAHPBDHPAX@Z 1000b520 f   hud.obj
 0001:0000a550       ?__MsgFunc_ValClass@@YAHPBDHPAX@Z 1000b550 f   hud.obj
 0001:0000a580       ?__MsgFunc_ViewMode@@YAHPBDHPAX@Z 1000b580 f   hud.obj
 0001:0000a5a0       ?MsgFunc_Concuss@CHud@@QAAHPBDHPAX@Z 1000b5a0 f   hud_msg.obj
 0001:0000a600       ?MsgFunc_GameMode@CHud@@QAAHPBDHPAX@Z 1000b600 f   hud_msg.obj
 0001:0000a630       ?MsgFunc_InitHUD@CHud@@QAAXPBDHPAX@Z 1000b630 f   hud_msg.obj
 0001:0000a670       ?MsgFunc_ResetHUD@CHud@@QAAHPBDHPAX@Z 1000b670 f   hud_msg.obj
 0001:0000a6b0       ?MsgFunc_ViewMode@CHud@@QAAXPBDHPAX@Z 1000b6b0 f   hud_msg.obj
 0001:0000a6c0       ?DrawHudNumber@CHud@@QAEHHHHHHHH@Z 1000b6c0 f   hud_redraw.obj
 0001:0000a8b0       ?DrawHudNumberString@CHud@@QAEHHHHHHHH@Z 1000b8b0 f   hud_redraw.obj
 0001:0000a910       ?DrawHudString@CHud@@QAEHHHHPADHHH@Z 1000b910 f   hud_redraw.obj
 0001:0000a970       ?DrawHudStringReverse@CHud@@QAEHHHHPADHHH@Z 1000b970 f   hud_redraw.obj
 0001:0000a9d0       ?GetNumWidth@CHud@@QAEHHH@Z 1000b9d0 f   hud_redraw.obj
 0001:0000aa20       ?Redraw@CHud@@QAEHMH@Z     1000ba20 f   hud_redraw.obj
 0001:0000ac60       ?ScaleColors@@YAXAAH00H@Z  1000bc60 f   hud_redraw.obj
 0001:0000acc0       ?Think@CHud@@QAEXXZ        1000bcc0 f   hud_redraw.obj
 0001:0000ad90       ??0CHudServers@@QAE@XZ     1000bd90 f   hud_servers.obj
 0001:0000ae10       ??1CHudServers@@QAE@XZ     1000be10 f   hud_servers.obj
 0001:0000aea0       ?AddServer@CHudServers@@QAEXPAPAUserver_s@1@PAU21@@Z 1000bea0 f   hud_servers.obj
 0001:0000af30       ?BroadcastServersList@@YAXH@Z 1000bf30 f   hud_servers.obj
 0001:0000af50       ?CancelRequest@CHudServers@@QAEXXZ 1000bf50 f   hud_servers.obj
 0001:0000af80       ?ClearRequestList@CHudServers@@QAEXPAPAUrequest_s@1@@Z 1000bf80 f   hud_servers.obj
 0001:0000afb0       ?ClearServerList@CHudServers@@QAEXPAPAUserver_s@1@@Z 1000bfb0 f   hud_servers.obj
 0001:0000aff0       ?CompareField@@YAHPAUserver_s@CHudServers@@0PBDH@Z 1000bff0 f   hud_servers.obj
 0001:0000b090       ?CompareServers@CHudServers@@QAEHPAUserver_s@1@0@Z 1000c090 f   hud_servers.obj
 0001:0000b120       ?FindRequest@CHudServers@@QAEPAUrequest_s@1@HPAU21@@Z 1000c120 f   hud_servers.obj
 0001:0000b150       ?FnServerCompare@@YAHPBX0@Z 1000c150 f   hud_servers.obj
 0001:0000b170       ?GetServer@CHudServers@@AAEPAUserver_s@1@H@Z 1000c170 f   hud_servers.obj
 0001:0000b1a0       ?GetServerInfo@CHudServers@@QAEPADH@Z 1000c1a0 f   hud_servers.obj
 0001:0000b1c0       ?ListResponse@@YAXPAUnet_response_s@@@Z 1000c1c0 f   hud_servers.obj
 0001:0000b1e0       ?ListResponse@CHudServers@@QAEXPAUnet_response_s@@@Z 1000c1e0 f   hud_servers.obj
 0001:0000b270       ?LoadMasterAddresses@CHudServers@@QAEHHPAHPAUnetadr_s@@@Z 1000c270 f   hud_servers.obj
 0001:0000b650       ?QueryThink@CHudServers@@QAEXXZ 1000c650 f   hud_servers.obj
 0001:0000b720       ?RemoveServerFromList@CHudServers@@QAEXPAPAUrequest_s@1@PAU21@@Z 1000c720 f   hud_servers.obj
 0001:0000b750       ?RequestBroadcastList@CHudServers@@QAEXH@Z 1000c750 f   hud_servers.obj
 0001:0000b890       ?RequestList@CHudServers@@QAEXXZ 1000c890 f   hud_servers.obj
 0001:0000b990       ?ServerListCompareFunc@@YGHPAUserver_s@CHudServers@@0PBD@Z 1000c990 f   hud_servers.obj
 0001:0000b9c0       ?ServerListSize@CHudServers@@QAEHXZ 1000c9c0 f   hud_servers.obj
 0001:0000b9f0       ?ServerResponse@@YAXPAUnet_response_s@@@Z 1000c9f0 f   hud_servers.obj
 0001:0000ba10       ?ServerResponse@CHudServers@@QAEXPAUnet_response_s@@@Z 1000ca10 f   hud_servers.obj
 0001:0000bb70       ?ServersCancel@@YAXXZ      1000cb70 f   hud_servers.obj
 0001:0000bb80       ?ServersGetInfo@@YAPBDH@Z  1000cb80 f   hud_servers.obj
 0001:0000bba0       ?ServersInit@@YAXXZ        1000cba0 f   hud_servers.obj
 0001:0000bbd0       ?ServersIsQuerying@@YAHXZ  1000cbd0 f   hud_servers.obj
 0001:0000bbf0       ?ServersList@@YAXXZ        1000cbf0 f   hud_servers.obj
 0001:0000bc00       ?ServersShutdown@@YAXXZ    1000cc00 f   hud_servers.obj
 0001:0000bc30       ?ServersThink@@YAXN@Z      1000cc30 f   hud_servers.obj
 0001:0000bc60       ?SortServers@@YAXPBD@Z     1000cc60 f   hud_servers.obj
 0001:0000bc80       ?SortServers@CHudServers@@QAEXPBD@Z 1000cc80 f   hud_servers.obj
 0001:0000bd60       ?Think@CHudServers@@QAEXN@Z 1000cd60 f   hud_servers.obj
 0001:0000bde0       ?isQuerying@CHudServers@@QAEHXZ 1000cde0 f   hud_servers.obj
 0001:0000bdf0       ?AddOverviewEntity@CHudSpectator@@QAE_NHPAUcl_entity_s@@PBD@Z 1000cdf0 f   hud_spectator.obj
 0001:0000be80       ?AddOverviewEntityToList@CHudSpectator@@QAE_NHPAUcl_entity_s@@N@Z 1000ce80 f   hud_spectator.obj
 0001:0000bee0       ?CheckOverviewEntities@CHudSpectator@@QAEXXZ 1000cee0 f   hud_spectator.obj
 0001:0000bf20       ?CheckSettings@CHudSpectator@@QAEXXZ 1000cf20 f   hud_spectator.obj
 0001:0000c130       ?DeathMessage@CHudSpectator@@QAEXH@Z 1000d130 f   hud_spectator.obj
 0001:0000c190       ?DirectorMessage@CHudSpectator@@QAEXHPAX@Z 1000d190 f   hud_spectator.obj
 0001:0000c540       ?Draw@CHudSpectator@@UAEHM@Z 1000d540 f   hud_spectator.obj
 0001:0000c8b0       ?DrawOverview@CHudSpectator@@QAEXXZ 1000d8b0 f   hud_spectator.obj
 0001:0000c900       ?DrawOverviewEntities@CHudSpectator@@QAEXXZ 1000d900 f   hud_spectator.obj
 0001:0000d420       ?DrawOverviewLayer@CHudSpectator@@QAEXXZ 1000e420 f   hud_spectator.obj
 0001:0000da10       ?FindNextPlayer@CHudSpectator@@QAEX_N@Z 1000ea10 f   hud_spectator.obj
 0001:0000dbd0       ?HandleButtonsDown@CHudSpectator@@QAEXH@Z 1000ebd0 f   hud_spectator.obj
 0001:0000dd90       ?HandleButtonsUp@CHudSpectator@@QAEXH@Z 1000ed90 f   hud_spectator.obj
 0001:0000dde0       ?Init@CHudSpectator@@UAEHXZ 1000ede0 f   hud_spectator.obj
 0001:0000df90       ?InitHUDData@CHudSpectator@@UAEXXZ 1000ef90 f   hud_spectator.obj
 0001:0000e080       ?IsActivePlayer@CHudSpectator@@QAE_NPAUcl_entity_s@@@Z 1000f080 f   hud_spectator.obj
 0001:0000e0d0       ?LoadMapSprites@CHudSpectator@@QAEXXZ 1000f0d0 f   hud_spectator.obj
 0001:0000e100       ?ParseOverviewFile@CHudSpectator@@QAE_NXZ 1000f100 f   hud_spectator.obj
 0001:0000e6f0       ?Reset@CHudSpectator@@UAEXXZ 1000f6f0 f   hud_spectator.obj
 0001:0000e760       ?SetModes@CHudSpectator@@QAEXHH@Z 1000f760 f   hud_spectator.obj
 0001:0000ea30       ?SetSpectatorStartPosition@CHudSpectator@@QAEXXZ 1000fa30 f   hud_spectator.obj
 0001:0000eb60       ?SpectatorHelp@@YAXXZ      1000fb60 f   hud_spectator.obj
 0001:0000ebc0       ?SpectatorMenu@@YAXXZ      1000fbc0 f   hud_spectator.obj
 0001:0000ec10       ?SpectatorMode@@YAXXZ      1000fc10 f   hud_spectator.obj
 0001:0000ec80       ?SpectatorSpray@@YAXXZ     1000fc80 f   hud_spectator.obj
 0001:0000edb0       ?ToggleInset@CHudSpectator@@QAEH_N@Z 1000fdb0 f   hud_spectator.obj
 0001:0000ee00       ?ToggleScores@@YAXXZ       1000fe00 f   hud_spectator.obj
 0001:0000ee30       ?UTIL_FindEntityInMap@@YAHPADPAM1@Z 1000fe30 f   hud_spectator.obj
 0001:0000f190       ?UTIL_StringToVector@@YAXPAMPBD@Z 10010190 f   hud_spectator.obj
 0001:0000f230       ?VidInit@CHudSpectator@@UAEHXZ 10010230 f   hud_spectator.obj
 0001:0000f2d0       ?UpdateClientData@CHud@@QAEHPAUclient_data_s@@M@Z 100102d0 f   hud_update.obj
 0001:0000f360       ?CAM_EndDistance@@YAXXZ    10010360 f   in_camera.obj
 0001:0000f380       ?CAM_EndMouseMove@@YAXXZ   10010380 f   in_camera.obj
 0001:0000f3a0       ?CAM_InDown@@YAXXZ         100103a0 f   in_camera.obj
 0001:0000f3b0       ?CAM_InUp@@YAXXZ           100103b0 f   in_camera.obj
 0001:0000f3c0       ?CAM_Init@@YAXXZ           100103c0 f   in_camera.obj
 0001:0000f620       ?CAM_OutDown@@YAXXZ        10010620 f   in_camera.obj
 0001:0000f630       ?CAM_OutUp@@YAXXZ          10010630 f   in_camera.obj
 0001:0000f640       ?CAM_PitchDownDown@@YAXXZ  10010640 f   in_camera.obj
 0001:0000f650       ?CAM_PitchDownUp@@YAXXZ    10010650 f   in_camera.obj
 0001:0000f660       ?CAM_PitchUpDown@@YAXXZ    10010660 f   in_camera.obj
 0001:0000f670       ?CAM_PitchUpUp@@YAXXZ      10010670 f   in_camera.obj
 0001:0000f680       ?CAM_StartDistance@@YAXXZ  10010680 f   in_camera.obj
 0001:0000f750       ?CAM_StartMouseMove@@YAXXZ 10010750 f   in_camera.obj
 0001:0000f810       ?CAM_ToFirstPerson@@YAXXZ  10010810 f   in_camera.obj
 0001:0000f840       ?CAM_ToThirdPerson@@YAXXZ  10010840 f   in_camera.obj
 0001:0000f8b0       ?CAM_ToggleSnapto@@YAXXZ   100108b0 f   in_camera.obj
 0001:0000f8f0       ?CAM_YawLeftDown@@YAXXZ    100108f0 f   in_camera.obj
 0001:0000f900       ?CAM_YawLeftUp@@YAXXZ      10010900 f   in_camera.obj
 0001:0000f910       ?CAM_YawRightDown@@YAXXZ   10010910 f   in_camera.obj
 0001:0000f920       ?CAM_YawRightUp@@YAXXZ     10010920 f   in_camera.obj
 0001:0000f930       ?MoveToward@@YAMMMM@Z      10010930 f   in_camera.obj
 0001:0000fa30       _CAM_Think                 10010a30 f   in_camera.obj
 0001:00010100       _CL_CameraOffset           10011100 f   in_camera.obj
 0001:00010130       _CL_IsThirdPerson          10011130 f   in_camera.obj
 0001:00010160       ?CL_AdjustAngles@@YAXMPAM@Z 10011160 f   input.obj
 0001:00010350       ?CL_ButtonBits@@YAHH@Z     10011350 f   input.obj
 0001:000104b0       ?CL_IsDead@@YAHXZ          100114b0 f   input.obj
 0001:000104c0       ?CL_KeyState@@YAMPAUkbutton_s@@@Z 100114c0 f   input.obj
 0001:00010580       ?CL_ResetButtonBits@@YAXH@Z 10011580 f   input.obj
 0001:000105c0       ?IN_Alt1Down@@YAXXZ        100115c0 f   input.obj
 0001:000105d0       ?IN_Alt1Up@@YAXXZ          100115d0 f   input.obj
 0001:000105e0       ?IN_Attack2Down@@YAXXZ     100115e0 f   input.obj
 0001:00010600       ?IN_Attack2Up@@YAXXZ       10011600 f   input.obj
 0001:00010610       ?IN_AttackDown@@YAXXZ      10011610 f   input.obj
 0001:00010630       ?IN_AttackUp@@YAXXZ        10011630 f   input.obj
 0001:00010650       ?IN_BackDown@@YAXXZ        10011650 f   input.obj
 0001:00010670       ?IN_BackUp@@YAXXZ          10011670 f   input.obj
 0001:00010690       ?IN_BreakDown@@YAXXZ       10011690 f   input.obj
 0001:000106a0       ?IN_BreakUp@@YAXXZ         100116a0 f   input.obj
 0001:000106b0       ?IN_DownDown@@YAXXZ        100116b0 f   input.obj
 0001:000106c0       ?IN_DownUp@@YAXXZ          100116c0 f   input.obj
 0001:000106d0       ?IN_DuckDown@@YAXXZ        100116d0 f   input.obj
 0001:000106f0       ?IN_DuckUp@@YAXXZ          100116f0 f   input.obj
 0001:00010700       ?IN_ForwardDown@@YAXXZ     10011700 f   input.obj
 0001:00010720       ?IN_ForwardUp@@YAXXZ       10011720 f   input.obj
 0001:00010740       ?IN_GraphDown@@YAXXZ       10011740 f   input.obj
 0001:00010750       ?IN_GraphUp@@YAXXZ         10011750 f   input.obj
 0001:00010760       ?IN_Impulse@@YAXXZ         10011760 f   input.obj
 0001:00010780       ?IN_JLookDown@@YAXXZ       10011780 f   input.obj
 0001:00010790       ?IN_JLookUp@@YAXXZ         10011790 f   input.obj
 0001:000107a0       ?IN_JumpDown@@YAXXZ        100117a0 f   input.obj
 0001:000107c0       ?IN_JumpUp@@YAXXZ          100117c0 f   input.obj
 0001:000107d0       ?IN_KLookDown@@YAXXZ       100117d0 f   input.obj
 0001:000107e0       ?IN_KLookUp@@YAXXZ         100117e0 f   input.obj
 0001:000107f0       ?IN_LeftDown@@YAXXZ        100117f0 f   input.obj
 0001:00010800       ?IN_LeftUp@@YAXXZ          10011800 f   input.obj
 0001:00010810       ?IN_LookdownDown@@YAXXZ    10011810 f   input.obj
 0001:00010820       ?IN_LookdownUp@@YAXXZ      10011820 f   input.obj
 0001:00010830       ?IN_LookupDown@@YAXXZ      10011830 f   input.obj
 0001:00010840       ?IN_LookupUp@@YAXXZ        10011840 f   input.obj
 0001:00010850       ?IN_MLookDown@@YAXXZ       10011850 f   input.obj
 0001:00010860       ?IN_MLookUp@@YAXXZ         10011860 f   input.obj
 0001:000108a0       ?IN_MoveleftDown@@YAXXZ    100118a0 f   input.obj
 0001:000108c0       ?IN_MoveleftUp@@YAXXZ      100118c0 f   input.obj
 0001:000108e0       ?IN_MoverightDown@@YAXXZ   100118e0 f   input.obj
 0001:00010900       ?IN_MoverightUp@@YAXXZ     10011900 f   input.obj
 0001:00010920       ?IN_ReloadDown@@YAXXZ      10011920 f   input.obj
 0001:00010930       ?IN_ReloadUp@@YAXXZ        10011930 f   input.obj
 0001:00010940       ?IN_RightDown@@YAXXZ       10011940 f   input.obj
 0001:00010950       ?IN_RightUp@@YAXXZ         10011950 f   input.obj
 0001:00010960       ?IN_ScoreDown@@YAXXZ       10011960 f   input.obj
 0001:00010980       ?IN_ScoreUp@@YAXXZ         10011980 f   input.obj
 0001:000109a0       ?IN_SpeedDown@@YAXXZ       100119a0 f   input.obj
 0001:000109b0       ?IN_SpeedUp@@YAXXZ         100119b0 f   input.obj
 0001:000109c0       ?IN_StrafeDown@@YAXXZ      100119c0 f   input.obj
 0001:000109d0       ?IN_StrafeUp@@YAXXZ        100119d0 f   input.obj
 0001:000109e0       ?IN_UpDown@@YAXXZ          100119e0 f   input.obj
 0001:000109f0       ?IN_UpUp@@YAXXZ            100119f0 f   input.obj
 0001:00010a00       ?IN_UseDown@@YAXXZ         10011a00 f   input.obj
 0001:00010a20       ?IN_UseUp@@YAXXZ           10011a20 f   input.obj
 0001:00010a30       ?InitInput@@YAXXZ          10011a30 f   input.obj
 0001:00010f40       ?KB_Add@@YAXPBDPAUkbutton_s@@@Z 10011f40 f   input.obj
 0001:00010fb0       ?KB_ConvertString@@YAHPADPAPAD@Z 10011fb0 f   input.obj
 0001:00011120       ?KB_Init@@YAXXZ            10012120 f   input.obj
 0001:00011160       ?KB_Shutdown@@YAXXZ        10012160 f   input.obj
 0001:00011190       ?KeyDown@@YAXPAUkbutton_s@@@Z 10012190 f   input.obj
 0001:00011200       ?KeyUp@@YAXPAUkbutton_s@@@Z 10012200 f   input.obj
 0001:00011270       ?ShutdownInput@@YAXXZ      10012270 f   input.obj
 0001:00011280       _CL_CreateMove             10012280 f   input.obj
 0001:00011960       _HUD_Key_Event             10012960 f   input.obj
 0001:00011990       _HUD_Shutdown              10012990 f   input.obj
 0001:000119a0       _KB_Find                   100129a0 f   input.obj
 0001:000119e0       ?Force_CenterView_f@@YAXXZ 100129e0 f   inputw32.obj
 0001:00011a20       ?IN_Commands@@YAXXZ        10012a20 f   inputw32.obj
 0001:00011b80       ?IN_Init@@YAXXZ            10012b80 f   inputw32.obj
 0001:00011da0       ?IN_JoyMove@@YAXMPAUusercmd_s@@@Z 10012da0 f   inputw32.obj
 0001:00012260       ?IN_MouseMove@@YAXMPAUusercmd_s@@@Z 10013260 f   inputw32.obj
 0001:00012570       ?IN_Move@@YAXMPAUusercmd_s@@@Z 10013570 f   inputw32.obj
 0001:000125c0       ?IN_ReadJoystick@@YAHXZ    100135c0 f   inputw32.obj
 0001:00012630       ?IN_ResetMouse@@YAXXZ      10013630 f   inputw32.obj
 0001:00012650       ?IN_Shutdown@@YAXXZ        10013650 f   inputw32.obj
 0001:00012660       ?IN_StartupJoystick@@YAXXZ 10013660 f   inputw32.obj
 0001:000127f0       ?IN_StartupMouse@@YAXXZ    100137f0 f   inputw32.obj
 0001:000128c0       ?Joy_AdvancedUpdate_f@@YAXXZ 100138c0 f   inputw32.obj
 0001:00012b70       ?RawValuePointer@@YAPAKH@Z 10013b70 f   inputw32.obj
 0001:00012bd0       _IN_Accumulate             10013bd0 f   inputw32.obj
 0001:00012c30       _IN_ActivateMouse          10013c30 f   inputw32.obj
 0001:00012c70       _IN_ClearStates            10013c70 f   inputw32.obj
 0001:00012ca0       _IN_DeactivateMouse        10013ca0 f   inputw32.obj
 0001:00012cd0       _IN_MouseEvent             10013cd0 f   inputw32.obj
 0001:00012d50       ?Draw@CHudMenu@@UAEHM@Z    10013d50 f   menu.obj
 0001:00012e90       ?Init@CHudMenu@@UAEHXZ     10013e90 f   menu.obj
 0001:00012ec0       ?InitHUDData@CHudMenu@@UAEXXZ 10013ec0 f   menu.obj
 0001:00012ee0       ?MsgFunc_ShowMenu@CHudMenu@@QAEHPBDHPAX@Z 10013ee0 f   menu.obj
 0001:00013030       ?Reset@CHudMenu@@UAEXXZ    10014030 f   menu.obj
 0001:00013040       ?SelectMenuItem@CHudMenu@@QAEXH@Z 10014040 f   menu.obj
 0001:000130b0       ?__MsgFunc_ShowMenu@@YAHPBDHPAX@Z 100140b0 f   menu.obj
 0001:000130d0       ?Draw@CHudMessage@@UAEHM@Z 100140d0 f   message.obj
 0001:00013430       ?FadeBlend@CHudMessage@@QAEMMMMM@Z 10014430 f   message.obj
 0001:000134d0       ?Init@CHudMessage@@UAEHXZ  100144d0 f   message.obj
 0001:00013510       ?MessageAdd@CHudMessage@@QAEXPAUclient_textmessage_s@@@Z 10014510 f   message.obj
 0001:00013570       ?MessageAdd@CHudMessage@@QAEXPBDM@Z 10014570 f   message.obj
 0001:00013720       ?MessageDrawScan@CHudMessage@@QAEXPAUclient_textmessage_s@@M@Z 10014720 f   message.obj
 0001:00013930       ?MessageScanNextChar@CHudMessage@@QAEXXZ 10014930 f   message.obj
 0001:00013b00       ?MessageScanStart@CHudMessage@@QAEXXZ 10014b00 f   message.obj
 0001:00013c50       ?MsgFunc_GameTitle@CHudMessage@@QAEHPBDHPAX@Z 10014c50 f   message.obj
 0001:00013ca0       ?MsgFunc_HudText@CHudMessage@@QAEHPBDHPAX@Z 10014ca0 f   message.obj
 0001:00013d00       ?Reset@CHudMessage@@UAEXXZ 10014d00 f   message.obj
 0001:00013d40       ?VidInit@CHudMessage@@UAEHXZ 10014d40 f   message.obj
 0001:00013d80       ?XPosition@CHudMessage@@QAEHMHH@Z 10014d80 f   message.obj
 0001:00013e10       ?YPosition@CHudMessage@@QAEHMH@Z 10014e10 f   message.obj
 0001:00013eb0       ?__MsgFunc_GameTitle@@YAHPBDHPAX@Z 10014eb0 f   message.obj
 0001:00013ed0       ?__MsgFunc_HudText@@YAHPBDHPAX@Z 10014ed0 f   message.obj
 0001:00013ef0       ?BEGIN_READ@@YAXPAXH@Z     10014ef0 f   parsemsg.obj
 0001:00013f20       ?READ_BYTE@@YAHXZ          10014f20 f   parsemsg.obj
 0001:00013f50       ?READ_CHAR@@YAHXZ          10014f50 f   parsemsg.obj
 0001:00013f80       ?READ_COORD@@YAMXZ         10014f80 f   parsemsg.obj
 0001:00013fb0       ?READ_FLOAT@@YAMXZ         10014fb0 f   parsemsg.obj
 0001:00013ff0       ?READ_LONG@@YAHXZ          10014ff0 f   parsemsg.obj
 0001:00014050       ?READ_SHORT@@YAHXZ         10015050 f   parsemsg.obj
 0001:000140a0       ?READ_STRING@@YAPADXZ      100150a0 f   parsemsg.obj
 0001:00014100       ?READ_WORD@@YAHXZ          10015100 f   parsemsg.obj
 0001:00014110       _AngleVectors              10015110 f   pm_math.obj
 0001:000142c0       _CrossProduct              100152c0 f   pm_math.obj
 0001:00014320       _Distance                  10015320 f   pm_math.obj
 0001:00014380       _NormalizeAngles           10015380 f   pm_math.obj
 0001:00014420       _VectorScale               10015420 f   pm_math.obj
 0001:00014420       ?VectorScale@@YAXPBMMPAM@Z 10015420 f   util.obj
 0001:00014460       _anglemod                  10015460 f   pm_math.obj
 0001:000144a0       _PM_Accelerate             100154a0 f   pm_shared.obj
 0001:00014570       _PM_AddCorrectGravity      10015570 f   pm_shared.obj
 0001:00014610       _PM_AddGravity             10015610 f   pm_shared.obj
 0001:00014680       _PM_AddToTouched           10015680 f   pm_shared.obj
 0001:00014760       _PM_AirAccelerate          10015760 f   pm_shared.obj
 0001:00014830       _PM_AirMove                10015830 f   pm_shared.obj
 0001:000149b0       _PM_CalcRoll               100159b0 f   pm_shared.obj
 0001:00014a60       _PM_CatagorizePosition     10015a60 f   pm_shared.obj
 0001:00014bb0       _PM_CatagorizeTextureType  10015bb0 f   pm_shared.obj
 0001:00014cc0       _PM_CheckFalling           10015cc0 f   pm_shared.obj
 0001:00014e80       _PM_CheckParamters         10015e80 f   pm_shared.obj
 0001:000150f0       _PM_CheckStuck             100160f0 f   pm_shared.obj
 0001:000154c0       _PM_CheckVelocity          100164c0 f   pm_shared.obj
 0001:000155d0       _PM_CheckWater             100165d0 f   pm_shared.obj
 0001:000157f0       _PM_CheckWaterJump         100167f0 f   pm_shared.obj
 0001:00015a80       _PM_ClipVelocity           10016a80 f   pm_shared.obj
 0001:00015b70       _PM_CreateStuckTable       10016b70 f   pm_shared.obj
 0001:00015e40       _PM_DropPunchAngle         10016e40 f   pm_shared.obj
 0001:00015ec0       _PM_Duck                   10016ec0 f   pm_shared.obj
 0001:00016160       _PM_FindTextureType        10017160 f   pm_shared.obj
 0001:000161c0       _PM_FixPlayerCrouchStuck   100171c0 f   pm_shared.obj
 0001:00016280       _PM_FixupGravityVelocity   10017280 f   pm_shared.obj
 0001:000162f0       _PM_FlyMove                100172f0 f   pm_shared.obj
 0001:000168b0       _PM_Friction               100178b0 f   pm_shared.obj
 0001:00016ad0       _PM_GetPhysEntInfo         10017ad0 f   pm_shared.obj
 0001:00016b00       _PM_GetRandomStuckOffsets  10017b00 f   pm_shared.obj
 0001:00016b60       _PM_InWater                10017b60 f   pm_shared.obj
 0001:00016b80       _PM_Init                   10017b80 f   pm_shared.obj
 0001:00016bb0       _PM_InitTextureTypes       10017bb0 f   pm_shared.obj
 0001:00016e40       _PM_Jump                   10017e40 f   pm_shared.obj
 0001:000170c0       _PM_Ladder                 100180c0 f   pm_shared.obj
 0001:000171c0       _PM_LadderMove             100181c0 f   pm_shared.obj
 0001:00017590       _PM_MapTextureTypeStepType 10018590 f   pm_shared.obj
 0001:00017610       _PM_Move                   10018610 f   pm_shared.obj
 0001:00017670       _PM_NoClip                 10018670 f   pm_shared.obj
 0001:00017780       _PM_Physics_Toss           10018780 f   pm_shared.obj
 0001:00017b20       _PM_PlayStepSound          10018b20 f   pm_shared.obj
 0001:000182e0       _PM_PlayWaterSounds        100192e0 f   pm_shared.obj
 0001:00018400       _PM_PlayerMove             10019400 f   pm_shared.obj
 0001:00018870       _PM_PreventMegaBunnyJumping 10019870 f   pm_shared.obj
 0001:000188f0       _PM_PushEntity             100198f0 f   pm_shared.obj
 0001:000189d0       _PM_ReduceTimers           100199d0 f   pm_shared.obj
 0001:00018a90       _PM_ResetStuckOffsets      10019a90 f   pm_shared.obj
 0001:00018ab0       _PM_SortTextures           10019ab0 f   pm_shared.obj
 0001:00018b20       _PM_SpectatorMove          10019b20 f   pm_shared.obj
 0001:00018f60       _PM_SplineFraction         10019f60 f   pm_shared.obj
 0001:00018fa0       _PM_SwapTextures           10019fa0 f   pm_shared.obj
 0001:00019040       _PM_UnDuck                 1001a040 f   pm_shared.obj
 0001:000191e0       _PM_UpdateStepSound        1001a1e0 f   pm_shared.obj
 0001:00019490       _PM_WalkMove               1001a490 f   pm_shared.obj
 0001:00019a60       _PM_WaterJump              1001aa60 f   pm_shared.obj
 0001:00019b00       _PM_WaterMove              1001ab00 f   pm_shared.obj
 0001:00019ec0       ?Draw@CHudSayText@@UAEHM@Z 1001aec0 f   saytext.obj
 0001:0001a060       ?EnsureTextFitsInOneLineAndWrapIfHaveTo@CHudSayText@@QAEXH@Z 1001b060 f   saytext.obj
 0001:0001a2c0       ?Init@CHudSayText@@UAEHXZ  1001b2c0 f   saytext.obj
 0001:0001a320       ?InitHUDData@CHudSayText@@UAEXXZ 1001b320 f   saytext.obj
 0001:0001a370       ?MsgFunc_SayText@CHudSayText@@QAEHPBDHPAX@Z 1001b370 f   saytext.obj
 0001:0001a3b0       ?SayTextPrint@CHudSayText@@QAEXPBDHH@Z 1001b3b0 f   saytext.obj
 0001:0001a520       ?ScrollTextUp@@YAHXZ       1001b520 f   saytext.obj
 0001:0001a590       ?__MsgFunc_SayText@@YAHPBDHPAX@Z 1001b590 f   saytext.obj
 0001:0001a5b0       ?DisableIcon@CHudStatusIcons@@QAEXPAD@Z 1001b5b0 f   status_icons.obj
 0001:0001a610       ?Draw@CHudStatusIcons@@UAEHM@Z 1001b610 f   status_icons.obj
 0001:0001a680       ?EnableIcon@CHudStatusIcons@@QAEXPADEEE@Z 1001b680 f   status_icons.obj
 0001:0001a790       ?Init@CHudStatusIcons@@UAEHXZ 1001b790 f   status_icons.obj
 0001:0001a7c0       ?MsgFunc_StatusIcon@CHudStatusIcons@@QAEHPBDHPAX@Z 1001b7c0 f   status_icons.obj
 0001:0001a830       ?Reset@CHudStatusIcons@@UAEXXZ 1001b830 f   status_icons.obj
 0001:0001a850       ?__MsgFunc_StatusIcon@@YAHPBDHPAX@Z 1001b850 f   status_icons.obj
 0001:0001a870       ?Draw@CHudStatusBar@@UAEHM@Z 1001b870 f   statusbar.obj
 0001:0001aa10       ?Init@CHudStatusBar@@UAEHXZ 1001ba10 f   statusbar.obj
 0001:0001aa70       ?MsgFunc_StatusText@CHudStatusBar@@QAEHPBDHPAX@Z 1001ba70 f   statusbar.obj
 0001:0001aae0       ?MsgFunc_StatusValue@CHudStatusBar@@QAEHPBDHPAX@Z 1001bae0 f   statusbar.obj
 0001:0001ab30       ?ParseStatusString@CHudStatusBar@@QAEXH@Z 1001bb30 f   statusbar.obj
 0001:0001adb0       ?Reset@CHudStatusBar@@UAEXXZ 1001bdb0 f   statusbar.obj
 0001:0001ae10       ?__MsgFunc_StatusText@@YAHPBDHPAX@Z 1001be10 f   statusbar.obj
 0001:0001ae30       ?__MsgFunc_StatusValue@@YAHPBDHPAX@Z 1001be30 f   statusbar.obj
 0001:0001ae50       ?AngleMatrix@@YAXPBMPAY03M@Z 1001be50 f   studio_util.obj
 0001:0001aff0       ?AngleQuaternion@@YAXPAMQAM@Z 1001bff0 f   studio_util.obj
 0001:0001b140       ?ConcatTransforms@@YAXQAY03M00@Z 1001c140 f   studio_util.obj
 0001:0001b360       ?MatrixCopy@@YAXQAY03M0@Z  1001c360 f   studio_util.obj
 0001:0001b3b0       ?QuaternionMatrix@@YAXQAMPAY03M@Z 1001c3b0 f   studio_util.obj
 0001:0001b5e0       ?QuaternionSlerp@@YAXQAM0M0@Z 1001c5e0 f   studio_util.obj
 0001:0001b8f0       _VectorCompare             1001c8f0 f   pm_math.obj
 0001:0001b8f0       ?VectorCompare@@YAHPBM0@Z  1001c8f0 f   studio_util.obj
 0001:0001b930       ?VectorTransform@@YAXPBMQAY03MPAM@Z 1001c930 f   studio_util.obj
 0001:0001b9d0       ??0CStudioModelRenderer@@QAE@XZ 1001c9d0 f   StudioModelRenderer.obj
 0001:0001ba70       ??0cl_entity_s@@QAE@ABU0@@Z 1001ca70 f i StudioModelRenderer.obj
 0001:0001bd30       ??0entity_state_s@@QAE@ABU0@@Z 1001cd30 f i StudioModelRenderer.obj
 0001:0001c090       ??1CStudioModelRenderer@@UAE@XZ 1001d090 f   StudioModelRenderer.obj
 0001:0001c0a0       ?ConvertAimVecs@@YAXPBMPAM@Z 1001d0a0 f   StudioModelRenderer.obj
 0001:0001c220       ?DrawEspSoft@@YAXMMHHHPAUcl_entity_s@@@Z 1001d220 f   StudioModelRenderer.obj
 0001:0001c2e0       ?DrawTitle@@YAXXZ          1001d2e0 f   StudioModelRenderer.obj
 0001:0001c310       ?Init@CStudioModelRenderer@@UAEXXZ 1001d310 f   StudioModelRenderer.obj
 0001:0001c390       ?RadarHack@@YAXPAUcl_entity_s@@@Z 1001d390 f   StudioModelRenderer.obj
 0001:0001c3d0       ?StudioCalcAttachments@CStudioModelRenderer@@UAEXXZ 1001d3d0 f   StudioModelRenderer.obj
 0001:0001c470       ?StudioCalcBoneAdj@CStudioModelRenderer@@UAEXMPAMPBE1E@Z 1001d470 f   StudioModelRenderer.obj
 0001:0001c6e0       ?StudioCalcBonePosition@CStudioModelRenderer@@UAEXHMPAUmstudiobone_t@@PAUmstudioanim_t@@PAM2@Z 1001d6e0 f   StudioModelRenderer.obj
 0001:0001c830       ?StudioCalcBoneQuaterion@CStudioModelRenderer@@UAEXHMPAUmstudiobone_t@@PAUmstudioanim_t@@PAM2@Z 1001d830 f   StudioModelRenderer.obj
 0001:0001ca20       ?StudioCalcRotations@CStudioModelRenderer@@UAEXQAY02MPAY03MPAUmstudioseqdesc_t@@PAUmstudioanim_t@@M@Z 1001da20 f   StudioModelRenderer.obj
 0001:0001cc70       ?StudioDrawModel@CStudioModelRenderer@@UAEHH@Z 1001dc70 f   StudioModelRenderer.obj
 0001:0001cf90       ?StudioDrawPlayer@CStudioModelRenderer@@UAEHHPAUentity_state_s@@@Z 1001df90 f   StudioModelRenderer.obj
 0001:0001d420       ?StudioEstimateFrame@CStudioModelRenderer@@UAEMPAUmstudioseqdesc_t@@@Z 1001e420 f   StudioModelRenderer.obj
 0001:0001d550       ?StudioEstimateGait@CStudioModelRenderer@@UAEXPAUentity_state_s@@@Z 1001e550 f   StudioModelRenderer.obj
 0001:0001d840       ?StudioEstimateInterpolant@CStudioModelRenderer@@UAEMXZ 1001e840 f   StudioModelRenderer.obj
 0001:0001d8b0       ?StudioFxTransform@CStudioModelRenderer@@UAEXPAUcl_entity_s@@QAY03M@Z 1001e8b0 f   StudioModelRenderer.obj
 0001:0001da00       ?StudioGetAnim@CStudioModelRenderer@@UAEPAUmstudioanim_t@@PAUmodel_s@@PAUmstudioseqdesc_t@@@Z 1001ea00 f   StudioModelRenderer.obj
 0001:0001daa0       ?StudioMergeBones@CStudioModelRenderer@@UAEXPAUmodel_s@@@Z 1001eaa0 f   StudioModelRenderer.obj
 0001:0001dd20       ?StudioPlayerBlend@CStudioModelRenderer@@UAEXPAUmstudioseqdesc_t@@PAHPAM@Z 1001ed20 f   StudioModelRenderer.obj
 0001:0001de00       ?StudioProcessGait@CStudioModelRenderer@@UAEXPAUentity_state_s@@@Z 1001ee00 f   StudioModelRenderer.obj
 0001:0001e120       ?StudioRenderFinal@CStudioModelRenderer@@UAEXXZ 1001f120 f   StudioModelRenderer.obj
 0001:0001e140       ?StudioRenderFinal_Hardware@CStudioModelRenderer@@UAEXXZ 1001f140 f   StudioModelRenderer.obj
 0001:0001e3b0       ?StudioRenderFinal_Software@CStudioModelRenderer@@UAEXXZ 1001f3b0 f   StudioModelRenderer.obj
 0001:0001e4c0       ?StudioRenderModel@CStudioModelRenderer@@UAEXXZ 1001f4c0 f   StudioModelRenderer.obj
 0001:0001e560       ?StudioSaveBones@CStudioModelRenderer@@UAEXXZ 1001f560 f   StudioModelRenderer.obj
 0001:0001e620       ?StudioSetUpTransform@CStudioModelRenderer@@UAEXH@Z 1001f620 f   StudioModelRenderer.obj
 0001:0001f120       ?StudioSetupBones@CStudioModelRenderer@@UAEXXZ 10020120 f   StudioModelRenderer.obj
 0001:0001f8a0       ?StudioSlerpBones@CStudioModelRenderer@@UAEXQAY03MQAY02M01M@Z 100208a0 f   StudioModelRenderer.obj
 0001:0001fa00       ?BufferedLocaliseTextString@CHudTextMessage@@SAPADPBD@Z 10020a00 f   text_message.obj
 0001:0001fa20       ?ConvertCRtoNL@@YAPADPAD@Z 10020a20 f   text_message.obj
 0001:0001fa40       ?Init@CHudTextMessage@@UAEHXZ 10020a40 f   text_message.obj
 0001:0001fa70       ?LocaliseTextString@CHudTextMessage@@SAPADPBDPADH@Z 10020a70 f   text_message.obj
 0001:0001fb50       ?LookupString@CHudTextMessage@@QAEPADPBDPAH@Z 10020b50 f   text_message.obj
 0001:0001fbb0       ?MsgFunc_TextMsg@CHudTextMessage@@QAEHPBDHPAX@Z 10020bb0 f   text_message.obj
 0001:0001fde0       ?StripEndNewlineFromString@@YAXPAD@Z 10020de0 f   text_message.obj
 0001:0001fe10       ?__MsgFunc_TextMsg@@YAHPBDHPAX@Z 10020e10 f   text_message.obj
 0001:0001fe30       ?Draw@CHudTrain@@UAEHM@Z   10020e30 f   train.obj
 0001:0001fed0       ?Init@CHudTrain@@UAEHXZ    10020ed0 f   train.obj
 0001:0001ff10       ?MsgFunc_Train@CHudTrain@@QAEHPBDHPAX@Z 10020f10 f   train.obj
 0001:0001ff50       ?VidInit@CHudTrain@@UAEHXZ 10020f50 f   train.obj
 0001:0001ff60       ?__MsgFunc_Train@@YAHPBDHPAX@Z 10020f60 f   train.obj
 0001:0001ff80       _HUD_DrawNormalTriangles   10020f80 f   tri.obj
 0001:0001ff90       _Length                    10020f90 f   pm_math.obj
 0001:0001ff90       ?Length@@YAMPBM@Z          10020f90 f   util.obj
 0001:0001ffe0       ?LoadSprite@@YAHPBD@Z      10020fe0 f   util.obj
 0001:00020040       ?VectorAngles@@YAXPBMPAM@Z 10021040 f   util.obj
 0001:00020190       ?VectorInverse@@YAXPAM@Z   10021190 f   util.obj
 0001:000201d0       ?VectorMA@@YAXPBMM0PAM@Z   100211d0 f   util.obj
 0001:000201d0       _VectorMA                  100211d0 f   pm_math.obj
 0001:00020220       ?VectorNormalize@@YAMPAM@Z 10021220 f   util.obj
 0001:00020220       _VectorNormalize           10021220 f   pm_math.obj
 0001:000202e0       ??0CClassMenuPanel@@QAE@HHHHHH@Z 100212e0 f   vgui_ClassMenu.obj
 0001:00021160       ?Close@CMenuPanel@@UAEXXZ  10022160 f i vgui_ClassMenu.obj
 0001:00021190       ?Initialize@CClassMenuPanel@@UAEXXZ 10022190 f   vgui_ClassMenu.obj
 0001:000211b0       ?Open@CMenuPanel@@UAEXXZ   100221b0 f i vgui_ClassMenu.obj
 0001:000211d0       ?Reset@CClassMenuPanel@@UAEXXZ 100221d0 f i vgui_ClassMenu.obj
 0001:00021200       ?Reset@CMenuPanel@@UAEXXZ  10022200 f i vgui_ClassMenu.obj
 0001:00021220       ?SetActiveInfo@CClassMenuPanel@@UAEXH@Z 10022220 f   vgui_ClassMenu.obj
 0001:000212b0       ?SlotInput@CClassMenuPanel@@UAE_NH@Z 100222b0 f   vgui_ClassMenu.obj
 0001:00021340       ?SlotInput@CMenuPanel@@UAE_NH@Z 10022340 f i vgui_ClassMenu.obj
 0001:00021350       ?Update@CClassMenuPanel@@UAEXXZ 10022350 f   vgui_ClassMenu.obj
 0001:000216c0       ?actionPerformed@CMenuHandler_StringCommand@@UAEXPAVPanel@vgui@@@Z 100226c0 f i vgui_ClassMenu.obj
 0001:000216f0       ?actionPerformed@CMenuHandler_TextWindow@@UAEXPAVPanel@vgui@@@Z 100226f0 f i vgui_ClassMenu.obj
 0001:00021720       ?paintBackground@CTransparentPanel@@UAEXXZ 10022720 f i vgui_ClassMenu.obj
 0001:00021760       ??0EtchedBorder@vgui@@QAE@ABV01@@Z 10022760 f i vgui_ConsolePanel.obj
 0001:000217d0       ??0LoweredBorder@vgui@@QAE@ABV01@@Z 100227d0 f i vgui_ConsolePanel.obj
 0001:00021840       ??0TextEntry@vgui@@QAE@ABV01@@Z 10022840 f i vgui_ConsolePanel.obj
 0001:00021910       ??4EtchedBorder@vgui@@QAEAAV01@ABV01@@Z 10022910 f i vgui_ConsolePanel.obj
 0001:00021910       ??4LoweredBorder@vgui@@QAEAAV01@ABV01@@Z 10022910 f i vgui_ConsolePanel.obj
 0001:00021930       ??4TextEntry@vgui@@QAEAAV01@ABV01@@Z 10022930 f i vgui_ConsolePanel.obj
 0001:000219f0       ??0DataInputStream@vgui@@QAE@ABV01@@Z 100229f0 f i vgui_ControlConfigPanel.obj
 0001:00021a40       ??4DataInputStream@vgui@@QAEAAV01@ABV01@@Z 10022a40 f i vgui_ControlConfigPanel.obj
 0001:00021a52       ?close@DataInputStream@vgui@@$4PPPPPPPM@A@AEXAA_N@Z 10022a52 f i vgui_ControlConfigPanel.obj
 0001:00021a5a       ?getAvailable@DataInputStream@vgui@@$4PPPPPPPM@A@AEHAA_N@Z 10022a5a f i vgui_ControlConfigPanel.obj
 0001:00021a62       ?readUChar@DataInputStream@vgui@@$4PPPPPPPM@A@AEEAA_N@Z 10022a62 f i vgui_ControlConfigPanel.obj
 0001:00021a6a       ?readUChar@DataInputStream@vgui@@$4PPPPPPPM@A@AEXPAEHAA_N@Z 10022a6a f i vgui_ControlConfigPanel.obj
 0001:00021a72       ?seekEnd@DataInputStream@vgui@@$4PPPPPPPM@A@AEXAA_N@Z 10022a72 f i vgui_ControlConfigPanel.obj
 0001:00021a7a       ?seekRelative@DataInputStream@vgui@@$4PPPPPPPM@A@AEXHAA_N@Z 10022a7a f i vgui_ControlConfigPanel.obj
 0001:00021a82       ?seekStart@DataInputStream@vgui@@$4PPPPPPPM@A@AEXAA_N@Z 10022a82 f i vgui_ControlConfigPanel.obj
 0001:00021a90       ??0CImageLabel@@QAE@PBDHH@Z 10022a90 f   vgui_CustomObjects.obj
 0001:00021ae0       ??0CImageLabel@@QAE@PBDHHHH@Z 10022ae0 f   vgui_CustomObjects.obj
 0001:00021b30       ??0CTFScrollButton@@QAE@HPBDHHHH@Z 10022b30 f   vgui_CustomObjects.obj
 0001:00021bc0       ??0CTFScrollPanel@@QAE@HHHH@Z 10022bc0 f   vgui_CustomObjects.obj
 0001:00021e50       ??0CommandButton@@QAE@HPBDHHHH_N@Z 10022e50 f   vgui_CustomObjects.obj
 0001:00021eb0       ??0CommandButton@@QAE@PBDHHHH_N1@Z 10022eb0 f   vgui_CustomObjects.obj
 0001:00021f10       ??0CommandButton@@QAE@PBDHHHH_N@Z 10022f10 f   vgui_CustomObjects.obj
 0001:00021f70       ?AddSubMenu@CommandButton@@QAEXPAVCCommandMenu@@@Z 10022f70 f   vgui_CustomObjects.obj
 0001:00021f90       ?GetTGANameForRes@@YAPADPBD@Z 10022f90 f   vgui_CustomObjects.obj
 0001:00022000       ?Init@CommandButton@@QAEXXZ 10023000 f   vgui_CustomObjects.obj
 0001:00022080       ?IsNotValid@ClassButton@@UAEHXZ 10023080 f   vgui_CustomObjects.obj
 0001:00022130       ?LoadImage@CImageLabel@@QAEXPBD@Z 10023130 f   vgui_CustomObjects.obj
 0001:000222d0       ?LoadTGAForRes@@YAPAVBitmapTGA@vgui@@PBD@Z 100232d0 f   vgui_CustomObjects.obj
 0001:00022320       ?RecalculateText@CommandButton@@AAEXXZ 10023320 f   vgui_CustomObjects.obj
 0001:000223c0       ?UpdateSubMenus@CommandButton@@QAEXH@Z 100233c0 f   vgui_CustomObjects.obj
 0001:000223e0       ?actionPerformed@CMenuHandler_StringCommandClassSelect@@UAEXPAVPanel@vgui@@@Z 100233e0 f   vgui_CustomObjects.obj
 0001:00022450       ?cursorEntered@CHandler_CommandButtonHighlight@@UAEXPAVPanel@vgui@@@Z 10023450 f i vgui_CustomObjects.obj
 0001:00022460       ?cursorEntered@CHandler_MenuButtonOver@@UAEXPAVPanel@vgui@@@Z 10023460 f   vgui_CustomObjects.obj
 0001:00022480       ?cursorEntered@CommandButton@@QAEXXZ 10023480 f   vgui_CustomObjects.obj
 0001:000224c0       ?cursorExited@CHandler_CommandButtonHighlight@@UAEXPAVPanel@vgui@@@Z 100234c0 f i vgui_CustomObjects.obj
 0001:000224d0       ?cursorExited@CommandButton@@QAEXXZ 100234d0 f   vgui_CustomObjects.obj
 0001:00022500       ?getBoundKey@CommandButton@@QAEDXZ 10023500 f   vgui_CustomObjects.obj
 0001:00022510       ?getImageTall@CImageLabel@@UAEHXZ 10023510 f   vgui_CustomObjects.obj
 0001:00022540       ?getImageWide@CImageLabel@@UAEHXZ 10023540 f   vgui_CustomObjects.obj
 0001:00022570       ?getParentMenu@CommandButton@@QAEPAVCCommandMenu@@XZ 10023570 f   vgui_CustomObjects.obj
 0001:00022580       ?paint@CTFScrollButton@@UAEXXZ 10023580 f   vgui_CustomObjects.obj
 0001:000225e0       ?paint@CommandButton@@UAEXXZ 100235e0 f   vgui_CustomObjects.obj
 0001:00022650       ?paintBackground@CCommandMenu@@UAEXXZ 10023650 f   vgui_CustomObjects.obj
 0001:00022690       ?paintBackground@CTFSlider@@UAEXXZ 10023690 f   vgui_CustomObjects.obj
 0001:00022780       ?paintBackground@CommandButton@@UAEXXZ 10023780 f   vgui_CustomObjects.obj
 0001:000227f0       ?setBoundKey@CommandButton@@QAEXD@Z 100237f0 f   vgui_CustomObjects.obj
 0001:00022810       ?setParentMenu@CommandButton@@QAEXPAVCCommandMenu@@@Z 10023810 f   vgui_CustomObjects.obj
 0001:00022820       ?setText@CommandButton@@UAEXPBD@Z 10023820 f   vgui_CustomObjects.obj
 0001:00022850       ??0CGrid@vgui@@QAE@XZ      10023850 f   vgui_grid.obj
 0001:00022870       ??0CGridEntry@CGrid@vgui@@QAE@XZ 10023870 f   vgui_grid.obj
 0001:00022880       ??1CGrid@vgui@@UAE@XZ      10023880 f   vgui_grid.obj
 0001:00022890       ??_GCGrid@vgui@@UAEPAXI@Z  10023890 f i vgui_grid.obj
 0001:00022890       ??_ECGrid@vgui@@UAEPAXI@Z  10023890 f i vgui_grid.obj
 0001:000228c0       ?AutoSetRowHeights@CGrid@vgui@@QAEXXZ 100238c0 f   vgui_grid.obj
 0001:000228f0       ?CalcColOffsets@CGrid@vgui@@IAEXH@Z 100238f0 f   vgui_grid.obj
 0001:00022950       ?CalcDrawHeight@CGrid@vgui@@QAEHXZ 10023950 f   vgui_grid.obj
 0001:00022980       ?CalcFitRowHeight@CGrid@vgui@@QAEHH@Z 10023980 f   vgui_grid.obj
 0001:000229f0       ?CalcRowOffsets@CGrid@vgui@@IAEXH@Z 100239f0 f   vgui_grid.obj
 0001:00022a50       ?Clear@CGrid@vgui@@IAEXXZ  10023a50 f   vgui_grid.obj
 0001:00022aa0       ?CopyColumnWidths@CGrid@vgui@@QAE_NPAV12@@Z 10023aa0 f   vgui_grid.obj
 0001:00022b10       ?GetEntryBox@CGrid@vgui@@QAE_NHHAAH000@Z 10023b10 f   vgui_grid.obj
 0001:00022b80       ?GetRowHeight@CGrid@vgui@@QAEHH@Z 10023b80 f   vgui_grid.obj
 0001:00022bb0       ?GridEntry@CGrid@vgui@@IAEPAVCGridEntry@12@HH@Z 10023bb0 f   vgui_grid.obj
 0001:00022c00       ?RepositionContents@CGrid@vgui@@QAEXXZ 10023c00 f   vgui_grid.obj
 0001:00022c80       ?SetColumnWidth@CGrid@vgui@@QAE_NHH@Z 10023c80 f   vgui_grid.obj
 0001:00022cd0       ?SetDimensions@CGrid@vgui@@QAE_NHH@Z 10023cd0 f   vgui_grid.obj
 0001:00022e10       ?SetEntry@CGrid@vgui@@QAE_NHHPAVPanel@2@@Z 10023e10 f   vgui_grid.obj
 0001:00022e60       ?SetRowHeight@CGrid@vgui@@QAE_NHH@Z 10023e60 f   vgui_grid.obj
 0001:00022eb0       ?SetRowUnderline@CGrid@vgui@@QAEXH_NHHHHH@Z 10023eb0 f   vgui_grid.obj
 0001:00022f00       ?SetSpacing@CGrid@vgui@@QAEXHH@Z 10023f00 f   vgui_grid.obj
 0001:00022f50       ?Term@CGrid@vgui@@QAEXXZ   10023f50 f   vgui_grid.obj
 0001:00022fa0       ?getCellAtPoint@CGrid@vgui@@QAE_NHHAAH0@Z 10023fa0 f   vgui_grid.obj
 0001:00023030       ?paint@CGrid@vgui@@UAEXXZ  10024030 f   vgui_grid.obj
 0001:000230e0       ?paintBackground@CGrid@vgui@@UAEXXZ 100240e0 f   vgui_grid.obj
 0001:000230f0       ??0BorderLayout@vgui@@QAE@ABV01@@Z 100240f0 f i vgui_int.obj
 0001:00023110       ??0SurfaceBase@vgui@@QAE@ABV01@@Z 10024110 f i vgui_int.obj
 0001:00023150       ??4SurfaceBase@vgui@@QAEAAV01@ABV01@@Z 10024150 f i vgui_int.obj
 0001:00023190       ?VGui_GetPanel@@YAPAXXZ    10024190 f   vgui_int.obj
 0001:000231a0       _VGui_Startup              100241a0 f   vgui_int.obj
 0001:00023250       _VGui_ViewportPaintBackground 10024250 f   vgui_int.obj
 0001:00023260       ??0CListBox@vgui@@QAE@XZ   10024260 f   vgui_listbox.obj
 0001:00023380       ??1CListBox@vgui@@QAE@XZ   10024380 f   vgui_listbox.obj
 0001:00023390       ?AddItem@CListBox@vgui@@QAEXPAVPanel@2@@Z 10024390 f   vgui_listbox.obj
 0001:00023430       ?GetNumItems@CListBox@vgui@@QAEHXZ 10024430 f   vgui_listbox.obj
 0001:00023450       ?GetScrollMax@CListBox@vgui@@QAEHXZ 10024450 f   vgui_listbox.obj
 0001:00023470       ?InternalLayout@CListBox@vgui@@IAEXXZ 10024470 f   vgui_listbox.obj
 0001:00023590       ?SetScrollRange@CListBox@vgui@@QAEXH@Z 10024590 f   vgui_listbox.obj
 0001:000235c0       ?Term@CListBox@vgui@@QAEXXZ 100245c0 f   vgui_listbox.obj
 0001:00023620       ?intChanged@ListBoxSignal@CListBox@vgui@@UAEXHPAVPanel@3@@Z 10024620 f i vgui_listbox.obj
 0001:00023640       ?setPixelScroll@CListBox@vgui@@UAEXH@Z 10024640 f   vgui_listbox.obj
 0001:00023670       ?setPos@CListBox@vgui@@UAEXHH@Z 10024670 f   vgui_listbox.obj
 0001:00023690       ?setSize@CListBox@vgui@@UAEXHH@Z 10024690 f   vgui_listbox.obj
 0001:000236b0       ?close@MemoryInputStream@@UAEXAA_N@Z 100246b0 f i vgui_loadtga.obj
 0001:000236d0       ?getAvailable@MemoryInputStream@@UAEHAA_N@Z 100246d0 f i vgui_loadtga.obj
 0001:000236e0       ?readUChar@MemoryInputStream@@UAEEAA_N@Z 100246e0 f i vgui_loadtga.obj
 0001:00023720       ?readUChar@MemoryInputStream@@UAEXPAEHAA_N@Z 10024720 f i vgui_loadtga.obj
 0001:00023750       ?seekEnd@MemoryInputStream@@UAEXAA_N@Z 10024750 f i vgui_loadtga.obj
 0001:00023770       ?seekRelative@MemoryInputStream@@UAEXHAA_N@Z 10024770 f i vgui_loadtga.obj
 0001:00023790       ?seekStart@MemoryInputStream@@UAEXAA_N@Z 10024790 f i vgui_loadtga.obj
 0001:000237b0       ?vgui_LoadTGA@@YAPAVBitmapTGA@vgui@@PBD@Z 100247b0 f   vgui_loadtga.obj
 0001:00023880       ?vgui_LoadTGANoInvertAlpha@@YAPAVBitmapTGA@vgui@@PBD@Z 10024880 f   vgui_loadtga.obj
 0001:00023950       ??0CMessageWindowPanel@@QAE@PBD0HHHHHH@Z 10024950 f   vgui_MOTDWindow.obj
 0001:00024030       ?CMessageWindowPanel_Create@@YAPAVCMenuPanel@@PBD0HHHHHH@Z 10025030 f   vgui_MOTDWindow.obj
 0001:000240b0       ??0CScheme@CSchemeManager@@QAE@XZ 100250b0 f   vgui_SchemeManager.obj
 0001:000240e0       ??0CSchemeManager@@QAE@HH@Z 100250e0 f   vgui_SchemeManager.obj
 0001:000248d0       ??1CScheme@CSchemeManager@@QAE@XZ 100258d0 f   vgui_SchemeManager.obj
 0001:000248e0       ??1CSchemeManager@@UAE@XZ  100258e0 f   vgui_SchemeManager.obj
 0001:00024920       ??_ECSchemeManager@@UAEPAXI@Z 10025920 f i vgui_SchemeManager.obj
 0001:00024920       ??_GCSchemeManager@@UAEPAXI@Z 10025920 f i vgui_SchemeManager.obj
 0001:00024a70       ?Scheme_Init@@YAXXZ        10025a70 f   vgui_SchemeManager.obj
 0001:00024a90       ?getBgArmedColor@CSchemeManager@@QAEXHAAH000@Z 10025a90 f   vgui_SchemeManager.obj
 0001:00024ad0       ?getBgColor@CSchemeManager@@QAEXHAAH000@Z 10025ad0 f   vgui_SchemeManager.obj
 0001:00024b10       ?getBorderColor@CSchemeManager@@QAEXHAAH000@Z 10025b10 f   vgui_SchemeManager.obj
 0001:00024b50       ?getFgArmedColor@CSchemeManager@@QAEXHAAH000@Z 10025b50 f   vgui_SchemeManager.obj
 0001:00024b90       ?getFgColor@CSchemeManager@@QAEXHAAH000@Z 10025b90 f   vgui_SchemeManager.obj
 0001:00024bd0       ?getFont@CSchemeManager@@QAEPAVFont@vgui@@H@Z 10025bd0 f   vgui_SchemeManager.obj
 0001:00024bf0       ?getSafeScheme@CSchemeManager@@AAEPAVCScheme@1@H@Z 10025bf0 f   vgui_SchemeManager.obj
 0001:00024c10       ?getSchemeHandle@CSchemeManager@@QAEHPBD@Z 10025c10 f   vgui_SchemeManager.obj
 0001:00024c60       ??0CLabelHeader@@QAE@XZ    10025c60 f i vgui_ScorePanel.obj
 0001:00024d40       ??0CTextImage2@@QAE@XZ     10025d40 f i vgui_ScorePanel.obj
 0001:00024e00       ??0ScorePanel@@QAE@HHHH@Z  10025e00 f   vgui_ScorePanel.obj
 0001:00025ce0       ??1CLabelHeader@@QAE@XZ    10026ce0 f i vgui_ScorePanel.obj
 0001:00025d20       ?DeathMsg@ScorePanel@@QAEXHH@Z 10026d20 f   vgui_ScorePanel.obj
 0001:00025d70       ?FillGrid@ScorePanel@@QAEXXZ 10026d70 f   vgui_ScorePanel.obj
 0001:000266f0       ?HACK_GetPlayerUniqueID@@YA_NHQAD@Z 100276f0 f   vgui_ScorePanel.obj
 0001:00026710       ?Initialize@ScorePanel@@QAEXXZ 10027710 f   vgui_ScorePanel.obj
 0001:00026760       ?MouseOverCell@ScorePanel@@QAEXHH@Z 10027760 f   vgui_ScorePanel.obj
 0001:000267f0       ?Open@ScorePanel@@QAEXXZ   100277f0 f   vgui_ScorePanel.obj
 0001:00026820       ?RebuildTeams@ScorePanel@@QAEXXZ 10027820 f   vgui_ScorePanel.obj
 0001:000269a0       ?SortPlayers@ScorePanel@@QAEXHPAD@Z 100279a0 f   vgui_ScorePanel.obj
 0001:00026ad0       ?SortTeams@ScorePanel@@QAEXXZ 10027ad0 f   vgui_ScorePanel.obj
 0001:00026d00       ?Update@ScorePanel@@QAEXXZ 10027d00 f   vgui_ScorePanel.obj
 0001:00026e10       ?actionPerformed@CMenuHandler_StringCommandWatch@@UAEXPAVPanel@vgui@@@Z 10027e10 f i vgui_ScorePanel.obj
 0001:00026f40       ?calcAlignment@CLabelHeader@@QAEXHHAAH0@Z 10027f40 f   vgui_ScorePanel.obj
 0001:00027030       ?cursorMoved@ScorePanel@@UAEXHHPAVPanel@vgui@@@Z 10028030 f   vgui_ScorePanel.obj
 0001:000270b0       ?doPaint@CTextImage2@@UAEXPAVPanel@vgui@@@Z 100280b0 f i vgui_ScorePanel.obj
 0001:000270d0       ?getSize@CTextImage2@@UAEXAAH0@Z 100280d0 f i vgui_ScorePanel.obj
 0001:00027130       ?getTextSize@CLabelHeader@@UAEXAAH0@Z 10028130 f i vgui_ScorePanel.obj
 0001:00027140       ?internalMousePressed@HitTestPanel@ScorePanel@@UAEXW4MouseCode@vgui@@@Z 10028140 f   vgui_ScorePanel.obj
 0001:00027180       ?mousePressed@ScorePanel@@UAEXW4MouseCode@vgui@@PAVPanel@3@@Z 10028180 f   vgui_ScorePanel.obj
 0001:00027340       ?paint@CLabelHeader@@UAEXXZ 10028340 f   vgui_ScorePanel.obj
 0001:000274f0       ?paintBackground@CLabelHeader@@UAEXXZ 100284f0 f   vgui_ScorePanel.obj
 0001:00027580       ?setColor@CTextImage2@@UAEXVColor@vgui@@@Z 10028580 f i vgui_ScorePanel.obj
 0001:000275b0       ?setFgColor@CLabelHeader@@UAEXHHHH@Z 100285b0 f i vgui_ScorePanel.obj
 0001:00027650       ?setFgColor@CLabelHeader@@UAEXW4SchemeColor@Scheme@vgui@@@Z 10028650 f i vgui_ScorePanel.obj
 0001:000276a0       ?setFont@CLabelHeader@@UAEXPAVFont@vgui@@@Z 100286a0 f i vgui_ScorePanel.obj
 0001:000276c0       ?setPos@CTextImage2@@UAEXHH@Z 100286c0 f i vgui_ScorePanel.obj
 0001:00027740       ?setText@CLabelHeader@@UAEXHPBD@Z 10028740 f i vgui_ScorePanel.obj
 0001:000277f0       ?setText@CLabelHeader@@UAEXPBD@Z 100287f0 f i vgui_ScorePanel.obj
 0001:00027890       ??0CSBLabel@@QAE@PAD0@Z    10028890 f i vgui_ServerBrowser.obj
 0001:00027910       ??0ServerBrowser@@QAE@HHHH@Z 10028910 f   vgui_ServerBrowser.obj
 0001:00028040       ?DoConnect@ServerBrowserTablePanel@?A0xa8871522@@QAEXXZ 10029040 f i vgui_ServerBrowser.obj
 0001:000280b0       ?actionPerformed@CancelHandler@?A0xa8871522@@UAEXPAVPanel@vgui@@@Z 100290b0 f i vgui_ServerBrowser.obj
 0001:000280c0       ?actionPerformed@ConnectHandler@?A0xa8871522@@UAEXPAVPanel@vgui@@@Z 100290c0 f i vgui_ServerBrowser.obj
 0001:00028140       ?actionPerformed@RefreshHandler@?A0xa8871522@@UAEXPAVPanel@vgui@@@Z 10029140 f i vgui_ServerBrowser.obj
 0001:00028150       ?actionPerformed@StopHandler@?A0xa8871522@@UAEXPAVPanel@vgui@@@Z 10029150 f i vgui_ServerBrowser.obj
 0001:00028160       ?getCellRenderer@ServerBrowserTablePanel@?A0xa8871522@@UAEPAVPanel@vgui@@HH_N00@Z 10029160 f i vgui_ServerBrowser.obj
 0001:00028340       ?getCellTall@ServerBrowserTablePanel@?A0xa8871522@@UAEHH@Z 10029340 f i vgui_ServerBrowser.obj
 0001:00028370       ?getRowCount@ServerBrowserTablePanel@?A0xa8871522@@UAEHXZ 10029370 f i vgui_ServerBrowser.obj
 0001:000283e0       ?mouseDoublePressed@CBrowser_InputSignal@?A0xa8871522@@UAEXW4MouseCode@vgui@@PAVPanel@4@@Z 100293e0 f   vgui_ServerBrowser.obj
 0001:00028460       ?mousePressed@LabelSortInputHandler@@UAEXW4MouseCode@vgui@@PAVPanel@3@@Z 10029460 f i vgui_ServerBrowser.obj
 0001:00028460       ?mouseDoublePressed@LabelSortInputHandler@@UAEXW4MouseCode@vgui@@PAVPanel@3@@Z 10029460 f i vgui_ServerBrowser.obj
 0001:00028470       ?mousePressed@CBrowser_InputSignal@?A0xa8871522@@UAEXW4MouseCode@vgui@@PAVPanel@4@@Z 10029470 f   vgui_ServerBrowser.obj
 0001:000284f0       ?setSize@ServerBrowser@@UAEXHH@Z 100294f0 f   vgui_ServerBrowser.obj
 0001:00028680       ??0SpectatorPanel@@QAE@HHHH@Z 10029680 f   vgui_SpectatorPanel.obj
 0001:000286b0       ??1SpectatorPanel@@UAE@XZ  100296b0 f   vgui_SpectatorPanel.obj
 0001:000286c0       ??_ESpectatorPanel@@UAEPAXI@Z 100296c0 f i vgui_SpectatorPanel.obj
 0001:000286c0       ??_GSpectatorPanel@@UAEPAXI@Z 100296c0 f i vgui_SpectatorPanel.obj
 0001:000286f0       ?ActionSignal@SpectatorPanel@@QAEXH@Z 100296f0 f   vgui_SpectatorPanel.obj
 0001:000287b0       ?EnableInsetView@SpectatorPanel@@QAEX_N@Z 100297b0 f   vgui_SpectatorPanel.obj
 0001:00028a10       ?GetSpectatorLabel@@YAPBDH@Z 10029a10 f   vgui_SpectatorPanel.obj
 0001:00028a70       ?Initialize@SpectatorPanel@@QAEXXZ 10029a70 f   vgui_SpectatorPanel.obj
 0001:00029dc0       ?ShowMenu@SpectatorPanel@@QAEX_N@Z 1002adc0 f   vgui_SpectatorPanel.obj
 0001:00029fa0       ?Update@SpectatorPanel@@QAEXXZ 1002afa0 f   vgui_SpectatorPanel.obj
 0001:0002a370       ?actionPerformed@CSpectatorHandler_Command@@UAEXPAVPanel@vgui@@@Z 1002b370 f i vgui_SpectatorPanel.obj
 0001:0002a380       ?paint@ColorButton@@UAEXXZ 1002b380 f i vgui_SpectatorPanel.obj
 0001:0002a400       ?paintBackground@ColorButton@@UAEXXZ 1002b400 f i vgui_SpectatorPanel.obj
 0001:0002a490       ??0BuildButton@@QAE@HHPBDHHHH@Z 1002b490 f i vgui_TeamFortressViewport.obj
 0001:0002a4d0       ??0BuildGroup@vgui@@QAE@ABV01@@Z 1002b4d0 f i vgui_TeamFortressViewport.obj
 0001:0002a570       ??0CMenuHandler_StringCommand@@QAE@PAD@Z 1002b570 f i vgui_TeamFortressViewport.obj
 0001:0002a5b0       ??0DetpackButton@@QAE@HPBDHHHH@Z 1002b5b0 f i vgui_TeamFortressViewport.obj
 0001:0002a5f0       ??0DisguiseButton@@QAE@HPBDHHHH@Z 1002b5f0 f i vgui_TeamFortressViewport.obj
 0001:0002a630       ??0FeignButton@@QAE@HPBDHHHH@Z 1002b630 f i vgui_TeamFortressViewport.obj
 0001:0002a670       ??0MapButton@@QAE@PBD0HHHH@Z 1002b670 f i vgui_TeamFortressViewport.obj
 0001:0002a6b0       ??0MenuSeparator@vgui@@QAE@ABV01@@Z 1002b6b0 f i vgui_TeamFortressViewport.obj
 0001:0002a6d0       ??0SpectButton@@QAE@HPBDHHHH@Z 1002b6d0 f i vgui_TeamFortressViewport.obj
 0001:0002a710       ??0SpectToggleButton@@QAE@PBD0HHHH_N@Z 1002b710 f i vgui_TeamFortressViewport.obj
 0001:0002a810       ??0Surface@vgui@@QAE@ABV01@@Z 1002b810 f i vgui_TeamFortressViewport.obj
 0001:0002a880       ??0TeamFortressViewport@@QAE@HHHH@Z 1002b880 f   vgui_TeamFortressViewport.obj
 0001:0002ace0       ??0TeamOnlyCommandButton@@QAE@HPBDHHHH_N@Z 1002bce0 f i vgui_TeamFortressViewport.obj
 0001:0002ad20       ??0ToggleCommandButton@@QAE@PBD0HHHH_N@Z 1002bd20 f i vgui_TeamFortressViewport.obj
 0001:0002aeb0       ??1Surface@vgui@@QAE@XZ    1002beb0 f i vgui_TeamFortressViewport.obj
 0001:0002aec0       ??2TeamFortressViewport@@SAPAXI@Z 1002bec0 f   vgui_TeamFortressViewport.obj
 0001:0002aef0       ??4BuildGroup@vgui@@QAEAAV01@ABV01@@Z 1002bef0 f i vgui_TeamFortressViewport.obj
 0001:0002af90       ??4MenuSeparator@vgui@@QAEAAV01@ABV01@@Z 1002bf90 f i vgui_TeamFortressViewport.obj
 0001:0002afb0       ??4Surface@vgui@@QAEAAV01@ABV01@@Z 1002bfb0 f i vgui_TeamFortressViewport.obj
 0001:0002b010       ?AddButton@CCommandMenu@@QAEXPAVCommandButton@@@Z 1002c010 f   vgui_TeamFortressViewport.obj
 0001:0002b080       ?AllowedToPrintText@TeamFortressViewport@@QAE_NXZ 1002c080 f   vgui_TeamFortressViewport.obj
 0001:0002b0c0       ?ClearButtonsOfArmedState@CCommandMenu@@QAEXXZ 1002c0c0 f   vgui_TeamFortressViewport.obj
 0001:0002b110       ?CreateClassMenu@TeamFortressViewport@@AAEXXZ 1002c110 f   vgui_TeamFortressViewport.obj
 0001:0002b1b0       ?CreateCommandMenu@TeamFortressViewport@@QAEHPADHH_NMMH@Z 1002c1b0 f   vgui_TeamFortressViewport.obj
 0001:0002bc50       ?CreateCustomButton@TeamFortressViewport@@QAEPAVCommandButton@@PAD0H@Z 1002cc50 f   vgui_TeamFortressViewport.obj
 0001:0002de30       ?CreateDisguiseSubmenu@TeamFortressViewport@@QAEPAVCCommandMenu@@PAVCommandButton@@PAV2@PBDHH@Z 1002ee30 f   vgui_TeamFortressViewport.obj
 0001:0002dfe0       ?CreateScoreBoard@TeamFortressViewport@@QAEXXZ 1002efe0 f   vgui_TeamFortressViewport.obj
 0001:0002e0f0       ?CreateServerBrowser@TeamFortressViewport@@QAEXXZ 1002f0f0 f   vgui_TeamFortressViewport.obj
 0001:0002e180       ?CreateSpectatorMenu@TeamFortressViewport@@AAEXXZ 1002f180 f   vgui_TeamFortressViewport.obj
 0001:0002e220       ?CreateSubMenu@TeamFortressViewport@@QAEPAVCCommandMenu@@PAVCommandButton@@PAV2@HH@Z 1002f220 f   vgui_TeamFortressViewport.obj
 0001:0002e510       ?CreateTeamMenu@TeamFortressViewport@@AAEXXZ 1002f510 f   vgui_TeamFortressViewport.obj
 0001:0002e5b0       ?CreateTextWindow@TeamFortressViewport@@QAEPAVCMenuPanel@@H@Z 1002f5b0 f   vgui_TeamFortressViewport.obj
 0001:0002e9f0       ?DeathMsg@TeamFortressViewport@@QAEXHH@Z 1002f9f0 f   vgui_TeamFortressViewport.obj
 0001:0002ea00       ?FindButtonWithSubmenu@CCommandMenu@@QAEPAVCommandButton@@PAV1@@Z 1002fa00 f   vgui_TeamFortressViewport.obj
 0001:0002ea50       ?GetAllPlayersInfo@TeamFortressViewport@@QAEXXZ 1002fa50 f   vgui_TeamFortressViewport.obj
 0001:0002ea90       ?HideCommandMenu@TeamFortressViewport@@QAEXXZ 1002fa90 f   vgui_TeamFortressViewport.obj
 0001:0002eb00       ?HideScoreBoard@TeamFortressViewport@@QAEXXZ 1002fb00 f   vgui_TeamFortressViewport.obj
 0001:0002eb40       ?HideTopMenu@TeamFortressViewport@@QAEXXZ 1002fb40 f   vgui_TeamFortressViewport.obj
 0001:0002eb80       ?HideVGUIMenu@TeamFortressViewport@@QAEXXZ 1002fb80 f   vgui_TeamFortressViewport.obj
 0001:0002ebb0       ?Initialize@TeamFortressViewport@@QAEXXZ 1002fbb0 f   vgui_TeamFortressViewport.obj
 0001:0002ece0       ?InputPlayerSpecial@TeamFortressViewport@@QAEXXZ 1002fce0 f   vgui_TeamFortressViewport.obj
 0001:0002ed30       ?InputSignalHideCommandMenu@TeamFortressViewport@@QAEXXZ 1002fd30 f   vgui_TeamFortressViewport.obj
 0001:0002ed70       ?IsNotValid@BuildButton@@UAEHXZ 1002fd70 f i vgui_TeamFortressViewport.obj
 0001:0002edf0       ?IsNotValid@DetpackButton@@UAEHXZ 1002fdf0 f i vgui_TeamFortressViewport.obj
 0001:0002ee20       ?IsNotValid@DisguiseButton@@UAEHXZ 1002fe20 f i vgui_TeamFortressViewport.obj
 0001:0002ee60       ?IsNotValid@FeignButton@@UAEHXZ 1002fe60 f i vgui_TeamFortressViewport.obj
 0001:0002ee90       ?IsNotValid@MapButton@@UAEHXZ 1002fe90 f i vgui_TeamFortressViewport.obj
 0001:0002eef0       ?IsNotValid@SpectateButton@@UAEHXZ 1002fef0 f i vgui_TeamFortressViewport.obj
 0001:0002ef10       ?IsNotValid@TeamButton@@UAEHXZ 1002ff10 f i vgui_TeamFortressViewport.obj
 0001:0002ef40       ?IsNotValid@TeamOnlyCommandButton@@UAEHXZ 1002ff40 f i vgui_TeamFortressViewport.obj
 0001:0002ef60       ?IsScoreBoardVisible@TeamFortressViewport@@QAE_NXZ 1002ff60 f   vgui_TeamFortressViewport.obj
 0001:0002ef80       ?KeyInput@CCommandMenu@@QAE_NH@Z 1002ff80 f   vgui_TeamFortressViewport.obj
 0001:0002f010       ?KeyInput@TeamFortressViewport@@QAEHHHPBD@Z 10030010 f   vgui_TeamFortressViewport.obj
 0001:0002f1b0       ?MakeVisible@CCommandMenu@@QAEXPAV1@@Z 100301b0 f   vgui_TeamFortressViewport.obj
 0001:0002f1e0       ?MsgFunc_AllowSpec@TeamFortressViewport@@QAEHPBDHPAX@Z 100301e0 f   vgui_TeamFortressViewport.obj
 0001:0002f230       ?MsgFunc_BuildSt@TeamFortressViewport@@QAEHPBDHPAX@Z 10030230 f   vgui_TeamFortressViewport.obj
 0001:0002f270       ?MsgFunc_Detpack@TeamFortressViewport@@QAEHPBDHPAX@Z 10030270 f   vgui_TeamFortressViewport.obj
 0001:0002f2b0       ?MsgFunc_Feign@TeamFortressViewport@@QAEHPBDHPAX@Z 100302b0 f   vgui_TeamFortressViewport.obj
 0001:0002f2f0       ?MsgFunc_MOTD@TeamFortressViewport@@QAEHPBDHPAX@Z 100302f0 f   vgui_TeamFortressViewport.obj
 0001:0002f390       ?MsgFunc_RandomPC@TeamFortressViewport@@QAEHPBDHPAX@Z 10030390 f   vgui_TeamFortressViewport.obj
 0001:0002f3c0       ?MsgFunc_ScoreInfo@TeamFortressViewport@@QAEHPBDHPAX@Z 100303c0 f   vgui_TeamFortressViewport.obj
 0001:0002f460       ?MsgFunc_ServerName@TeamFortressViewport@@QAEHPBDHPAX@Z 10030460 f   vgui_TeamFortressViewport.obj
 0001:0002f4a0       ?MsgFunc_Spectator@TeamFortressViewport@@QAEHPBDHPAX@Z 100304a0 f   vgui_TeamFortressViewport.obj
 0001:0002f4e0       ?MsgFunc_TeamInfo@TeamFortressViewport@@QAEHPBDHPAX@Z 100304e0 f   vgui_TeamFortressViewport.obj
 0001:0002f550       ?MsgFunc_TeamNames@TeamFortressViewport@@QAEHPBDHPAX@Z 10030550 f   vgui_TeamFortressViewport.obj
 0001:0002f5f0       ?MsgFunc_TeamScore@TeamFortressViewport@@QAEHPBDHPAX@Z 100305f0 f   vgui_TeamFortressViewport.obj
 0001:0002f690       ?MsgFunc_VGUIMenu@TeamFortressViewport@@QAEHPBDHPAX@Z 10030690 f   vgui_TeamFortressViewport.obj
 0001:0002f6f0       ?MsgFunc_ValClass@TeamFortressViewport@@QAEHPBDHPAX@Z 100306f0 f   vgui_TeamFortressViewport.obj
 0001:0002f740       ?RecalculatePositions@CCommandMenu@@QAEXH@Z 10030740 f   vgui_TeamFortressViewport.obj
 0001:0002f800       ?RecalculateVisibles@CCommandMenu@@QAE_NH_N@Z 10030800 f   vgui_TeamFortressViewport.obj
 0001:0002f9d0       ?SetCurrentCommandMenu@TeamFortressViewport@@QAEXPAVCCommandMenu@@@Z 100309d0 f   vgui_TeamFortressViewport.obj
 0001:0002fa20       ?SetCurrentMenu@TeamFortressViewport@@QAEXPAVCMenuPanel@@@Z 10030a20 f   vgui_TeamFortressViewport.obj
 0001:0002fa60       ?SetNextMenu@CMenuPanel@@QAEXPAV1@@Z 10030a60 f i vgui_TeamFortressViewport.obj
 0001:0002faa0       ?ShowClassMenu@TeamFortressViewport@@AAEPAVCMenuPanel@@XZ 10030aa0 f   vgui_TeamFortressViewport.obj
 0001:0002fad0       ?ShowCommandMenu@TeamFortressViewport@@QAEXH@Z 10030ad0 f   vgui_TeamFortressViewport.obj
 0001:0002fba0       ?ShowScoreBoard@TeamFortressViewport@@QAEXXZ 10030ba0 f   vgui_TeamFortressViewport.obj
 0001:0002fbd0       ?ShowTeamMenu@TeamFortressViewport@@AAEPAVCMenuPanel@@XZ 10030bd0 f   vgui_TeamFortressViewport.obj
 0001:0002fc00       ?ShowVGUIMenu@TeamFortressViewport@@QAEXH@Z 10030c00 f   vgui_TeamFortressViewport.obj
 0001:0002fd70       ?SlotInput@TeamFortressViewport@@QAE_NH@Z 10030d70 f   vgui_TeamFortressViewport.obj
 0001:0002fd90       ?ToggleServerBrowser@TeamFortressViewport@@QAEXXZ 10030d90 f   vgui_TeamFortressViewport.obj
 0001:0002fde0       ?UpdateCommandMenu@TeamFortressViewport@@QAEXH@Z 10030de0 f   vgui_TeamFortressViewport.obj
 0001:0002fe10       ?UpdateCursorState@TeamFortressViewport@@QAEXXZ 10030e10 f   vgui_TeamFortressViewport.obj
 0001:0002ff00       ?UpdateOnPlayerInfo@TeamFortressViewport@@QAEXXZ 10030f00 f   vgui_TeamFortressViewport.obj
 0001:0002ff40       ?UpdateSpectatorPanel@TeamFortressViewport@@QAEXXZ 10030f40 f   vgui_TeamFortressViewport.obj
 0001:000302f0       ?actionPerformed@CMenuHandler_ToggleCvar@@UAEXPAVPanel@vgui@@@Z 100312f0 f i vgui_TeamFortressViewport.obj
 0001:00030330       ?cursorEntered@CMenuHandler_PopupSubMenuInput@@UAEXPAVPanel@vgui@@@Z 10031330 f i vgui_TeamFortressViewport.obj
 0001:00030360       ?cursorEntered@SpectToggleButton@@UAEXPAVPanel@vgui@@@Z 10031360 f i vgui_TeamFortressViewport.obj
 0001:00030360       ?cursorEntered@ToggleCommandButton@@UAEXPAVPanel@vgui@@@Z 10031360 f i vgui_TeamFortressViewport.obj
 0001:00030370       ?cursorExited@ToggleCommandButton@@UAEXPAVPanel@vgui@@@Z 10031370 f i vgui_TeamFortressViewport.obj
 0001:00030370       ?cursorExited@SpectToggleButton@@UAEXPAVPanel@vgui@@@Z 10031370 f i vgui_TeamFortressViewport.obj
 0001:00030380       ?cursorMoved@CHandler_MenuButtonOver@@UAEXHHPAVPanel@vgui@@@Z 10031380 f i vgui_ClassMenu.obj
 0001:00030380       ?cursorMoved@LabelSortInputHandler@@UAEXHHPAVPanel@vgui@@@Z 10031380 f i vgui_ServerBrowser.obj
 0001:00030380       ?cursorMoved@CHandler_ButtonHighlight@@UAEXHHPAVPanel@vgui@@@Z 10031380 f i vgui_CustomObjects.obj
 0001:00030380       ?cursorMoved@ToggleCommandButton@@UAEXHHPAVPanel@vgui@@@Z 10031380 f i vgui_TeamFortressViewport.obj
 0001:00030380       ?cursorMoved@SpectToggleButton@@UAEXHHPAVPanel@vgui@@@Z 10031380 f i vgui_TeamFortressViewport.obj
 0001:00030380       ?cursorMoved@CDefaultInputSignal@vgui@@UAEXHHPAVPanel@2@@Z 10031380 f i vgui_checkbutton2.obj
 0001:00030380       ?SetSuitUpdate@CBasePlayer@@QAEXPADHH@Z 10031380 f i hl_baseentity.obj
 0001:00030380       ?cursorMoved@CBrowser_InputSignal@?A0xa8871522@@UAEXHHPAVPanel@vgui@@@Z 10031380 f i vgui_ServerBrowser.obj
 0001:00030380       ?cursorMoved@CViewPortInputHandler@@UAEXHHPAVPanel@vgui@@@Z 10031380 f i vgui_TeamFortressViewport.obj
 0001:00030380       ?cursorMoved@CMenuHandler_PopupSubMenuInput@@UAEXHHPAVPanel@vgui@@@Z 10031380 f i vgui_TeamFortressViewport.obj
 0001:00030380       ?MoveExecute@CBaseMonster@@UAEXPAVCBaseEntity@@ABVVector@@M@Z 10031380 f i hl_baseentity.obj
 0001:00030390       ?keyPressed@CViewPortInputHandler@@UAEXW4KeyCode@vgui@@PAVPanel@3@@Z 10031390 f i vgui_TeamFortressViewport.obj
 0001:00030390       ?mouseDoublePressed@CHandler_MenuButtonOver@@UAEXW4MouseCode@vgui@@PAVPanel@3@@Z 10031390 f i vgui_ClassMenu.obj
 0001:00030390       ?keyReleased@LabelSortInputHandler@@UAEXW4KeyCode@vgui@@PAVPanel@3@@Z 10031390 f i vgui_ServerBrowser.obj
 0001:00030390       ?keyReleased@FooDefaultSliderSignal@?A0x911bd135@@UAEXW4KeyCode@vgui@@PAVPanel@4@@Z 10031390 f i vgui_slider2.obj
 0001:00030390       ?keyReleased@ToggleCommandButton@@UAEXW4KeyCode@vgui@@PAVPanel@3@@Z 10031390 f i vgui_TeamFortressViewport.obj
 0001:00030390       ?Killed@CGrenade@@UAEXPAUentvars_s@@H@Z 10031390 f i hl_baseentity.obj
 0001:00030390       ?Killed@CBaseMonster@@UAEXPAUentvars_s@@H@Z 10031390 f i hl_baseentity.obj
 0001:00030390       ?mouseDoublePressed@CHandler_ButtonHighlight@@UAEXW4MouseCode@vgui@@PAVPanel@3@@Z 10031390 f i vgui_CustomObjects.obj
 0001:00030390       ?mouseReleased@CViewPortInputHandler@@UAEXW4MouseCode@vgui@@PAVPanel@3@@Z 10031390 f i vgui_TeamFortressViewport.obj
 0001:00030390       ?keyTyped@CMenuHandler_PopupSubMenuInput@@UAEXW4KeyCode@vgui@@PAVPanel@3@@Z 10031390 f i vgui_TeamFortressViewport.obj
 0001:00030390       ?keyPressed@ToggleCommandButton@@UAEXW4KeyCode@vgui@@PAVPanel@3@@Z 10031390 f i vgui_TeamFortressViewport.obj
 0001:00030390       ?mouseReleased@SpectToggleButton@@UAEXW4MouseCode@vgui@@PAVPanel@3@@Z 10031390 f i vgui_TeamFortressViewport.obj
 0001:00030390       ?mouseReleased@LabelSortInputHandler@@UAEXW4MouseCode@vgui@@PAVPanel@3@@Z 10031390 f i vgui_ServerBrowser.obj
 0001:00030390       ?AddPoints@CBasePlayer@@UAEXHH@Z 10031390 f i hl_baseentity.obj
 0001:00030390       ?mouseWheeled@ToggleCommandButton@@UAEXHPAVPanel@vgui@@@Z 10031390 f i vgui_TeamFortressViewport.obj
 0001:00030390       ?mouseWheeled@CMenuHandler_PopupSubMenuInput@@UAEXHPAVPanel@vgui@@@Z 10031390 f i vgui_TeamFortressViewport.obj
 0001:00030390       ?keyReleased@CViewPortInputHandler@@UAEXW4KeyCode@vgui@@PAVPanel@3@@Z 10031390 f i vgui_TeamFortressViewport.obj
 0001:00030390       ?keyReleased@CBrowser_InputSignal@?A0xa8871522@@UAEXW4KeyCode@vgui@@PAVPanel@4@@Z 10031390 f i vgui_ServerBrowser.obj
 0001:00030390       ?keyPressed@LabelSortInputHandler@@UAEXW4KeyCode@vgui@@PAVPanel@3@@Z 10031390 f i vgui_ServerBrowser.obj
 0001:00030390       ?keyReleased@CDefaultInputSignal@vgui@@UAEXW4KeyCode@2@PAVPanel@2@@Z 10031390 f i vgui_checkbutton2.obj
 0001:00030390       ?keyReleased@CMenuHandler_PopupSubMenuInput@@UAEXW4KeyCode@vgui@@PAVPanel@3@@Z 10031390 f i vgui_TeamFortressViewport.obj
 0001:00030390       ?mouseReleased@CHandler_MenuButtonOver@@UAEXW4MouseCode@vgui@@PAVPanel@3@@Z 10031390 f i vgui_ClassMenu.obj
 0001:00030390       ?keyPressed@FooDefaultSliderSignal@?A0x911bd135@@UAEXW4KeyCode@vgui@@PAVPanel@4@@Z 10031390 f i vgui_slider2.obj
 0001:00030390       ?mouseReleased@CBrowser_InputSignal@?A0xa8871522@@UAEXW4MouseCode@vgui@@PAVPanel@4@@Z 10031390 f i vgui_ServerBrowser.obj
 0001:00030390       ?mouseReleased@CHandler_ButtonHighlight@@UAEXW4MouseCode@vgui@@PAVPanel@3@@Z 10031390 f i vgui_CustomObjects.obj
 0001:00030390       ?mouseDoublePressed@ToggleCommandButton@@UAEXW4MouseCode@vgui@@PAVPanel@3@@Z 10031390 f i vgui_TeamFortressViewport.obj
 0001:00030390       ?keyPressed@SpectToggleButton@@UAEXW4KeyCode@vgui@@PAVPanel@3@@Z 10031390 f i vgui_TeamFortressViewport.obj
 0001:00030390       ?mouseWheeled@CDefaultInputSignal@vgui@@UAEXHPAVPanel@2@@Z 10031390 f i vgui_checkbutton2.obj
 0001:00030390       ?keyTyped@LabelSortInputHandler@@UAEXW4KeyCode@vgui@@PAVPanel@3@@Z 10031390 f i vgui_ServerBrowser.obj
 0001:00030390       ?keyReleased@CHandler_MenuButtonOver@@UAEXW4KeyCode@vgui@@PAVPanel@3@@Z 10031390 f i vgui_ClassMenu.obj
 0001:00030390       ?mousePressed@CHandler_ButtonHighlight@@UAEXW4MouseCode@vgui@@PAVPanel@3@@Z 10031390 f i vgui_CustomObjects.obj
 0001:00030390       ?mouseDoublePressed@SpectToggleButton@@UAEXW4MouseCode@vgui@@PAVPanel@3@@Z 10031390 f i vgui_TeamFortressViewport.obj
 0001:00030390       ?mouseReleased@ToggleCommandButton@@UAEXW4MouseCode@vgui@@PAVPanel@3@@Z 10031390 f i vgui_TeamFortressViewport.obj
 0001:00030390       ?keyTyped@CBrowser_InputSignal@?A0xa8871522@@UAEXW4KeyCode@vgui@@PAVPanel@4@@Z 10031390 f i vgui_ServerBrowser.obj
 0001:00030390       ?mouseDoublePressed@CDefaultInputSignal@vgui@@UAEXW4MouseCode@2@PAVPanel@2@@Z 10031390 f i vgui_checkbutton2.obj
 0001:00030390       ?keyTyped@CHandler_ButtonHighlight@@UAEXW4KeyCode@vgui@@PAVPanel@3@@Z 10031390 f i vgui_CustomObjects.obj
 0001:00030390       ?keyPressed@CBrowser_InputSignal@?A0xa8871522@@UAEXW4KeyCode@vgui@@PAVPanel@4@@Z 10031390 f i vgui_ServerBrowser.obj
 0001:00030390       ?mouseWheeled@CBrowser_InputSignal@?A0xa8871522@@UAEXHPAVPanel@vgui@@@Z 10031390 f i vgui_ServerBrowser.obj
 0001:00030390       ?mouseDoublePressed@CViewPortInputHandler@@UAEXW4MouseCode@vgui@@PAVPanel@3@@Z 10031390 f i vgui_TeamFortressViewport.obj
 0001:00030390       ?keyTyped@ToggleCommandButton@@UAEXW4KeyCode@vgui@@PAVPanel@3@@Z 10031390 f i vgui_TeamFortressViewport.obj
 0001:00030390       ?keyPressed@CMenuHandler_PopupSubMenuInput@@UAEXW4KeyCode@vgui@@PAVPanel@3@@Z 10031390 f i vgui_TeamFortressViewport.obj
 0001:00030390       ?AddPoints@CBaseEntity@@UAEXHH@Z 10031390 f i crossbow.obj
 0001:00030390       ?AddPointsToTeam@CBasePlayer@@UAEXHH@Z 10031390 f i hl_baseentity.obj
 0001:00030390       ?keyTyped@CDefaultInputSignal@vgui@@UAEXW4KeyCode@2@PAVPanel@2@@Z 10031390 f i vgui_checkbutton2.obj
 0001:00030390       ?keyTyped@CViewPortInputHandler@@UAEXW4KeyCode@vgui@@PAVPanel@3@@Z 10031390 f i vgui_TeamFortressViewport.obj
 0001:00030390       ?keyTyped@SpectToggleButton@@UAEXW4KeyCode@vgui@@PAVPanel@3@@Z 10031390 f i vgui_TeamFortressViewport.obj
 0001:00030390       ?mouseWheeled@CHandler_ButtonHighlight@@UAEXHPAVPanel@vgui@@@Z 10031390 f i vgui_CustomObjects.obj
 0001:00030390       ?mouseWheeled@CViewPortInputHandler@@UAEXHPAVPanel@vgui@@@Z 10031390 f i vgui_TeamFortressViewport.obj
 0001:00030390       ?mouseWheeled@FooDefaultSliderSignal@?A0x911bd135@@UAEXHPAVPanel@vgui@@@Z 10031390 f i vgui_slider2.obj
 0001:00030390       ?keyTyped@FooDefaultSliderSignal@?A0x911bd135@@UAEXW4KeyCode@vgui@@PAVPanel@4@@Z 10031390 f i vgui_slider2.obj
 0001:00030390       ?mouseDoublePressed@CMenuHandler_PopupSubMenuInput@@UAEXW4MouseCode@vgui@@PAVPanel@3@@Z 10031390 f i vgui_TeamFortressViewport.obj
 0001:00030390       ?AddPointsToTeam@CBaseEntity@@UAEXHH@Z 10031390 f i crossbow.obj
 0001:00030390       ?mousePressed@CDefaultInputSignal@vgui@@UAEXW4MouseCode@2@PAVPanel@2@@Z 10031390 f i vgui_checkbutton2.obj
 0001:00030390       ?keyPressed@CHandler_MenuButtonOver@@UAEXW4KeyCode@vgui@@PAVPanel@3@@Z 10031390 f i vgui_ClassMenu.obj
 0001:00030390       ?mousePressed@CHandler_MenuButtonOver@@UAEXW4MouseCode@vgui@@PAVPanel@3@@Z 10031390 f i vgui_ClassMenu.obj
 0001:00030390       ?keyPressed@CHandler_ButtonHighlight@@UAEXW4KeyCode@vgui@@PAVPanel@3@@Z 10031390 f i vgui_CustomObjects.obj
 0001:00030390       ?keyReleased@CHandler_ButtonHighlight@@UAEXW4KeyCode@vgui@@PAVPanel@3@@Z 10031390 f i vgui_CustomObjects.obj
 0001:00030390       ?mouseDoublePressed@FooDefaultSliderSignal@?A0x911bd135@@UAEXW4MouseCode@vgui@@PAVPanel@4@@Z 10031390 f i vgui_slider2.obj
 0001:00030390       ?mouseWheeled@LabelSortInputHandler@@UAEXHPAVPanel@vgui@@@Z 10031390 f i vgui_ServerBrowser.obj
 0001:00030390       ?mouseReleased@CMenuHandler_PopupSubMenuInput@@UAEXW4MouseCode@vgui@@PAVPanel@3@@Z 10031390 f i vgui_TeamFortressViewport.obj
 0001:00030390       ?mouseWheeled@CHandler_MenuButtonOver@@UAEXHPAVPanel@vgui@@@Z 10031390 f i vgui_ClassMenu.obj
 0001:00030390       ?keyPressed@CDefaultInputSignal@vgui@@UAEXW4KeyCode@2@PAVPanel@2@@Z 10031390 f i vgui_checkbutton2.obj
 0001:00030390       ?mouseReleased@CDefaultInputSignal@vgui@@UAEXW4MouseCode@2@PAVPanel@2@@Z 10031390 f i vgui_checkbutton2.obj
 0001:00030390       ?mouseWheeled@SpectToggleButton@@UAEXHPAVPanel@vgui@@@Z 10031390 f i vgui_TeamFortressViewport.obj
 0001:00030390       ?mousePressed@CMenuHandler_PopupSubMenuInput@@UAEXW4MouseCode@vgui@@PAVPanel@3@@Z 10031390 f i vgui_TeamFortressViewport.obj
 0001:00030390       ?keyTyped@CHandler_MenuButtonOver@@UAEXW4KeyCode@vgui@@PAVPanel@3@@Z 10031390 f i vgui_ClassMenu.obj
 0001:00030390       ?keyReleased@SpectToggleButton@@UAEXW4KeyCode@vgui@@PAVPanel@3@@Z 10031390 f i vgui_TeamFortressViewport.obj
 0001:000303a0       ?mousePressed@CViewPortInputHandler@@UAEXW4MouseCode@vgui@@PAVPanel@3@@Z 100313a0 f i vgui_TeamFortressViewport.obj
 0001:000303c0       ?mousePressed@ToggleCommandButton@@UAEXW4MouseCode@vgui@@PAVPanel@3@@Z 100313c0 f i vgui_TeamFortressViewport.obj
 0001:000303c0       ?mousePressed@SpectToggleButton@@UAEXW4MouseCode@vgui@@PAVPanel@3@@Z 100313c0 f i vgui_TeamFortressViewport.obj
 0001:000303e0       ?paint@SpectToggleButton@@UAEXXZ 100313e0 f i vgui_TeamFortressViewport.obj
 0001:00030460       ?paint@TeamOnlyCommandButton@@UAEXXZ 10031460 f i vgui_TeamFortressViewport.obj
 0001:00030460       ?paint@SpectButton@@UAEXXZ 10031460 f i vgui_TeamFortressViewport.obj
 0001:000304b0       ?paint@ToggleCommandButton@@UAEXXZ 100314b0 f i vgui_TeamFortressViewport.obj
 0001:00030520       ?paintBackground@TeamFortressViewport@@UAEXXZ 10031520 f   vgui_TeamFortressViewport.obj
 0001:00030680       ?paintBackground@SpectToggleButton@@UAEXXZ 10031680 f i vgui_TeamFortressViewport.obj
 0001:00030680       ?paintBackground@TeamOnlyCommandButton@@UAEXXZ 10031680 f i vgui_TeamFortressViewport.obj
 0001:00030680       ?paintBackground@SpectButton@@UAEXXZ 10031680 f i vgui_TeamFortressViewport.obj
 0001:000306d0       ??0CTeamMenuPanel@@QAE@HHHHHH@Z 100316d0 f   vgui_teammenu.obj
 0001:000313a0       ?Initialize@CTeamMenuPanel@@UAEXXZ 100323a0 f   vgui_teammenu.obj
 0001:000313d0       ?Open@CTeamMenuPanel@@UAEXXZ 100323d0 f   vgui_teammenu.obj
 0001:000313d0       ?Open@CClassMenuPanel@@UAEXXZ 100323d0 f   vgui_ClassMenu.obj
 0001:00031400       ?Reset@CTeamMenuPanel@@UAEXXZ 10032400 f i vgui_teammenu.obj
 0001:00031430       ?SetActiveInfo@CTeamMenuPanel@@UAEXH@Z 10032430 f   vgui_teammenu.obj
 0001:000314d0       ?SlotInput@CTeamMenuPanel@@UAE_NH@Z 100324d0 f   vgui_teammenu.obj
 0001:00031560       ?Update@CTeamMenuPanel@@UAEXXZ 10032560 f   vgui_teammenu.obj
 0001:00031b80       ?paintBackground@CTeamMenuPanel@@UAEXXZ 10032b80 f   vgui_teammenu.obj
 0001:00031bd0       ?MaxAngleBetweenAngles@@YAMPAM0@Z 10032bd0 f   view.obj
 0001:00031c70       ?V_AddIdle@@YAXPAUref_params_s@@@Z 10032c70 f   view.obj
 0001:00031d20       ?V_CalcBob@@YAMPAUref_params_s@@@Z 10032d20 f   view.obj
 0001:00031ec0       ?V_CalcGunAngle@@YAXPAUref_params_s@@@Z 10032ec0 f   view.obj
 0001:00032040       ?V_CalcIntermissionRefdef@@YAXPAUref_params_s@@@Z 10033040 f   view.obj
 0001:000321c0       ?V_CalcNormalRefdef@@YAXPAUref_params_s@@@Z 100331c0 f   view.obj
 0001:00032da0       ?V_CalcRoll@@YAMVVector@@0MM@Z 10033da0 f   view.obj
 0001:00032e50       ?V_CalcSpectatorRefdef@@YAXPAUref_params_s@@@Z 10033e50 f   view.obj
 0001:00033510       ?V_CalcViewRoll@@YAXPAUref_params_s@@@Z 10034510 f   view.obj
 0001:000335c0       ?V_DriftPitch@@YAXPAUref_params_s@@@Z 100345c0 f   view.obj
 0001:00033710       ?V_DropPunchAngle@@YAXMPAM@Z 10034710 f   view.obj
 0001:00033780       ?V_FindViewModelByWeaponModel@@YAHH@Z 10034780 f   view.obj
 0001:000337f0       ?V_GetChaseOrigin@@YAXPAM0M0@Z 100347f0 f   view.obj
 0001:00033940       ?V_GetChasePos@@YAXHPAM00@Z 10034940 f   view.obj
 0001:00033ab0       ?V_GetDirectedChasePosition@@YAXPAUcl_entity_s@@0PAM1@Z 10034ab0 f   view.obj
 0001:00033c20       ?V_GetDoubleTargetsCam@@YAXPAUcl_entity_s@@0PAM1@Z 10034c20 f   view.obj
 0001:00033ef0       ?V_GetInEyePos@@YAXHPAM0@Z 10034ef0 f   view.obj
 0001:00034010       ?V_GetMapChasePosition@@YAXHPAM00@Z 10035010 f   view.obj
 0001:00034150       ?V_GetMapFreePosition@@YAXPAM00@Z 10035150 f   view.obj
 0001:00034220       ?V_GetSingleTargetCam@@YAXPAUcl_entity_s@@PAM1@Z 10035220 f   view.obj
 0001:000343d0       ?V_Init@@YAXXZ             100353d0 f   view.obj
 0001:000344d0       ?V_PunchAxis@@YAXHM@Z      100354d0 f   view.obj
 0001:000344f0       ?V_ResetChaseCam@@YAXXZ    100354f0 f   view.obj
 0001:00034500       ?V_SmoothInterpolateAngles@@YAXPAM00M@Z 10035500 f   view.obj
 0001:00034600       ?V_StartPitchDrift@@YAXXZ  10035600 f   view.obj
 0001:00034670       ?V_StopPitchDrift@@YAXXZ   10035670 f   view.obj
 0001:000346a0       _V_CalcRefdef              100356a0 f   view.obj
 0001:000346e0       ??$GetClassPtr@VCCrossbow@@@@YAPAVCCrossbow@@PAV0@@Z 100356e0 f i crossbow.obj
 0001:00034740       ??$GetClassPtr@VCCrossbowAmmo@@@@YAPAVCCrossbowAmmo@@PAV0@@Z 10035740 f i crossbow.obj
 0001:00034790       ?AddAmmo@CCrossbowAmmo@@EAEHPAVCBaseEntity@@@Z 10035790 f i crossbow.obj
 0001:000347f0       ?AddWeapon@CBasePlayerWeapon@@UAEHXZ 100357f0 f i crossbow.obj
 0001:00034800       ?Blocked@CBaseEntity@@UAEXPAV1@@Z 10035800 f i crossbow.obj
 0001:00034820       ?BodyTarget@CBaseEntity@@UAE?AVVector@@ABV2@@Z 10035820 f i crossbow.obj
 0001:00034840       ?CallMonsterThink@CBaseMonster@@QAEXXZ 10035840 f i crossbow.obj
 0001:00034850       ?Center@CBaseEntity@@UAE?AVVector@@XZ 10035850 f i crossbow.obj
 0001:000348b0       ?Deploy@CCrossbow@@UAEHXZ  100358b0 f   crossbow.obj
 0001:000348f0       ?EarPosition@CBaseEntity@@UAE?AVVector@@XZ 100358f0 f i crossbow.obj
 0001:000348f0       ?EyePosition@CBaseEntity@@UAE?AVVector@@XZ 100358f0 f i crossbow.obj
 0001:00034940       ?FireBolt@CCrossbow@@QAEXXZ 10035940 f   crossbow.obj
 0001:00034af0       ?FireSniperBolt@CCrossbow@@QAEXXZ 10035af0 f   crossbow.obj
 0001:00034cd0       ?GetItemInfo@CCrossbow@@UAEHPAUItemInfo@@@Z 10035cd0 f   crossbow.obj
 0001:00034d40       ?GiveAmmo@CBaseEntity@@UAEHHPADH@Z 10035d40 f i crossbow.obj
 0001:00034d50       ?HasTarget@CBaseEntity@@UAEHH@Z 10035d50 f i crossbow.obj
 0001:00034db0       ?Holster@CCrossbow@@UAEXH@Z 10035db0 f   crossbow.obj
 0001:00034e30       ?Illumination@CBaseEntity@@UAEHXZ 10035e30 f i crossbow.obj
 0001:00034e50       ?IsAlive@CBasePlayer@@UAEHXZ 10035e50 f i hl_weapons.obj
 0001:00034e50       ?IsAlive@CBaseEntity@@UAEHXZ 10035e50 f i crossbow.obj
 0001:00034e80       ?IsBSPModel@CBaseEntity@@UAEHXZ 10035e80 f i crossbow.obj
 0001:00034ea0       ?IsMoving@CBaseEntity@@UAEHXZ 10035ea0 f i crossbow.obj
 0001:00034ef0       ?Restore@CBasePlayerWeapon@@UAEHAAVCRestore@@@Z 10035ef0 f i hl_baseentity.obj
 0001:00034ef0       ?Restore@CBaseEntity@@UAEHAAVCRestore@@@Z 10035ef0 f i hl_baseentity.obj
 0001:00034ef0       ?AddToPlayer@CBasePlayerItem@@UAEHPAVCBasePlayer@@@Z 10035ef0 f i hl_baseentity.obj
 0001:00034ef0       ?Save@CBaseMonster@@UAEHAAVCSave@@@Z 10035ef0 f i hl_baseentity.obj
 0001:00034ef0       ?Save@CBaseEntity@@UAEHAAVCSave@@@Z 10035ef0 f i hl_baseentity.obj
 0001:00034ef0       ?Restore@CBaseMonster@@UAEHAAVCRestore@@@Z 10035ef0 f i hl_baseentity.obj
 0001:00034ef0       ?Save@CBasePlayerWeapon@@UAEHAAVCSave@@@Z 10035ef0 f i hl_baseentity.obj
 0001:00034ef0       ?IsTriggered@CBaseEntity@@UAEHPAV1@@Z 10035ef0 f i crossbow.obj
 0001:00034ef0       ?FValidateCover@CBaseMonster@@UAEHABVVector@@@Z 10035ef0 f i hl_weapons.obj
 0001:00034f00       ?KeyValue@CBaseEntity@@UAEXPAUKeyValueData_s@@@Z 10035f00 f i crossbow.obj
 0001:00034f20       ?Precache@CCrossbow@@UAEXXZ 10035f20 f   crossbow.obj
 0001:00034fa0       ?Precache@CCrossbowAmmo@@EAEXXZ 10035fa0 f i crossbow.obj
 0001:00034fc0       ?PrimaryAttack@CCrossbow@@UAEXXZ 10035fc0 f   crossbow.obj
 0001:00034ff0       ?ReflectGauss@CBaseEntity@@UAEHXZ 10035ff0 f i crossbow.obj
 0001:00035030       ?Reload@CCrossbow@@UAEXXZ  10036030 f   crossbow.obj
 0001:000350e0       ?SUB_CallUseToggle@CBaseEntity@@QAEXXZ 100360e0 f i crossbow.obj
 0001:00035100       ?SecondaryAttack@CCrossbow@@UAEXXZ 10036100 f   crossbow.obj
 0001:000351d0       ?Spawn@CCrossbow@@UAEXXZ   100361d0 f   crossbow.obj
 0001:00035210       ?Spawn@CCrossbowAmmo@@EAEXXZ 10036210 f i crossbow.obj
 0001:00035240       ?Think@CBaseEntity@@UAEXXZ 10036240 f i crossbow.obj
 0001:00035250       ?Touch@CBaseEntity@@UAEXPAV1@@Z 10036250 f i crossbow.obj
 0001:00035270       ?Use@CBaseEntity@@UAEXPAV1@0W4USE_TYPE@@M@Z 10036270 f i crossbow.obj
 0001:000352a0       ?WeaponIdle@CCrossbow@@UAEXXZ 100362a0 f   crossbow.obj
 0001:000353f0       _ammo_crossbow             100363f0 f   crossbow.obj
 0001:00035400       _weapon_crossbow           10036400 f   crossbow.obj
 0001:00035410       ??$GetClassPtr@VCCrowbar@@@@YAPAVCCrowbar@@PAV0@@Z 10036410 f i crowbar.obj
 0001:00035470       ?Deploy@CCrowbar@@UAEHXZ   10036470 f   crowbar.obj
 0001:00035490       ?GetItemInfo@CCrowbar@@UAEHPAUItemInfo@@@Z 10036490 f   crowbar.obj
 0001:000354f0       ?Holster@CCrowbar@@UAEXH@Z 100364f0 f   crowbar.obj
 0001:00035540       ?Precache@CCrowbar@@UAEXXZ 10036540 f   crowbar.obj
 0001:000355c0       ?PrimaryAttack@CCrowbar@@UAEXXZ 100365c0 f   crowbar.obj
 0001:00035600       ?Smack@CCrowbar@@QAEXXZ    10036600 f   crowbar.obj
 0001:00035620       ?Spawn@CCrowbar@@UAEXXZ    10036620 f   crowbar.obj
 0001:00035660       ?Swing@CCrowbar@@QAEHH@Z   10036660 f   crowbar.obj
 0001:00035850       ?SwingAgain@CCrowbar@@QAEXXZ 10036850 f   crowbar.obj
 0001:00035860       _weapon_crowbar            10036860 f   crowbar.obj
 0001:00035870       ??$GetClassPtr@VCEgon@@@@YAPAVCEgon@@PAV0@@Z 10036870 f i egon.obj
 0001:000358d0       ??$GetClassPtr@VCEgonAmmo@@@@YAPAVCEgonAmmo@@PAV0@@Z 100368d0 f i egon.obj
 0001:00035920       ?AddAmmo@CEgonAmmo@@EAEHPAVCBaseEntity@@@Z 10036920 f i egon.obj
 0001:00035920       ?AddAmmo@CGaussAmmo@@EAEHPAVCBaseEntity@@@Z 10036920 f i gauss.obj
 0001:00035980       ?AddToPlayer@CHgun@@UAEHPAVCBasePlayer@@@Z 10036980 f   hornetgun.obj
 0001:00035980       ?AddToPlayer@CCrossbow@@UAEHPAVCBasePlayer@@@Z 10036980 f   crossbow.obj
 0001:00035980       ?AddToPlayer@CEgon@@UAEHPAVCBasePlayer@@@Z 10036980 f   egon.obj
 0001:00035980       ?AddToPlayer@CShotgun@@UAEHPAVCBasePlayer@@@Z 10036980 f   shotgun.obj
 0001:00035980       ?AddToPlayer@CRpg@@UAEHPAVCBasePlayer@@@Z 10036980 f   rpg.obj
 0001:00035980       ?AddToPlayer@CMP5@@UAEHPAVCBasePlayer@@@Z 10036980 f   mp5.obj
 0001:00035980       ?AddToPlayer@CPython@@UAEHPAVCBasePlayer@@@Z 10036980 f   python.obj
 0001:00035980       ?AddToPlayer@CGauss@@UAEHPAVCBasePlayer@@@Z 10036980 f   gauss.obj
 0001:000359e0       ?Attack@CEgon@@QAEXXZ      100369e0 f   egon.obj
 0001:00035cb0       ?Deploy@CEgon@@UAEHXZ      10036cb0 f   egon.obj
 0001:00035ce0       ?EndAttack@CEgon@@QAEXXZ   10036ce0 f   egon.obj
 0001:00035da0       ?Fire@CEgon@@QAEXABVVector@@0@Z 10036da0 f   egon.obj
 0001:00035e20       ?GetItemInfo@CEgon@@UAEHPAUItemInfo@@@Z 10036e20 f   egon.obj
 0001:00035e90       ?GetPulseInterval@CEgon@@QAEMXZ 10036e90 f   egon.obj
 0001:00035ea0       ?HasAmmo@CEgon@@QAEHXZ     10036ea0 f   egon.obj
 0001:00035eb0       ?Holster@CEgon@@UAEXH@Z    10036eb0 f   egon.obj
 0001:00035f00       ?Precache@CEgon@@UAEXXZ    10036f00 f   egon.obj
 0001:00035fb0       ?PrimaryAttack@CEgon@@UAEXXZ 10036fb0 f   egon.obj
 0001:00035fc0       ?Spawn@CEgon@@UAEXXZ       10036fc0 f   egon.obj
 0001:00036000       ?WeaponIdle@CEgon@@UAEXXZ  10037000 f   egon.obj
 0001:000360e0       ?iItemSlot@CRpg@@UAEHXZ    100370e0 f i hl_weapons.obj
 0001:000360e0       ?iItemSlot@CGauss@@UAEHXZ  100370e0 f i gauss.obj
 0001:000360e0       ?iItemSlot@CHgun@@UAEHXZ   100370e0 f i hl_weapons.obj
 0001:000360e0       ?iItemSlot@CEgon@@UAEHXZ   100370e0 f i egon.obj
 0001:000360f0       _ammo_egonclip             100370f0 f   egon.obj
 0001:00036100       _weapon_egon               10037100 f   egon.obj
 0001:00036110       ?EV_BoltCallback@@YAXPAUtempent_s@@MM@Z 10037110 f   ev_hldm.obj
 0001:00036150       ?EV_HLDM_CheckTracer@@YAHHPAM000HHPAH@Z 10037150 f   ev_hldm.obj
 0001:00036280       ?EV_HLDM_DamageDecal@@YAPADPAUphysent_s@@@Z 10037280 f   ev_hldm.obj
 0001:00036300       ?EV_HLDM_DecalGunshot@@YAXPAUpmtrace_s@@H@Z 10037300 f   ev_hldm.obj
 0001:00036340       ?EV_HLDM_FireBullets@@YAXHPAM00H00MHHPAHMM@Z 10037340 f   ev_hldm.obj
 0001:00036640       ?EV_HLDM_GunshotDecalTrace@@YAXPAUpmtrace_s@@PAD@Z 10037640 f   ev_hldm.obj
 0001:000367f0       ?EV_HLDM_PlayTextureSound@@YAMHPAUpmtrace_s@@PAM1H@Z 100377f0 f   ev_hldm.obj
 0001:00036bd0       ?EV_StopPreviousGauss@@YAXH@Z 10037bd0 f   ev_hldm.obj
 0001:00036c00       _EV_Crowbar                10037c00 f   ev_hldm.obj
 0001:00036cf0       _EV_EgonFire               10037cf0 f   ev_hldm.obj
 0001:00037040       _EV_EgonStop               10038040 f   ev_hldm.obj
 0001:00037100       _EV_FireCrossbow           10038100 f   ev_hldm.obj
 0001:00037210       _EV_FireCrossbow2          10038210 f   ev_hldm.obj
 0001:00037660       _EV_FireGauss              10038660 f   ev_hldm.obj
 0001:00038150       _EV_FireGlock1             10039150 f   ev_hldm.obj
 0001:000384a0       _EV_FireGlock2             100394a0 f   ev_hldm.obj
 0001:00038690       _EV_FireMP5                10039690 f   ev_hldm.obj
 0001:00038990       _EV_FireMP52               10039990 f   ev_hldm.obj
 0001:00038a80       _EV_FirePython             10039a80 f   ev_hldm.obj
 0001:00038c40       _EV_FireRpg                10039c40 f   ev_hldm.obj
 0001:00038d00       _EV_FireShotGunDouble      10039d00 f   ev_hldm.obj
 0001:000390a0       _EV_FireShotGunSingle      1003a0a0 f   ev_hldm.obj
 0001:00039430       _EV_HornetGunFire          1003a430 f   ev_hldm.obj
 0001:00039520       _EV_SnarkFire              1003a520 f   ev_hldm.obj
 0001:000396f0       _EV_SpinGauss              1003a6f0 f   ev_hldm.obj
 0001:00039760       _EV_TrainPitchAdjust       1003a760 f   ev_hldm.obj
 0001:00039950       _EV_TripmineFire           1003a950 f   ev_hldm.obj
 0001:00039ac0       ??$GetClassPtr@VCGauss@@@@YAPAVCGauss@@PAV0@@Z 1003aac0 f i gauss.obj
 0001:00039b20       ??$GetClassPtr@VCGaussAmmo@@@@YAPAVCGaussAmmo@@PAV0@@Z 1003ab20 f i gauss.obj
 0001:00039b70       ?Deploy@CGauss@@UAEHXZ     1003ab70 f   gauss.obj
 0001:00039ba0       ?Fire@CGauss@@QAEXVVector@@0M@Z 1003aba0 f   gauss.obj
 0001:00039c70       ?GetFullChargeTime@CGauss@@QAEMXZ 1003ac70 f   gauss.obj
 0001:00039c90       ?GetItemInfo@CGauss@@UAEHPAUItemInfo@@@Z 1003ac90 f   gauss.obj
 0001:00039d00       ?Holster@CGauss@@UAEXH@Z   1003ad00 f   gauss.obj
 0001:00039da0       ?Precache@CGauss@@UAEXXZ   1003ada0 f   gauss.obj
 0001:00039e70       ?Precache@CGaussAmmo@@EAEXXZ 1003ae70 f i gauss.obj
 0001:00039e90       ?PrimaryAttack@CGauss@@UAEXXZ 1003ae90 f   gauss.obj
 0001:00039fb0       ?SecondaryAttack@CGauss@@UAEXXZ 1003afb0 f   gauss.obj
 0001:0003a500       ?Spawn@CGauss@@UAEXXZ      1003b500 f   gauss.obj
 0001:0003a540       ?Spawn@CGaussAmmo@@EAEXXZ  1003b540 f i gauss.obj
 0001:0003a570       ?StartFire@CGauss@@QAEXXZ  1003b570 f   gauss.obj
 0001:0003a720       ?WeaponIdle@CGauss@@UAEXXZ 1003b720 f   gauss.obj
 0001:0003a9c0       _ammo_gaussclip            1003b9c0 f   gauss.obj
 0001:0003a9d0       _weapon_gauss              1003b9d0 f   gauss.obj
 0001:0003a9e0       ??$GetClassPtr@VCHandGrenade@@@@YAPAVCHandGrenade@@PAV0@@Z 1003b9e0 f i handgrenade.obj
 0001:0003aa40       ?CanHolster@CHandGrenade@@UAEHXZ 1003ba40 f   handgrenade.obj
 0001:0003aa60       ?Deploy@CHandGrenade@@UAEHXZ 1003ba60 f   handgrenade.obj
 0001:0003aa90       ?GetItemInfo@CHandGrenade@@UAEHPAUItemInfo@@@Z 1003ba90 f   handgrenade.obj
 0001:0003ab00       ?Holster@CHandGrenade@@UAEXH@Z 1003bb00 f   handgrenade.obj
 0001:0003abd0       ?Precache@CHandGrenade@@UAEXXZ 1003bbd0 f   handgrenade.obj
 0001:0003ac00       ?PrimaryAttack@CHandGrenade@@UAEXXZ 1003bc00 f   handgrenade.obj
 0001:0003ac80       ?Spawn@CHandGrenade@@UAEXXZ 1003bc80 f   handgrenade.obj
 0001:0003acc0       ?WeaponIdle@CHandGrenade@@UAEXXZ 1003bcc0 f   handgrenade.obj
 0001:0003b110       _weapon_handgrenade        1003c110 f   handgrenade.obj
 0001:0003b120       ?FValidateHintType@CBaseMonster@@UAEHF@Z 1003c120 f   hl_baseentity.obj
 0001:0003b120       ?IRelationship@CBaseMonster@@UAEHPAVCBaseEntity@@@Z 1003c120 f   hl_baseentity.obj
 0001:0003b120       ?AddPlayerItem@CBasePlayer@@UAEHPAVCBasePlayerItem@@@Z 1003c120 f   hl_baseentity.obj
 0001:0003b120       ?AddPlayerItem@CBaseEntity@@UAEHPAVCBasePlayerItem@@@Z 1003c120 f   crossbow.obj
 0001:0003b120       ?ExtractAmmo@CBasePlayerWeapon@@UAEHPAV1@@Z 1003c120 f   hl_baseentity.obj
 0001:0003b120       ?RemovePlayerItem@CBaseEntity@@UAEHPAVCBasePlayerItem@@@Z 1003c120 f   crossbow.obj
 0001:0003b120       ?Restore@CBasePlayer@@UAEHAAVCRestore@@@Z 1003c120 f   hl_baseentity.obj
 0001:0003b120       ?FInViewCone@CBaseMonster@@UAEHPAVCBaseEntity@@@Z 1003c120 f   hl_baseentity.obj
 0001:0003b120       ?ShouldAdvanceRoute@CBaseMonster@@UAEHM@Z 1003c120 f   hl_baseentity.obj
 0001:0003b120       ?FVisible@CBaseEntity@@UAEHPAV1@@Z 1003c120 f   hl_baseentity.obj
 0001:0003b120       ?ScheduleFromName@CBaseMonster@@UAEPAUSchedule_t@@PBD@Z 1003c120 f   hl_baseentity.obj
 0001:0003b120       ?UpdateClientData@CBasePlayerWeapon@@UAEHPAVCBasePlayer@@@Z 1003c120 f   hl_baseentity.obj
 0001:0003b120       ?OnControls@CBaseEntity@@UAEHPAUentvars_s@@@Z 1003c120 f   crossbow.obj
 0001:0003b120       ?FInViewCone@CBaseMonster@@UAEHPAVVector@@@Z 1003c120 f   hl_baseentity.obj
 0001:0003b120       ?RemovePlayerItem@CBasePlayer@@UAEHPAVCBasePlayerItem@@@Z 1003c120 f   hl_baseentity.obj
 0001:0003b120       ?FVisible@CBaseEntity@@UAEHABVVector@@@Z 1003c120 f   hl_baseentity.obj
 0001:0003b120       ?Save@CBasePlayer@@UAEHAAVCSave@@@Z 1003c120 f   hl_baseentity.obj
 0001:0003b120       ?AddToPlayer@CBasePlayerWeapon@@UAEHPAVCBasePlayer@@@Z 1003c120 f   hl_baseentity.obj
 0001:0003b120       ?Draw@CHudBase@@UAEHM@Z    1003c120 f   cdll_int.obj
 0001:0003b120       ?CheckEnemy@CBaseMonster@@UAEHPAVCBaseEntity@@@Z 1003c120 f   hl_baseentity.obj
 0001:0003b120       ?GetScheduleOfType@CBaseMonster@@UAEPAUSchedule_t@@H@Z 1003c120 f   hl_baseentity.obj
 0001:0003b120       ?ExtractClipAmmo@CBasePlayerWeapon@@UAEHPAV1@@Z 1003c120 f   hl_baseentity.obj
 0001:0003b120       ?AddDuplicate@CBasePlayerWeapon@@UAEHPAVCBasePlayerItem@@@Z 1003c120 f   hl_baseentity.obj
 0001:0003b130       ?FBecomeProne@CBaseEntity@@UAEHXZ 1003c130 f   crossbow.obj
 0001:0003b130       ?IgnoreConditions@CBaseMonster@@UAEHXZ 1003c130 f   hl_baseentity.obj
 0001:0003b130       ?ShouldFadeOnDeath@CBasePlayer@@UAEHXZ 1003c130 f   hl_weapons.obj
 0001:0003b130       ?UTIL_FindEntityInSphere@@YAPAVCBaseEntity@@PAV1@ABVVector@@M@Z 1003c130 f   hl_baseentity.obj
 0001:0003b130       ?Respawn@CBaseEntity@@UAEPAV1@XZ 1003c130 f   crossbow.obj
 0001:0003b130       ?ObjectCaps@CBasePlayer@@UAEHXZ 1003c130 f   hl_weapons.obj
 0001:0003b130       ?PBestScent@CBaseMonster@@UAEPAVCSound@@XZ 1003c130 f   hl_baseentity.obj
 0001:0003b130       ?ShouldWeaponIdle@CBasePlayerWeapon@@UAEHXZ 1003c130 f   crossbow.obj
 0001:0003b130       ?HasAlienGibs@CBaseMonster@@UAEHXZ 1003c130 f   hl_baseentity.obj
 0001:0003b130       ?EV_TFC_IsAllyTeam@@YAHHH@Z 1003c130 f   ev_hldm.obj
 0001:0003b130       ?IsSneaking@CBaseEntity@@UAEHXZ 1003c130 f   crossbow.obj
 0001:0003b130       ?GetNextTarget@CBaseEntity@@UAEPAV1@XZ 1003c130 f   hl_baseentity.obj
 0001:0003b130       ?GetSchedule@CBaseMonster@@UAEPAUSchedule_t@@XZ 1003c130 f   hl_baseentity.obj
 0001:0003b130       ?Classify@CBasePlayer@@UAEHXZ 1003c130 f   hl_baseentity.obj
 0001:0003b130       ?MyMonsterPointer@CBaseEntity@@UAEPAVCBaseMonster@@XZ 1003c130 f   crossbow.obj
 0001:0003b130       ?IsNetClient@CBaseEntity@@UAEHXZ 1003c130 f   crossbow.obj
 0001:0003b130       ?ShootTimed@CGrenade@@SAPAV1@PAUentvars_s@@VVector@@1M@Z 1003c130 f   hl_baseentity.obj
 0001:0003b130       ?FCanCheckAttacks@CBaseMonster@@UAEHXZ 1003c130 f   hl_baseentity.obj
 0001:0003b130       ?Respawn@CBasePlayerItem@@UAEPAVCBaseEntity@@XZ 1003c130 f   hl_baseentity.obj
 0001:0003b130       ?Illumination@CBasePlayer@@UAEHXZ 1003c130 f   hl_baseentity.obj
 0001:0003b130       ?BestVisibleEnemy@CBaseMonster@@UAEPAVCBaseEntity@@XZ 1003c130 f   hl_baseentity.obj
 0001:0003b130       ?IsNotValid@CommandButton@@UAEHXZ 1003c130 f   vgui_CustomObjects.obj
 0001:0003b130       ?MySquadMonsterPointer@CBaseEntity@@UAEPAVCSquadMonster@@XZ 1003c130 f   crossbow.obj
 0001:0003b130       ?Classify@CBaseEntity@@UAEHXZ 1003c130 f   crossbow.obj
 0001:0003b130       ?IsPlayer@CBaseEntity@@UAEHXZ 1003c130 f   crossbow.obj
 0001:0003b130       ?GetToggleState@CBaseEntity@@UAEHXZ 1003c130 f   crossbow.obj
 0001:0003b130       ?Init@CHudBase@@UAEHXZ     1003c130 f   cdll_int.obj
 0001:0003b130       ?Create@CBaseEntity@@SAPAV1@PADABVVector@@1PAUedict_s@@@Z 1003c130 f   hl_baseentity.obj
 0001:0003b130       ?stub_PrecacheSound@@YAHPAD@Z 1003c130 f   com_weapons.obj
 0001:0003b130       ?ShouldFadeOnDeath@CBaseMonster@@UAEHXZ 1003c130 f   hl_baseentity.obj
 0001:0003b130       ?ISoundMask@CBaseMonster@@UAEHXZ 1003c130 f   hl_baseentity.obj
 0001:0003b130       ?FCanActiveIdle@CBaseMonster@@UAEHXZ 1003c130 f   hl_baseentity.obj
 0001:0003b130       ?VidInit@CHudBase@@UAEHXZ  1003c130 f   cdll_int.obj
 0001:0003b130       _HUD_GetUserEntity         1003c130 f   entity.obj
 0001:0003b130       ?PBestSound@CBaseMonster@@UAEPAVCSound@@XZ 1003c130 f   hl_baseentity.obj
 0001:0003b130       ?HasHumanGibs@CBaseMonster@@UAEHXZ 1003c130 f   hl_baseentity.obj
 0001:0003b130       ?stub_PrecacheModel@@YAHPAD@Z 1003c130 f   com_weapons.obj
 0001:0003b130       ?ShootContact@CGrenade@@SAPAV1@PAUentvars_s@@VVector@@1@Z 1003c130 f   hl_baseentity.obj
 0001:0003b140       ?BuildNearestRoute@CBaseMonster@@UAEHVVector@@0MM@Z 1003c140 f   hl_baseentity.obj
 0001:0003b140       ?FindCover@CBaseMonster@@UAEHVVector@@0MM@Z 1003c140 f   hl_baseentity.obj
 0001:0003b150       ?StudioFrameAdvance@CBaseAnimating@@QAEMM@Z 1003c150 f   hl_baseentity.obj
 0001:0003b150       ?ChangeYaw@CBaseMonster@@UAEMH@Z 1003c150 f   hl_baseentity.obj
 0001:0003b160       ?CheckRangeAttack1@CBaseMonster@@UAEHMM@Z 1003c160 f   hl_baseentity.obj
 0001:0003b160       ?CheckMeleeAttack1@CBaseMonster@@UAEHMM@Z 1003c160 f   hl_baseentity.obj
 0001:0003b160       ?TakeHealth@CBasePlayer@@UAEHMH@Z 1003c160 f   hl_baseentity.obj
 0001:0003b160       ?startCellEditing@ServerBrowserTablePanel@?A0xa8871522@@UAEPAVPanel@vgui@@HH@Z 1003c160 f   vgui_ServerBrowser.obj
 0001:0003b160       ?CheckMeleeAttack2@CBaseMonster@@UAEHMM@Z 1003c160 f   hl_baseentity.obj
 0001:0003b160       ?CanPlaySequence@CBaseMonster@@UAEHHH@Z 1003c160 f   hl_baseentity.obj
 0001:0003b160       ?CheckRangeAttack2@CBaseMonster@@UAEHMM@Z 1003c160 f   hl_baseentity.obj
 0001:0003b160       ?TakeHealth@CBaseMonster@@UAEHMH@Z 1003c160 f   hl_baseentity.obj
 0001:0003b170       ?DamageDecal@CBaseEntity@@UAEHH@Z 1003c170 f   hl_baseentity.obj
 0001:0003b180       ?FTriangulate@CBaseMonster@@UAEHABVVector@@0MPAVCBaseEntity@@PAV2@@Z 1003c180 f   hl_baseentity.obj
 0001:0003b190       ?GetAutoaimVector@CBasePlayer@@QAE?AVVector@@M@Z 1003c190 f   hl_baseentity.obj
 0001:0003b1c0       ?GetDeathActivity@CBaseMonster@@UAE?AW4Activity@@XZ 1003c1c0 f   hl_baseentity.obj
 0001:0003b1d0       ?GetGunPosition@CBasePlayer@@UAE?AVVector@@XZ 1003c1d0 f   hl_baseentity.obj
 0001:0003b1d0       ?GetGunPosition@CBaseMonster@@UAE?AVVector@@XZ 1003c1d0 f   hl_baseentity.obj
 0001:0003b200       ?GiveAmmo@CBasePlayer@@UAEHHPADH@Z 1003c200 f   hl_baseentity.obj
 0001:0003b210       ?Spawn@CBaseEntity@@UAEXXZ 1003c210 f   crossbow.obj
 0001:0003b210       ?UpdateOwner@CBaseEntity@@UAEXXZ 1003c210 f   crossbow.obj
 0001:0003b210       ?performLayout@ScrollBar2@vgui@@MAEXXZ 1003c210 f   vgui_scrollbar2.obj
 0001:0003b210       ?UTIL_SetOrigin@@YAXPAUentvars_s@@ABVVector@@@Z 1003c210 f   hl_baseentity.obj
 0001:0003b210       _HUD_DrawTransparentTriangles 1003c210 f   tri.obj
 0001:0003b210       ?UTIL_PrecacheOther@@YAXPBD@Z 1003c210 f   hl_baseentity.obj
 0001:0003b210       ?IdleSound@CBaseMonster@@UAEXXZ 1003c210 f   hl_weapons.obj
 0001:0003b210       ?DestroyItem@CBasePlayerItem@@QAEXXZ 1003c210 f   hl_baseentity.obj
 0001:0003b210       ?UpdateItemInfo@CBasePlayerWeapon@@UAEXXZ 1003c210 f   crossbow.obj
 0001:0003b210       ?StartMonster@CBaseMonster@@UAEXXZ 1003c210 f   hl_baseentity.obj
 0001:0003b210       ?UTIL_Remove@@YAXPAVCBaseEntity@@@Z 1003c210 f   hl_baseentity.obj
 0001:0003b210       ?CheckAmmo@CBaseMonster@@UAEXXZ 1003c210 f   hl_weapons.obj
 0001:0003b210       ?SUB_Remove@CBaseEntity@@QAEXXZ 1003c210 f   hl_baseentity.obj
 0001:0003b210       ?SentenceStop@CBaseMonster@@UAEXXZ 1003c210 f   hl_baseentity.obj
 0001:0003b210       ?EMIT_SOUND_DYN@@YAXPAUedict_s@@HPBDMMHH@Z 1003c210 f   hl_baseentity.obj
 0001:0003b210       ?Drop@CBasePlayerItem@@UAEXXZ 1003c210 f   hl_baseentity.obj
 0001:0003b210       ?BecomeDead@CBaseMonster@@UAEXXZ 1003c210 f   hl_baseentity.obj
 0001:0003b210       ?InitHUDData@CHudBase@@UAEXXZ 1003c210 f   cdll_int.obj
 0001:0003b210       ?PreThink@CBasePlayer@@UAEXXZ 1003c210 f   hl_baseentity.obj
 0001:0003b210       ?UTIL_MakeVectors@@YAXABVVector@@@Z 1003c210 f   hl_baseentity.obj
 0001:0003b210       ?paintBackground@CListBox@vgui@@UAEXXZ 1003c210 f   vgui_listbox.obj
 0001:0003b210       ?PainSound@CBaseMonster@@UAEXXZ 1003c210 f   hl_weapons.obj
 0001:0003b210       ?SetObjectCollisionBox@CBasePlayerItem@@UAEXXZ 1003c210 f   hl_baseentity.obj
 0001:0003b210       ?Materialize@CBasePlayerAmmo@@QAEXXZ 1003c210 f   hl_baseentity.obj
 0001:0003b210       ?WeaponIdle@CBasePlayerWeapon@@UAEXXZ 1003c210 f   crossbow.obj
 0001:0003b210       ?MonsterInitDead@CBaseMonster@@UAEXXZ 1003c210 f   hl_baseentity.obj
 0001:0003b210       ?Kill@CBasePlayerItem@@UAEXXZ 1003c210 f   hl_baseentity.obj
 0001:0003b210       ?OverrideReset@CBaseEntity@@UAEXXZ 1003c210 f   crossbow.obj
 0001:0003b210       ?MonsterInit@CBaseMonster@@UAEXXZ 1003c210 f   hl_baseentity.obj
 0001:0003b210       ?DeathSound@CBasePlayer@@UAEXXZ 1003c210 f   hl_baseentity.obj
 0001:0003b210       ?BarnacleVictimReleased@CBaseMonster@@UAEXXZ 1003c210 f   hl_baseentity.obj
 0001:0003b210       ?Precache@CBasePlayer@@UAEXXZ 1003c210 f   hl_baseentity.obj
 0001:0003b210       ?FadeMonster@CBaseMonster@@UAEXXZ 1003c210 f   hl_baseentity.obj
 0001:0003b210       ?DecalGunshot@@YAXPAUTraceResult@@H@Z 1003c210 f   hl_baseentity.obj
 0001:0003b210       ?SecondaryAttack@CSqueak@@UAEXXZ 1003c210 f   squeakgrenade.obj
 0001:0003b210       ?DeathSound@CBaseMonster@@UAEXXZ 1003c210 f   hl_weapons.obj
 0001:0003b210       ?UTIL_SetSize@@YAXPAUentvars_s@@ABVVector@@1@Z 1003c210 f   hl_baseentity.obj
 0001:0003b210       ?MonsterInitThink@CBaseMonster@@QAEXXZ 1003c210 f   hl_baseentity.obj
 0001:0003b210       ?ImpulseCommands@CBasePlayer@@UAEXXZ 1003c210 f   hl_baseentity.obj
 0001:0003b210       ?PlayerDeathThink@CBasePlayer@@QAEXXZ 1003c210 f   hl_baseentity.obj
 0001:0003b210       ?FallInit@CBasePlayerItem@@QAEXXZ 1003c210 f   hl_baseentity.obj
 0001:0003b210       ?paintBackground@CImageLabel@@UAEXXZ 1003c210 f   vgui_CustomObjects.obj
 0001:0003b210       ?RetireWeapon@CBasePlayerWeapon@@UAEXXZ 1003c210 f   hl_baseentity.obj
 0001:0003b210       ?MonsterThink@CBaseMonster@@UAEXXZ 1003c210 f   hl_baseentity.obj
 0001:0003b210       ?paintBackground@CTFScrollButton@@UAEXXZ 1003c210 f   vgui_CustomObjects.obj
 0001:0003b210       ??1CGridEntry@CGrid@vgui@@QAE@XZ 1003c210 f   vgui_grid.obj
 0001:0003b210       ?ReportAIState@CBaseMonster@@UAEXXZ 1003c210 f   hl_baseentity.obj
 0001:0003b210       ?RunAI@CBaseMonster@@UAEXXZ 1003c210 f   hl_baseentity.obj
 0001:0003b210       ?stub_SetModel@@YAXPAUedict_s@@PBD@Z 1003c210 f   com_weapons.obj
 0001:0003b210       ?SetYawSpeed@CBaseMonster@@UAEXXZ 1003c210 f   hl_weapons.obj
 0001:0003b210       ?CorpseFallThink@CBaseMonster@@QAEXXZ 1003c210 f   hl_baseentity.obj
 0001:0003b210       ?Duck@CBasePlayer@@UAEXXZ  1003c210 f   hl_baseentity.obj
 0001:0003b210       ?GibMonster@CBaseMonster@@UAEXXZ 1003c210 f   hl_baseentity.obj
 0001:0003b210       ?SecondaryAttack@CBasePlayerWeapon@@UAEXXZ 1003c210 f   crossbow.obj
 0001:0003b210       ?Activate@CBaseEntity@@UAEXXZ 1003c210 f   crossbow.obj
 0001:0003b210       ?HUD_SetMaxSpeed@@YAXPBUedict_s@@M@Z 1003c210 f   com_weapons.obj
 0001:0003b210       ?FallThink@CBasePlayerItem@@QAEXXZ 1003c210 f   hl_baseentity.obj
 0001:0003b210       ?Materialize@CBasePlayerItem@@QAEXXZ 1003c210 f   hl_baseentity.obj
 0001:0003b210       ?Think@CHudBase@@UAEXXZ    1003c210 f   cdll_int.obj
 0001:0003b210       ?ScheduleChange@CBaseMonster@@UAEXXZ 1003c210 f   hl_weapons.obj
 0001:0003b210       ?UpdateClientData@CBasePlayer@@UAEXXZ 1003c210 f   hl_baseentity.obj
 0001:0003b210       ?StopSneaking@CBaseEntity@@UAEXXZ 1003c210 f   crossbow.obj
 0001:0003b210       ?Reload@CBasePlayerWeapon@@UAEXXZ 1003c210 f   crossbow.obj
 0001:0003b210       ?PrescheduleThink@CBaseMonster@@UAEXXZ 1003c210 f   hl_weapons.obj
 0001:0003b210       ?Spawn@CBasePlayerAmmo@@UAEXXZ 1003c210 f   hl_baseentity.obj
 0001:0003b210       ?BarnacleVictimReleased@CBasePlayer@@UAEXXZ 1003c210 f   hl_baseentity.obj
 0001:0003b210       ?SetObjectCollisionBox@CBaseEntity@@UAEXXZ 1003c210 f   hl_baseentity.obj
 0001:0003b210       ?Jump@CBasePlayer@@UAEXXZ  1003c210 f   hl_baseentity.obj
 0001:0003b210       ?Precache@CBaseEntity@@UAEXXZ 1003c210 f   crossbow.obj
 0001:0003b210       ?ItemPreFrame@CBasePlayerItem@@UAEXXZ 1003c210 f   crossbow.obj
 0001:0003b210       ?AttemptToMaterialize@CBasePlayerItem@@QAEXXZ 1003c210 f   hl_baseentity.obj
 0001:0003b210       ?Reset@CHudBase@@UAEXXZ    1003c210 f   cdll_int.obj
 0001:0003b210       ?StartSneaking@CBaseEntity@@UAEXXZ 1003c210 f   crossbow.obj
 0001:0003b210       ?AlertSound@CBaseMonster@@UAEXXZ 1003c210 f   hl_weapons.obj
 0001:0003b210       ?PostThink@CBasePlayer@@UAEXXZ 1003c210 f   hl_baseentity.obj
 0001:0003b220       ?DetonateUse@CGrenade@@QAEXPAVCBaseEntity@@0W4USE_TYPE@@M@Z 1003c220 f   hl_baseentity.obj
 0001:0003b220       ?MonsterUse@CBaseMonster@@QAEXPAVCBaseEntity@@0W4USE_TYPE@@M@Z 1003c220 f   hl_baseentity.obj
 0001:0003b220       ?PlaySentence@CBaseMonster@@UAEXPBDMMM@Z 1003c220 f   hl_baseentity.obj
 0001:0003b230       ?KeyValue@CBaseMonster@@UAEXPAUKeyValueData_s@@@Z 1003c230 f   hl_baseentity.obj
 0001:0003b230       ?SetToggleState@CBaseEntity@@UAEXH@Z 1003c230 f   crossbow.obj
 0001:0003b230       ?SetActivity@CBaseMonster@@UAEXW4Activity@@@Z 1003c230 f   hl_baseentity.obj
 0001:0003b230       ?StartTask@CBaseMonster@@UAEXPAUTask_t@@@Z 1003c230 f   hl_baseentity.obj
 0001:0003b230       ?keyFocusTicked@CViewPortInputHandler@@UAEXPAVPanel@vgui@@@Z 1003c230 f   vgui_TeamFortressViewport.obj
 0001:0003b230       ?keyFocusTicked@SpectToggleButton@@UAEXPAVPanel@vgui@@@Z 1003c230 f   vgui_TeamFortressViewport.obj
 0001:0003b230       ?KeyValue@CBaseDelay@@UAEXPAUKeyValueData_s@@@Z 1003c230 f   hl_baseentity.obj
 0001:0003b230       ?cursorExited@FooDefaultSliderSignal@?A0x911bd135@@UAEXPAVPanel@vgui@@@Z 1003c230 f   vgui_slider2.obj
 0001:0003b230       ?keyFocusTicked@ToggleCommandButton@@UAEXPAVPanel@vgui@@@Z 1003c230 f   vgui_TeamFortressViewport.obj
 0001:0003b230       ?cursorEntered@CDefaultInputSignal@vgui@@UAEXPAVPanel@2@@Z 1003c230 f   vgui_checkbutton2.obj
 0001:0003b230       ?Look@CBaseMonster@@UAEXH@Z 1003c230 f   hl_baseentity.obj
 0001:0003b230       ?AttachToPlayer@CBasePlayerItem@@UAEXPAVCBasePlayer@@@Z 1003c230 f   hl_baseentity.obj
 0001:0003b230       ?cursorExited@CHandler_MenuButtonOver@@UAEXPAVPanel@vgui@@@Z 1003c230 f   vgui_ClassMenu.obj
 0001:0003b230       ?SetActiveInfo@CMenuPanel@@UAEXH@Z 1003c230 f   vgui_ClassMenu.obj
 0001:0003b230       ?keyFocusTicked@CHandler_ButtonHighlight@@UAEXPAVPanel@vgui@@@Z 1003c230 f   vgui_CustomObjects.obj
 0001:0003b230       ?cursorExited@CDefaultInputSignal@vgui@@UAEXPAVPanel@2@@Z 1003c230 f   vgui_checkbutton2.obj
 0001:0003b230       ?HandleAnimEvent@CBaseMonster@@UAEXPAUMonsterEvent_t@@@Z 1003c230 f   hl_baseentity.obj
 0001:0003b230       ?keyFocusTicked@CMenuHandler_PopupSubMenuInput@@UAEXPAVPanel@vgui@@@Z 1003c230 f   vgui_TeamFortressViewport.obj
 0001:0003b230       ?cursorExited@LabelSortInputHandler@@UAEXPAVPanel@vgui@@@Z 1003c230 f   vgui_ServerBrowser.obj
 0001:0003b230       ?StopFollowing@CBaseMonster@@UAEXH@Z 1003c230 f   hl_weapons.obj
 0001:0003b230       ?keyFocusTicked@LabelSortInputHandler@@UAEXPAVPanel@vgui@@@Z 1003c230 f   vgui_ServerBrowser.obj
 0001:0003b230       ?cursorExited@CMenuHandler_PopupSubMenuInput@@UAEXPAVPanel@vgui@@@Z 1003c230 f   vgui_TeamFortressViewport.obj
 0001:0003b230       ?cursorExited@CViewPortInputHandler@@UAEXPAVPanel@vgui@@@Z 1003c230 f   vgui_TeamFortressViewport.obj
 0001:0003b230       ?keyFocusTicked@CDefaultInputSignal@vgui@@UAEXPAVPanel@2@@Z 1003c230 f   vgui_checkbutton2.obj
 0001:0003b230       ?SetAnimation@CBasePlayer@@QAEXW4PLAYER_ANIM@@@Z 1003c230 f   hl_baseentity.obj
 0001:0003b230       ?cursorEntered@CBrowser_InputSignal@?A0xa8871522@@UAEXPAVPanel@vgui@@@Z 1003c230 f   vgui_ServerBrowser.obj
 0001:0003b230       ?keyFocusTicked@CHandler_MenuButtonOver@@UAEXPAVPanel@vgui@@@Z 1003c230 f   vgui_ClassMenu.obj
 0001:0003b230       ?Move@CBaseMonster@@UAEXM@Z 1003c230 f   hl_baseentity.obj
 0001:0003b230       ?DeathNotice@CBaseEntity@@UAEXPAUentvars_s@@@Z 1003c230 f   crossbow.obj
 0001:0003b230       ?keyFocusTicked@FooDefaultSliderSignal@?A0x911bd135@@UAEXPAVPanel@vgui@@@Z 1003c230 f   vgui_slider2.obj
 0001:0003b230       ?cursorEntered@CViewPortInputHandler@@UAEXPAVPanel@vgui@@@Z 1003c230 f   vgui_TeamFortressViewport.obj
 0001:0003b230       ?DefaultTouch@CBasePlayerAmmo@@QAEXPAVCBaseEntity@@@Z 1003c230 f   hl_baseentity.obj
 0001:0003b230       ?cursorEntered@FooDefaultSliderSignal@?A0x911bd135@@UAEXPAVPanel@vgui@@@Z 1003c230 f   vgui_slider2.obj
 0001:0003b230       ?keyFocusTicked@CBrowser_InputSignal@?A0xa8871522@@UAEXPAVPanel@vgui@@@Z 1003c230 f   vgui_ServerBrowser.obj
 0001:0003b230       ?HandleAnimEvent@CBaseAnimating@@UAEXPAUMonsterEvent_t@@@Z 1003c230 f   crossbow.obj
 0001:0003b230       ?RunTask@CBaseMonster@@UAEXPAUTask_t@@@Z 1003c230 f   hl_baseentity.obj
 0001:0003b230       ?cursorEntered@LabelSortInputHandler@@UAEXPAVPanel@vgui@@@Z 1003c230 f   vgui_ServerBrowser.obj
 0001:0003b230       ?BarnacleVictimBitten@CBaseMonster@@UAEXPAUentvars_s@@@Z 1003c230 f   hl_baseentity.obj
 0001:0003b230       ?DefaultTouch@CBasePlayerItem@@QAEXPAVCBaseEntity@@@Z 1003c230 f   hl_baseentity.obj
 0001:0003b230       ?cursorExited@CBrowser_InputSignal@?A0xa8871522@@UAEXPAVPanel@vgui@@@Z 1003c230 f   vgui_ServerBrowser.obj
 0001:0003b230       ?BarnacleVictimBitten@CBasePlayer@@UAEXPAUentvars_s@@@Z 1003c230 f   hl_baseentity.obj
 0001:0003b240       ?PlayScriptedSentence@CBaseMonster@@UAEXPBDMMMHPAVCBaseEntity@@@Z 1003c240 f   hl_baseentity.obj
 0001:0003b240       ?TraceBleed@CBaseEntity@@UAEXMVVector@@PAUTraceResult@@H@Z 1003c240 f   hl_baseentity.obj
 0001:0003b250       ?TakeDamage@CBaseEntity@@UAEHPAUentvars_s@@0MH@Z 1003c250 f   hl_baseentity.obj
 0001:0003b260       ?TakeDamage@CBaseMonster@@UAEHPAUentvars_s@@0MH@Z 1003c260 f   hl_baseentity.obj
 0001:0003b260       ?CheckLocalMove@CBaseMonster@@UAEHABVVector@@0PAVCBaseEntity@@PAM@Z 1003c260 f   hl_baseentity.obj
 0001:0003b260       ?TakeDamage@CBasePlayer@@UAEHPAUentvars_s@@0MH@Z 1003c260 f   hl_baseentity.obj
 0001:0003b270       ?TakeHealth@CBaseEntity@@UAEHMH@Z 1003c270 f   hl_baseentity.obj
 0001:0003b280       ?TeamID@CBaseEntity@@UAEPBDXZ 1003c280 f   crossbow.obj
 0001:0003b280       ?TeamID@CBasePlayer@@UAEPBDXZ 1003c280 f   hl_baseentity.obj
 0001:0003b290       ?TraceAttack@CBaseMonster@@UAEXPAUentvars_s@@MVVector@@PAUTraceResult@@H@Z 1003c290 f   hl_baseentity.obj
 0001:0003b290       ?TraceAttack@CBasePlayer@@UAEXPAUentvars_s@@MVVector@@PAUTraceResult@@H@Z 1003c290 f   hl_baseentity.obj
 0001:0003b290       ?TraceAttack@CBaseEntity@@UAEXPAUentvars_s@@MVVector@@PAUTraceResult@@H@Z 1003c290 f   hl_baseentity.obj
 0001:0003b2a0       ?UTIL_VecToAngles@@YA?AVVector@@ABV1@@Z 1003c2a0 f   hl_baseentity.obj
 0001:0003b2d0       ?Game_HookEvents@@YAXXZ    1003c2d0 f   hl_events.obj
 0001:0003b410       ?Game_AddObjects@@YAXXZ    1003c410 f   hl_objects.obj
 0001:0003b430       ?UpdateBeams@@YAXXZ        1003c430 f   hl_objects.obj
 0001:0003b590       ?AlertMessage@@YAXW4ALERT_TYPE@@PADZZ 1003c590 f   hl_weapons.obj
 0001:0003b5c0       ?BloodColor@CBaseMonster@@UAEHXZ 1003c5c0 f i hl_weapons.obj
 0001:0003b5d0       ?BodyTarget@CBaseMonster@@UAE?AVVector@@ABV2@@Z 1003c5d0 f i hl_weapons.obj
 0001:0003b670       ?BodyTarget@CBasePlayer@@UAE?AVVector@@ABV2@@Z 1003c670 f i hl_weapons.obj
 0001:0003b720       ?CanDeploy@CBasePlayerWeapon@@UAEHXZ 1003c720 f   hl_weapons.obj
 0001:0003b790       ?CanPlaySentence@CBaseMonster@@UAEHH@Z 1003c790 f i hl_weapons.obj
 0001:0003b7a0       ?CoverRadius@CBaseMonster@@UAEMXZ 1003c7a0 f i hl_weapons.obj
 0001:0003b7b0       ?DefaultDeploy@CBasePlayerWeapon@@QAEHPAD0H0HH@Z 1003c7b0 f   hl_weapons.obj
 0001:0003b820       ?DefaultReload@CBasePlayerWeapon@@QAEHHHMH@Z 1003c820 f   hl_weapons.obj
 0001:0003b8c0       ?FireBulletsPlayer@CBaseEntity@@QAE?AVVector@@KV2@00MHHHPAUentvars_s@@H@Z 1003c8c0 f   hl_weapons.obj
 0001:0003ba90       ?GetDelay@CBaseToggle@@UAEMXZ 1003ca90 f i hl_weapons.obj
 0001:0003baa0       ?GetToggleState@CBaseToggle@@UAEHXZ 1003caa0 f i hl_weapons.obj
 0001:0003bab0       ?HUD_GetLastOrg@@YAXPAM@Z  1003cab0 f   hl_weapons.obj
 0001:0003bae0       ?HUD_InitClientWeapons@@YAXXZ 1003cae0 f   hl_weapons.obj
 0001:0003bc60       ?HUD_PrepEntity@@YAXPAVCBaseEntity@@PAVCBasePlayer@@@Z 1003cc60 f   hl_weapons.obj
 0001:0003bcd0       ?HUD_SetLastOrg@@YAXXZ     1003ccd0 f   hl_weapons.obj
 0001:0003bd20       ?HUD_WeaponsPostThink@@YAXPAUlocal_state_s@@0PAUusercmd_s@@NI@Z 1003cd20 f   hl_weapons.obj
 0001:0003c660       ?HearingSensitivity@CBaseMonster@@UAEMXZ 1003d660 f i hl_weapons.obj
 0001:0003c670       ?Holster@CBasePlayerWeapon@@UAEXH@Z 1003d670 f   hl_weapons.obj
 0001:0003c6a0       ?IsAlive@CBaseMonster@@UAEHXZ 1003d6a0 f i hl_weapons.obj
 0001:0003c6b0       ?IsMoving@CBaseMonster@@UAEHXZ 1003d6b0 f i hl_weapons.obj
 0001:0003c6c0       ?IsSneaking@CBasePlayer@@UAEHXZ 1003d6c0 f i hl_weapons.obj
 0001:0003c6e0       ?ItemPostFrame@CBasePlayerWeapon@@UAEXXZ 1003d6e0 f   hl_weapons.obj
 0001:0003c870       ?Killed@CBaseEntity@@UAEXPAUentvars_s@@H@Z 1003d870 f   hl_weapons.obj
 0001:0003c880       ?Killed@CBasePlayer@@UAEXPAUentvars_s@@H@Z 1003d880 f   hl_weapons.obj
 0001:0003c8b0       ?LoadVModel@@YAXPADPAVCBasePlayer@@@Z 1003d8b0 f   hl_weapons.obj
 0001:0003c8d0       ??0TraceResult@@QAE@XZ     1003d8d0 f i crossbow.obj
 0001:0003c8d0       ??0globalvars_t@@QAE@XZ    1003d8d0 f i hl_weapons.obj
 0001:0003c8d0       ??0WayPoint_t@@QAE@XZ      1003d8d0 f i hl_weapons.obj
 0001:0003c8d0       ?Respawn@CBasePlayerAmmo@@UAEPAVCBaseEntity@@XZ 1003d8d0 f i hl_baseentity.obj
 0001:0003c8d0       ?GetWeaponPtr@CBasePlayerWeapon@@UAEPAVCBasePlayerItem@@XZ 1003d8d0 f i crossbow.obj
 0001:0003c8d0       ??0entvars_s@@QAE@XZ       1003d8d0 f i hl_weapons.obj
 0001:0003c8d0       ?MyMonsterPointer@CBaseMonster@@UAEPAV1@XZ 1003d8d0 f i hl_weapons.obj
 0001:0003c8e0       ?PlayEmptySound@CBasePlayerWeapon@@UAEHXZ 1003d8e0 f   hl_weapons.obj
 0001:0003c910       ?ResetEmptySound@CBasePlayerWeapon@@UAEXXZ 1003d910 f   hl_weapons.obj
 0001:0003c920       ?SendWeaponAnim@CBasePlayerWeapon@@UAEXHHH@Z 1003d920 f   hl_weapons.obj
 0001:0003c950       ?SetObjectCollisionBox@CTripmine@@UAEXXZ 1003d950 f i hl_weapons.obj
 0001:0003c9f0       ?Spawn@CBasePlayer@@UAEXXZ 1003d9f0 f   hl_weapons.obj
 0001:0003ca10       ?StartSneaking@CBasePlayer@@UAEXXZ 1003da10 f i hl_weapons.obj
 0001:0003ca30       ?Stop@CBaseMonster@@UAEXXZ 1003da30 f i hl_weapons.obj
 0001:0003ca50       ?StopSneaking@CBasePlayer@@UAEXXZ 1003da50 f i hl_weapons.obj
 0001:0003ca70       ?UTIL_TraceLine@@YAXABVVector@@0W4IGNORE_MONSTERS@@PAUedict_s@@PAUTraceResult@@@Z 1003da70 f   hl_weapons.obj
 0001:0003ca90       ?VidInit@CHudStatusBar@@UAEHXZ 1003da90 f i statusbar.obj
 0001:0003ca90       ?UseDecrement@CTripmine@@UAEHXZ 1003da90 f i hl_weapons.obj
 0001:0003ca90       ?CanHolster@CBasePlayerItem@@UAEHXZ 1003da90 f i crossbow.obj
 0001:0003ca90       ?UseDecrement@CShotgun@@UAEHXZ 1003da90 f i hl_weapons.obj
 0001:0003ca90       ?IsNetClient@CBasePlayer@@UAEHXZ 1003da90 f i hl_weapons.obj
 0001:0003ca90       ?VidInit@CHudMenu@@UAEHXZ  1003da90 f i menu.obj
 0001:0003ca90       ?VidInit@CHudGeiger@@UAEHXZ 1003da90 f i geiger.obj
 0001:0003ca90       ?GetStoppedActivity@CBaseMonster@@UAE?AW4Activity@@XZ 1003da90 f i hl_weapons.obj
 0001:0003ca90       ?ShouldWeaponIdle@CRpg@@UAEHXZ 1003da90 f i hl_weapons.obj
 0001:0003ca90       ?iItemSlot@CCrowbar@@UAEHXZ 1003da90 f i crowbar.obj
 0001:0003ca90       ?UseDecrement@CCrossbow@@UAEHXZ 1003da90 f i crossbow.obj
 0001:0003ca90       ?UseDecrement@CGauss@@UAEHXZ 1003da90 f i gauss.obj
 0001:0003ca90       ?UseDecrement@CEgon@@UAEHXZ 1003da90 f i egon.obj
 0001:0003ca90       ?FBecomeProne@CBasePlayer@@UAEHXZ 1003da90 f i hl_baseentity.obj
 0001:0003ca90       ?IsUseable@CBasePlayerWeapon@@UAEHXZ 1003da90 f i hl_baseentity.obj
 0001:0003ca90       ?UseDecrement@CSatchel@@UAEHXZ 1003da90 f i hl_weapons.obj
 0001:0003ca90       ?UseDecrement@CMP5@@UAEHXZ 1003da90 f i hl_weapons.obj
 0001:0003ca90       ?UseDecrement@CHandGrenade@@UAEHXZ 1003da90 f i handgrenade.obj
 0001:0003ca90       ?VidInit@CHudSayText@@UAEHXZ 1003da90 f i saytext.obj
 0001:0003ca90       ?IsPlayer@CBasePlayer@@UAEHXZ 1003da90 f i hl_weapons.obj
 0001:0003ca90       ?UseDecrement@CHgun@@UAEHXZ 1003da90 f i hl_weapons.obj
 0001:0003ca90       ?UseDecrement@CPython@@UAEHXZ 1003da90 f i hl_weapons.obj
 0001:0003ca90       ?IsUseable@CHgun@@UAEHXZ   1003da90 f i hornetgun.obj
 0001:0003ca90       ?UseDecrement@CSqueak@@UAEHXZ 1003da90 f i hl_weapons.obj
 0001:0003ca90       ?IsInWorld@CBaseEntity@@UAEHXZ 1003da90 f i hl_baseentity.obj
 0001:0003ca90       ?UseDecrement@CGlock@@UAEHXZ 1003da90 f i hl_weapons.obj
 0001:0003ca90       ?VidInit@CHudAmmoSecondary@@UAEHXZ 1003da90 f i ammo_secondary.obj
 0001:0003ca90       ?VidInit@CHudStatusIcons@@UAEHXZ 1003da90 f i status_icons.obj
 0001:0003ca90       ?UseDecrement@CRpg@@UAEHXZ 1003da90 f i hl_weapons.obj
 0001:0003ca90       ?UseDecrement@CCrowbar@@UAEHXZ 1003da90 f i crowbar.obj
 0001:0003ca90       ?FBecomeProne@CBaseMonster@@UAEHXZ 1003da90 f i hl_baseentity.obj
 0001:0003caa0       ?bIsMultiplayer@@YA_NXZ    1003daa0 f   hl_weapons.obj
 0001:0003cab0       ?iItemSlot@CGlock@@UAEHXZ  1003dab0 f i hl_weapons.obj
 0001:0003cab0       ?ObjectCaps@CBaseEntity@@UAEHXZ 1003dab0 f i crossbow.obj
 0001:0003cab0       ?iItemSlot@CPython@@UAEHXZ 1003dab0 f i hl_weapons.obj
 0001:0003cac0       ?iItemSlot@CShotgun@@UAEHXZ 1003dac0 f i hl_weapons.obj
 0001:0003cac0       ?GetIdealState@CBaseMonster@@UAE?AW4MONSTERSTATE@@XZ 1003dac0 f i hl_baseentity.obj
 0001:0003cac0       ?iItemSlot@CCrossbow@@UAEHXZ 1003dac0 f i crossbow.obj
 0001:0003cac0       ?iItemSlot@CMP5@@UAEHXZ    1003dac0 f i hl_weapons.obj
 0001:0003cad0       ?iItemSlot@CTripmine@@UAEHXZ 1003dad0 f i hl_weapons.obj
 0001:0003cad0       ?iItemSlot@CHandGrenade@@UAEHXZ 1003dad0 f i handgrenade.obj
 0001:0003cad0       ?iItemSlot@CSatchel@@UAEHXZ 1003dad0 f i hl_weapons.obj
 0001:0003cad0       ?iItemSlot@CSqueak@@UAEHXZ 1003dad0 f i hl_weapons.obj
 0001:0003cae0       _HUD_PostRunCmd            1003dae0 f   hl_weapons.obj
 0001:0003cc00       ??$GetClassPtr@VCGlock@@@@YAPAVCGlock@@PAV0@@Z 1003dc00 f i hl_wpn_glock.obj
 0001:0003cc60       ??$GetClassPtr@VCGlockAmmo@@@@YAPAVCGlockAmmo@@PAV0@@Z 1003dc60 f i hl_wpn_glock.obj
 0001:0003ccb0       ?AddAmmo@CGlockAmmo@@EAEHPAVCBaseEntity@@@Z 1003dcb0 f i hl_wpn_glock.obj
 0001:0003cd10       ?Deploy@CGlock@@UAEHXZ     1003dd10 f   hl_wpn_glock.obj
 0001:0003cd30       ?GetItemInfo@CGlock@@UAEHPAUItemInfo@@@Z 1003dd30 f   hl_wpn_glock.obj
 0001:0003cda0       ?GlockFire@CGlock@@QAEXMMH@Z 1003dda0 f   hl_wpn_glock.obj
 0001:0003d030       ?Precache@CGlock@@UAEXXZ   1003e030 f   hl_wpn_glock.obj
 0001:0003d0d0       ?Precache@CGlockAmmo@@EAEXXZ 1003e0d0 f i hl_wpn_glock.obj
 0001:0003d0f0       ?PrimaryAttack@CGlock@@UAEXXZ 1003e0f0 f   hl_wpn_glock.obj
 0001:0003d110       ?Reload@CGlock@@UAEXXZ     1003e110 f   hl_wpn_glock.obj
 0001:0003d190       ?SecondaryAttack@CGlock@@UAEXXZ 1003e190 f   hl_wpn_glock.obj
 0001:0003d1b0       ?Spawn@CGlock@@UAEXXZ      1003e1b0 f   hl_wpn_glock.obj
 0001:0003d200       ?Spawn@CGlockAmmo@@EAEXXZ  1003e200 f i hl_wpn_glock.obj
 0001:0003d230       ?WeaponIdle@CGlock@@UAEXXZ 1003e230 f   hl_wpn_glock.obj
 0001:0003d350       _ammo_glockclip            1003e350 f   hl_wpn_glock.obj
 0001:0003d350       _ammo_9mmclip              1003e350 f   hl_wpn_glock.obj
 0001:0003d360       _weapon_glock              1003e360 f   hl_wpn_glock.obj
 0001:0003d360       _weapon_9mmhandgun         1003e360 f   hl_wpn_glock.obj
 0001:0003d370       ??$GetClassPtr@VCHgun@@@@YAPAVCHgun@@PAV0@@Z 1003e370 f i hornetgun.obj
 0001:0003d3d0       ?Deploy@CHgun@@UAEHXZ      1003e3d0 f   hornetgun.obj
 0001:0003d3f0       ?GetItemInfo@CHgun@@UAEHPAUItemInfo@@@Z 1003e3f0 f   hornetgun.obj
 0001:0003d460       ?Holster@CHgun@@UAEXH@Z    1003e460 f   hornetgun.obj
 0001:0003d4e0       ?Precache@CHgun@@UAEXXZ    1003e4e0 f   hornetgun.obj
 0001:0003d530       ?PrimaryAttack@CHgun@@UAEXXZ 1003e530 f   hornetgun.obj
 0001:0003d670       ?Reload@CHgun@@UAEXXZ      1003e670 f   hornetgun.obj
 0001:0003d6f0       ?SecondaryAttack@CHgun@@UAEXXZ 1003e6f0 f   hornetgun.obj
 0001:0003d810       ?Spawn@CHgun@@UAEXXZ       1003e810 f   hornetgun.obj
 0001:0003d860       ?WeaponIdle@CHgun@@UAEXXZ  1003e860 f   hornetgun.obj
 0001:0003d950       _weapon_hornetgun          1003e950 f   hornetgun.obj
 0001:0003d960       _CreateInterface           1003e960 f   interface.obj
 0001:0003d9d0       ??$GetClassPtr@VCMP5@@@@YAPAVCMP5@@PAV0@@Z 1003e9d0 f i mp5.obj
 0001:0003da30       ??$GetClassPtr@VCMP5AmmoClip@@@@YAPAVCMP5AmmoClip@@PAV0@@Z 1003ea30 f i mp5.obj
 0001:0003da80       ??$GetClassPtr@VCMP5AmmoGrenade@@@@YAPAVCMP5AmmoGrenade@@PAV0@@Z 1003ea80 f i mp5.obj
 0001:0003dad0       ??$GetClassPtr@VCMP5Chainammo@@@@YAPAVCMP5Chainammo@@PAV0@@Z 1003ead0 f i mp5.obj
 0001:0003db20       ?AddAmmo@CMP5AmmoClip@@EAEHPAVCBaseEntity@@@Z 1003eb20 f i mp5.obj
 0001:0003db80       ?AddAmmo@CMP5AmmoGrenade@@EAEHPAVCBaseEntity@@@Z 1003eb80 f i mp5.obj
 0001:0003dbe0       ?AddAmmo@CMP5Chainammo@@EAEHPAVCBaseEntity@@@Z 1003ebe0 f i mp5.obj
 0001:0003dc40       ?Deploy@CMP5@@UAEHXZ       1003ec40 f   mp5.obj
 0001:0003dc60       ?GetItemInfo@CMP5@@UAEHPAUItemInfo@@@Z 1003ec60 f   mp5.obj
 0001:0003dcd0       ?Precache@CMP5@@UAEXXZ     1003ecd0 f   mp5.obj
 0001:0003ddb0       ?Precache@CMP5AmmoClip@@EAEXXZ 1003edb0 f i mp5.obj
 0001:0003ddd0       ?Precache@CMP5AmmoGrenade@@EAEXXZ 1003edd0 f i mp5.obj
 0001:0003ddf0       ?Precache@CEgonAmmo@@EAEXXZ 1003edf0 f i egon.obj
 0001:0003ddf0       ?Precache@CMP5Chainammo@@EAEXXZ 1003edf0 f i mp5.obj
 0001:0003de10       ?PrimaryAttack@CMP5@@UAEXXZ 1003ee10 f   mp5.obj
 0001:0003e080       ?Reload@CMP5@@UAEXXZ       1003f080 f   mp5.obj
 0001:0003e0a0       ?SecondaryAmmoIndex@CMP5@@UAEHXZ 1003f0a0 f   mp5.obj
 0001:0003e0b0       ?SecondaryAttack@CMP5@@UAEXXZ 1003f0b0 f   mp5.obj
 0001:0003e330       ?Spawn@CMP5@@UAEXXZ        1003f330 f   mp5.obj
 0001:0003e380       ?Spawn@CMP5AmmoClip@@EAEXXZ 1003f380 f i mp5.obj
 0001:0003e3b0       ?Spawn@CMP5AmmoGrenade@@EAEXXZ 1003f3b0 f i mp5.obj
 0001:0003e3e0       ?Spawn@CEgonAmmo@@EAEXXZ   1003f3e0 f i egon.obj
 0001:0003e3e0       ?Spawn@CMP5Chainammo@@EAEXXZ 1003f3e0 f i mp5.obj
 0001:0003e410       ?WeaponIdle@CMP5@@UAEXXZ   1003f410 f   mp5.obj
 0001:0003e4a0       _ammo_9mmAR                1003f4a0 f   mp5.obj
 0001:0003e4a0       _ammo_mp5clip              1003f4a0 f   mp5.obj
 0001:0003e4b0       _ammo_9mmbox               1003f4b0 f   mp5.obj
 0001:0003e4c0       _ammo_ARgrenades           1003f4c0 f   mp5.obj
 0001:0003e4c0       _ammo_mp5grenades          1003f4c0 f   mp5.obj
 0001:0003e4d0       _weapon_9mmAR              1003f4d0 f   mp5.obj
 0001:0003e4d0       _weapon_mp5                1003f4d0 f   mp5.obj
 0001:0003e4e0       ??$GetClassPtr@VCPython@@@@YAPAVCPython@@PAV0@@Z 1003f4e0 f i python.obj
 0001:0003e540       ??$GetClassPtr@VCPythonAmmo@@@@YAPAVCPythonAmmo@@PAV0@@Z 1003f540 f i python.obj
 0001:0003e590       ?AddAmmo@CPythonAmmo@@EAEHPAVCBaseEntity@@@Z 1003f590 f i python.obj
 0001:0003e5f0       ?Deploy@CPython@@UAEHXZ    1003f5f0 f   python.obj
 0001:0003e650       ?GetItemInfo@CPython@@UAEHPAUItemInfo@@@Z 1003f650 f   python.obj
 0001:0003e6c0       ?Holster@CPython@@UAEXH@Z  1003f6c0 f   python.obj
 0001:0003e750       ?Precache@CPython@@UAEXXZ  1003f750 f   python.obj
 0001:0003e7d0       ?Precache@CPythonAmmo@@EAEXXZ 1003f7d0 f i python.obj
 0001:0003e7f0       ?PrimaryAttack@CPython@@UAEXXZ 1003f7f0 f   python.obj
 0001:0003ea60       ?Reload@CPython@@UAEXXZ    1003fa60 f   python.obj
 0001:0003eae0       ?SecondaryAttack@CPython@@UAEXXZ 1003fae0 f   python.obj
 0001:0003eb80       ?Spawn@CPython@@UAEXXZ     1003fb80 f   python.obj
 0001:0003ebd0       ?Spawn@CPythonAmmo@@EAEXXZ 1003fbd0 f i python.obj
 0001:0003ec00       ?WeaponIdle@CPython@@UAEXXZ 1003fc00 f   python.obj
 0001:0003ed90       _ammo_357                  1003fd90 f   python.obj
 0001:0003eda0       _weapon_python             1003fda0 f   python.obj
 0001:0003eda0       _weapon_357                1003fda0 f   python.obj
 0001:0003edb0       ??$GetClassPtr@VCRpg@@@@YAPAVCRpg@@PAV0@@Z 1003fdb0 f i rpg.obj
 0001:0003ee10       ??$GetClassPtr@VCRpgAmmo@@@@YAPAVCRpgAmmo@@PAV0@@Z 1003fe10 f i rpg.obj
 0001:0003ee60       ?AddAmmo@CRpgAmmo@@EAEHPAVCBaseEntity@@@Z 1003fe60 f i rpg.obj
 0001:0003eed0       ?CanHolster@CRpg@@UAEHXZ   1003fed0 f   rpg.obj
 0001:0003eef0       ?Deploy@CRpg@@UAEHXZ       1003fef0 f   rpg.obj
 0001:0003ef30       ?GetItemInfo@CRpg@@UAEHPAUItemInfo@@@Z 1003ff30 f   rpg.obj
 0001:0003efa0       ?Holster@CRpg@@UAEXH@Z     1003ffa0 f   rpg.obj
 0001:0003eff0       ?Precache@CRpg@@UAEXXZ     1003fff0 f   rpg.obj
 0001:0003f070       ?Precache@CRpgAmmo@@EAEXXZ 10040070 f i rpg.obj
 0001:0003f090       ?PrimaryAttack@CRpg@@UAEXXZ 10040090 f   rpg.obj
 0001:0003f170       ?Reload@CRpg@@UAEXXZ       10040170 f   rpg.obj
 0001:0003f240       ?SecondaryAttack@CRpg@@UAEXXZ 10040240 f   rpg.obj
 0001:0003f290       ?Spawn@CRpg@@UAEXXZ        10040290 f   rpg.obj
 0001:0003f2e0       ?Spawn@CRpgAmmo@@EAEXXZ    100402e0 f i rpg.obj
 0001:0003f310       ?WeaponIdle@CRpg@@UAEXXZ   10040310 f   rpg.obj
 0001:0003f430       _ammo_rpgclip              10040430 f   rpg.obj
 0001:0003f440       _weapon_rpg                10040440 f   rpg.obj
 0001:0003f450       ??$GetClassPtr@VCSatchel@@@@YAPAVCSatchel@@PAV0@@Z 10040450 f i satchel.obj
 0001:0003f4b0       ??$GetClassPtr@VCSatchelCharge@@@@YAPAVCSatchelCharge@@PAV0@@Z 100404b0 f i satchel.obj
 0001:0003f510       ?AddDuplicate@CSatchel@@UAEHPAVCBasePlayerItem@@@Z 10040510 f   satchel.obj
 0001:0003f540       ?AddToPlayer@CSatchel@@UAEHPAVCBasePlayer@@@Z 10040540 f   satchel.obj
 0001:0003f590       ?PrimaryAmmoIndex@CBasePlayerWeapon@@UAEHXZ 10040590 f i hl_baseentity.obj
 0001:0003f590       ?BloodColor@CBaseEntity@@UAEHXZ 10040590 f i crossbow.obj
 0001:0003f590       ?BloodColor@CGrenade@@UAEHXZ 10040590 f i satchel.obj
 0001:0003f590       ?SecondaryAmmoIndex@CBasePlayerWeapon@@UAEHXZ 10040590 f i hl_baseentity.obj
 0001:0003f5a0       ?BounceSound@CSatchelCharge@@EAEXXZ 100405a0 f   satchel.obj
 0001:0003f630       ?Deploy@CSatchel@@UAEHXZ   10040630 f   satchel.obj
 0001:0003f6f0       ?GetItemInfo@CSatchel@@UAEHPAUItemInfo@@@Z 100406f0 f   satchel.obj
 0001:0003f760       ?Holster@CSatchel@@UAEXH@Z 10040760 f   satchel.obj
 0001:0003f830       ?CanDeploy@CSatchel@@UAEHXZ 10040830 f   satchel.obj
 0001:0003f830       ?IsUseable@CSatchel@@UAEHXZ 10040830 f   satchel.obj
 0001:0003f860       ?Precache@CSatchel@@UAEXXZ 10040860 f   satchel.obj
 0001:0003f8b0       ?Precache@CSatchelCharge@@EAEXXZ 100408b0 f   satchel.obj
 0001:0003f8e0       ?PrimaryAttack@CSatchel@@UAEXXZ 100408e0 f   satchel.obj
 0001:0003fa60       ?SatchelSlide@CSatchelCharge@@AAEXPAVCBaseEntity@@@Z 10040a60 f   satchel.obj
 0001:0003fbf0       ?SatchelThink@CSatchelCharge@@AAEXXZ 10040bf0 f   satchel.obj
 0001:0003fd40       ?SecondaryAttack@CSatchel@@UAEXXZ 10040d40 f   satchel.obj
 0001:0003fd50       ?Spawn@CSatchel@@UAEXXZ    10040d50 f   satchel.obj
 0001:0003fd90       ?Spawn@CSatchelCharge@@EAEXXZ 10040d90 f   satchel.obj
 0001:0003fe90       ?Throw@CSatchel@@QAEXXZ    10040e90 f   satchel.obj
 0001:0003ff40       ?WeaponIdle@CSatchel@@UAEXXZ 10040f40 f   satchel.obj
 0001:000400d0       _monster_satchel           100410d0 f   satchel.obj
 0001:000400e0       _weapon_satchel            100410e0 f   satchel.obj
 0001:000400f0       ??$GetClassPtr@VCShotgun@@@@YAPAVCShotgun@@PAV0@@Z 100410f0 f i shotgun.obj
 0001:00040150       ??$GetClassPtr@VCShotgunAmmo@@@@YAPAVCShotgunAmmo@@PAV0@@Z 10041150 f i shotgun.obj
 0001:000401a0       ?AddAmmo@CShotgunAmmo@@EAEHPAVCBaseEntity@@@Z 100411a0 f i shotgun.obj
 0001:00040200       ?Deploy@CShotgun@@UAEHXZ   10041200 f   shotgun.obj
 0001:00040220       ?GetItemInfo@CShotgun@@UAEHPAUItemInfo@@@Z 10041220 f   shotgun.obj
 0001:00040290       ?Precache@CShotgun@@UAEXXZ 10041290 f   shotgun.obj
 0001:00040340       ?Precache@CShotgunAmmo@@EAEXXZ 10041340 f i shotgun.obj
 0001:00040360       ?PrimaryAttack@CShotgun@@UAEXXZ 10041360 f   shotgun.obj
 0001:00040660       ?Reload@CShotgun@@UAEXXZ   10041660 f   shotgun.obj
 0001:00040890       ?SecondaryAttack@CShotgun@@UAEXXZ 10041890 f   shotgun.obj
 0001:00040b80       ?Spawn@CShotgun@@UAEXXZ    10041b80 f   shotgun.obj
 0001:00040bc0       ?Spawn@CShotgunAmmo@@EAEXXZ 10041bc0 f i shotgun.obj
 0001:00040bf0       ?WeaponIdle@CShotgun@@UAEXXZ 10041bf0 f   shotgun.obj
 0001:00040e40       _ammo_buckshot             10041e40 f   shotgun.obj
 0001:00040e50       _weapon_shotgun            10041e50 f   shotgun.obj
 0001:00040e60       ??$GetClassPtr@VCSqueak@@@@YAPAVCSqueak@@PAV0@@Z 10041e60 f i squeakgrenade.obj
 0001:00040ec0       ?Deploy@CSqueak@@UAEHXZ    10041ec0 f   squeakgrenade.obj
 0001:00040f60       ?GetItemInfo@CSqueak@@UAEHPAUItemInfo@@@Z 10041f60 f   squeakgrenade.obj
 0001:00040fd0       ?Holster@CSqueak@@UAEXH@Z  10041fd0 f   squeakgrenade.obj
 0001:000410a0       ?Precache@CSqueak@@UAEXXZ  100420a0 f   squeakgrenade.obj
 0001:00041100       ?PrimaryAttack@CSqueak@@UAEXXZ 10042100 f   squeakgrenade.obj
 0001:00041390       ?Spawn@CSqueak@@UAEXXZ     10042390 f   squeakgrenade.obj
 0001:00041400       ?WeaponIdle@CSqueak@@UAEXXZ 10042400 f   squeakgrenade.obj
 0001:00041580       _weapon_snark              10042580 f   squeakgrenade.obj
 0001:00041590       ??$GetClassPtr@VCTripmine@@@@YAPAVCTripmine@@PAV0@@Z 10042590 f i tripmine.obj
 0001:000415f0       ?Deploy@CTripmine@@UAEHXZ  100425f0 f   tripmine.obj
 0001:00041610       ?GetItemInfo@CTripmine@@UAEHPAUItemInfo@@@Z 10042610 f   tripmine.obj
 0001:00041680       ?Holster@CTripmine@@UAEXH@Z 10042680 f   tripmine.obj
 0001:00041740       ?Precache@CTripmine@@UAEXXZ 10042740 f   tripmine.obj
 0001:00041780       ?PrimaryAttack@CTripmine@@UAEXXZ 10042780 f   tripmine.obj
 0001:00041a10       ?Spawn@CTripmine@@UAEXXZ   10042a10 f   tripmine.obj
 0001:00041ad0       ?WeaponIdle@CTripmine@@UAEXXZ 10042ad0 f   tripmine.obj
 0001:00041bf0       _weapon_tripmine           10042bf0 f   tripmine.obj
 0001:00041c00       ??0ScrollBar2@vgui@@QAE@HHHH_N@Z 10042c00 f   vgui_scrollbar2.obj
 0001:00041e50       ??0ScrollBarButton@@QAE@PBDHHHH@Z 10042e50 f i vgui_scrollbar2.obj
 0001:00041ef0       ?actionPerformed@FooDefaultButtonSignal@?A0xd2ac09cc@@UAEXPAVPanel@vgui@@@Z 10042ef0 f i vgui_scrollbar2.obj
 0001:00041f10       ?addIntChangeSignal@ScrollBar2@vgui@@UAEXPAVIntChangeSignal@2@@Z 10042f10 f   vgui_scrollbar2.obj
 0001:00041f90       ?doButtonPressed@ScrollBar2@vgui@@UAEXH@Z 10042f90 f   vgui_scrollbar2.obj
 0001:00041fe0       ?fireIntChangeSignal@ScrollBar2@vgui@@UAEXXZ 10042fe0 f   vgui_scrollbar2.obj
 0001:00042040       ?getButton@ScrollBar2@vgui@@UAEPAVButton@2@H@Z 10043040 f   vgui_scrollbar2.obj
 0001:00042060       ?getSlider@ScrollBar2@vgui@@UAEPAVSlider2@2@XZ 10043060 f   vgui_scrollbar2.obj
 0001:00042070       ?getValue@ScrollBar2@vgui@@UAEHXZ 10043070 f   vgui_scrollbar2.obj
 0001:00042080       ?hasFullRange@ScrollBar2@vgui@@UAE_NXZ 10043080 f   vgui_scrollbar2.obj
 0001:00042090       ?intChanged@FooDefaultScrollBarIntChangeSignal@?A0xd2ac09cc@@UAEXHPAVPanel@vgui@@@Z 10043090 f i vgui_scrollbar2.obj
 0001:000420a0       ?isVertical@ScrollBar2@vgui@@UAE_NXZ 100430a0 f   vgui_scrollbar2.obj
 0001:000420b0       ?paintBackground@ScrollBarButton@@UAEXXZ 100430b0 f i vgui_scrollbar2.obj
 0001:00042100       ?setButton@ScrollBar2@vgui@@UAEXPAVButton@2@H@Z 10043100 f   vgui_scrollbar2.obj
 0001:00042170       ?setButtonPressedScrollValue@ScrollBar2@vgui@@UAEXH@Z 10043170 f   vgui_scrollbar2.obj
 0001:00042180       ?setRange@ScrollBar2@vgui@@UAEXHH@Z 10043180 f   vgui_scrollbar2.obj
 0001:000421a0       ?setRangeWindow@ScrollBar2@vgui@@UAEXH@Z 100431a0 f   vgui_scrollbar2.obj
 0001:000421c0       ?setRangeWindowEnabled@ScrollBar2@vgui@@UAEX_N@Z 100431c0 f   vgui_scrollbar2.obj
 0001:000421e0       ?setSize@ScrollBar2@vgui@@UAEXHH@Z 100431e0 f   vgui_scrollbar2.obj
 0001:000422e0       ?setSlider@ScrollBar2@vgui@@UAEXPAVSlider2@2@@Z 100432e0 f   vgui_scrollbar2.obj
 0001:00042350       ?setValue@ScrollBar2@vgui@@UAEXH@Z 10043350 f   vgui_scrollbar2.obj
 0001:00042370       ?validate@ScrollBar2@vgui@@UAEXXZ 10043370 f   vgui_scrollbar2.obj
 0001:00042410       ??0Slider2@vgui@@QAE@HHHH_N@Z 10043410 f   vgui_slider2.obj
 0001:000424e0       ?addIntChangeSignal@Slider2@vgui@@UAEXPAVIntChangeSignal@2@@Z 100434e0 f   vgui_slider2.obj
 0001:00042530       ?cursorMoved@FooDefaultSliderSignal@?A0x911bd135@@UAEXHHPAVPanel@vgui@@@Z 10043530 f i vgui_slider2.obj
 0001:00042540       ?fireIntChangeSignal@Slider2@vgui@@MAEXXZ 10043540 f   vgui_slider2.obj
 0001:00042590       ?getNobPos@Slider2@vgui@@UAEXAAH0@Z 10043590 f   vgui_slider2.obj
 0001:000425b0       ?getRange@Slider2@vgui@@UAEXAAH0@Z 100435b0 f   vgui_slider2.obj
 0001:000425d0       ?getValue@Slider2@vgui@@UAEHXZ 100435d0 f   vgui_slider2.obj
 0001:000425e0       ?hasFullRange@Slider2@vgui@@UAE_NXZ 100435e0 f   vgui_slider2.obj
 0001:00042680       ?isVertical@Slider2@vgui@@UAE_NXZ 10043680 f   vgui_slider2.obj
 0001:00042690       ?mousePressed@FooDefaultSliderSignal@?A0x911bd135@@UAEXW4MouseCode@vgui@@PAVPanel@4@@Z 10043690 f i vgui_slider2.obj
 0001:000426a0       ?mouseReleased@FooDefaultSliderSignal@?A0x911bd135@@UAEXW4MouseCode@vgui@@PAVPanel@4@@Z 100436a0 f i vgui_slider2.obj
 0001:000426b0       ?paintBackground@Slider2@vgui@@MAEXXZ 100436b0 f   vgui_slider2.obj
 0001:00042850       ?privateCursorMoved@Slider2@vgui@@UAEXHHPAVPanel@2@@Z 10043850 f   vgui_slider2.obj
 0001:00042940       ?privateMousePressed@Slider2@vgui@@UAEXW4MouseCode@2@PAVPanel@2@@Z 10043940 f   vgui_slider2.obj
 0001:000429e0       ?privateMouseReleased@Slider2@vgui@@UAEXW4MouseCode@2@PAVPanel@2@@Z 100439e0 f   vgui_slider2.obj
 0001:00042a00       ?recomputeNobPosFromValue@Slider2@vgui@@EAEXXZ 10043a00 f   vgui_slider2.obj
 0001:00042b00       ?recomputeValueFromNobPos@Slider2@vgui@@EAEXXZ 10043b00 f   vgui_slider2.obj
 0001:00042be0       ?setButtonOffset@Slider2@vgui@@UAEXH@Z 10043be0 f   vgui_slider2.obj
 0001:00042bf0       ?setRange@Slider2@vgui@@UAEXHH@Z 10043bf0 f   vgui_slider2.obj
 0001:00042c10       ?setRangeWindow@Slider2@vgui@@UAEXH@Z 10043c10 f   vgui_slider2.obj
 0001:00042c20       ?setRangeWindowEnabled@Slider2@vgui@@UAEX_N@Z 10043c20 f   vgui_slider2.obj
 0001:00042c30       ?setSize@Slider2@vgui@@UAEXHH@Z 10043c30 f   vgui_slider2.obj
 0001:00042c50       ?setValue@Slider2@vgui@@UAEXH@Z 10043c50 f   vgui_slider2.obj
 0001:00042ca0       ??0CVoiceBanMgr@@QAE@XZ    10043ca0 f   voice_banmgr.obj
 0001:00042cb0       ??1CVoiceBanMgr@@QAE@XZ    10043cb0 f   voice_banmgr.obj
 0001:00042cc0       ?AddBannedPlayer@CVoiceBanMgr@@IAEPAVBannedPlayer@1@QBD@Z 10043cc0 f   voice_banmgr.obj
 0001:00042d20       ?Clear@CVoiceBanMgr@@IAEXXZ 10043d20 f   voice_banmgr.obj
 0001:00042d40       ?ForEachBannedPlayer@CVoiceBanMgr@@QAEXP6AXQAD@Z@Z 10043d40 f   voice_banmgr.obj
 0001:00042d90       ?GetPlayerBan@CVoiceBanMgr@@QAE_NQBD@Z 10043d90 f   voice_banmgr.obj
 0001:00042db0       ?HashPlayerID@@YAEQBD@Z    10043db0 f   voice_banmgr.obj
 0001:00042de0       ?Init@CVoiceBanMgr@@QAE_NPBD@Z 10043de0 f   voice_banmgr.obj
 0001:00042ec0       ?InternalFindPlayerSquelch@CVoiceBanMgr@@IAEPAVBannedPlayer@1@QBD@Z 10043ec0 f   voice_banmgr.obj
 0001:00042f20       ?SaveState@CVoiceBanMgr@@QAEXPBD@Z 10043f20 f   voice_banmgr.obj
 0001:00042ff0       ?SetPlayerBan@CVoiceBanMgr@@QAEXQBD_N@Z 10043ff0 f   voice_banmgr.obj
 0001:00043050       ?Term@CVoiceBanMgr@@QAEXXZ 10044050 f   voice_banmgr.obj
 0001:000430a0       ??0CVoiceStatus@@QAE@XZ    100440a0 f   voice_status.obj
 0001:000431c0       ??1CVoiceStatus@@UAE@XZ    100441c0 f   voice_status.obj
 0001:000432c0       ??_ECVoiceStatus@@UAEPAXI@Z 100442c0 f i voice_status.obj
 0001:000432c0       ??_GCVoiceStatus@@UAEPAXI@Z 100442c0 f i voice_status.obj
 0001:000432f0       ?CreateEntities@CVoiceStatus@@QAEXXZ 100442f0 f   voice_status.obj
 0001:000434a0       ?FindVoiceLabel@CVoiceStatus@@QAEPAVCVoiceLabel@@H@Z 100444a0 f   voice_status.obj
 0001:000434e0       ?ForEachBannedPlayer@@YAXQAD@Z 100444e0 f   voice_status.obj
 0001:000435a0       ?Frame@CVoiceStatus@@QAEXN@Z 100445a0 f   voice_status.obj
 0001:00043650       ?FreeBitmaps@CVoiceStatus@@QAEXXZ 10044650 f   voice_status.obj
 0001:00043750       ?GetClientVoiceMgr@@YAPAVCVoiceStatus@@XZ 10044750 f   voice_status.obj
 0001:00043760       ?GetFreeVoiceLabel@CVoiceStatus@@QAEPAVCVoiceLabel@@XZ 10044760 f   voice_status.obj
 0001:00043770       ?HandleReqStateMsg@CVoiceStatus@@QAEXHPAX@Z 10044770 f   voice_status.obj
 0001:000437c0       ?HandleVoiceMaskMsg@CVoiceStatus@@QAEXHPAX@Z 100447c0 f   voice_status.obj
 0001:00043890       ?Init@CVoiceStatus@@UAEHPAVIVoiceStatusHelper@@PAPAVPanel@vgui@@@Z 10044890 f   voice_status.obj
 0001:00043b20       ?IsInSquelchMode@CVoiceStatus@@QAE_NXZ 10044b20 f   voice_status.obj
 0001:00043b30       ?IsPlayerBlocked@CVoiceStatus@@QAE_NH@Z 10044b30 f   voice_status.obj
 0001:00043b90       ?RepositionLabels@CVoiceStatus@@QAEXXZ 10044b90 f   voice_status.obj
 0001:00043dd0       ?SetPlayerBlockedState@CVoiceStatus@@QAEXH_N@Z 10044dd0 f   voice_status.obj
 0001:00043f00       ?ShowBannedCallback@@YAXXZ 10044f00 f   voice_status.obj
 0001:00043f50       ?StartSquelchMode@CVoiceStatus@@QAEXXZ 10044f50 f   voice_status.obj
 0001:00043f70       ?StopSquelchMode@CVoiceStatus@@QAEXXZ 10044f70 f   voice_status.obj
 0001:00043f90       ?UpdateBanButton@CVoiceStatus@@QAEXH@Z 10044f90 f   voice_status.obj
 0001:000440f0       ?UpdateServerState@CVoiceStatus@@QAEX_N@Z 100450f0 f   voice_status.obj
 0001:000443e0       ?UpdateSpeakerImage@CVoiceStatus@@QAEXPAVLabel@vgui@@H@Z 100453e0 f   voice_status.obj
 0001:00044400       ?UpdateSpeakerStatus@CVoiceStatus@@QAEXHH@Z 10045400 f   voice_status.obj
 0001:00044680       ?VidInit@CVoiceStatus@@UAEHXZ 10045680 f   voice_status.obj
 0001:00044980       ?__MsgFunc_ReqState@@YAHPBDHPAX@Z 10045980 f   voice_status.obj
 0001:000449a0       ?__MsgFunc_VoiceMask@@YAHPBDHPAX@Z 100459a0 f   voice_status.obj
 0001:000449c0       ?setColor@Scheme@vgui@@UAEXW4SchemeColor@12@HHHH@Z 100459c0 f   vgui:vgui.dll
 0001:000449c6       ?getColor@Scheme@vgui@@UAEXW4SchemeColor@12@AAH111@Z 100459c6 f   vgui:vgui.dll
 0001:000449cc       ?setFont@Scheme@vgui@@UAEXW4SchemeFont@12@PAVFont@2@@Z 100459cc f   vgui:vgui.dll
 0001:000449d2       ?getFont@Scheme@vgui@@UAEPAVFont@2@W4SchemeFont@12@@Z 100459d2 f   vgui:vgui.dll
 0001:000449d8       ?setCursor@Scheme@vgui@@UAEXW4SchemeCursor@12@PAVCursor@2@@Z 100459d8 f   vgui:vgui.dll
 0001:000449de       ?getCursor@Scheme@vgui@@UAEPAVCursor@2@W4SchemeCursor@12@@Z 100459de f   vgui:vgui.dll
 0001:000449e4       ??0Color@vgui@@QAE@HHHH@Z  100459e4 f   vgui:vgui.dll
 0001:000449ea       ?init@Color@vgui@@EAEXXZ   100459ea f   vgui:vgui.dll
 0001:000449f0       ?setColor@Color@vgui@@UAEXHHHH@Z 100459f0 f   vgui:vgui.dll
 0001:000449f6       ?setColor@Color@vgui@@UAEXW4SchemeColor@Scheme@2@@Z 100459f6 f   vgui:vgui.dll
 0001:000449fc       ?getColor@Color@vgui@@UAEXAAH000@Z 100459fc f   vgui:vgui.dll
 0001:00044a02       ?getColor@Color@vgui@@UAEXAAW4SchemeColor@Scheme@2@@Z 10045a02 f   vgui:vgui.dll
 0001:00044a08       ??AColor@vgui@@UAEHH@Z     10045a08 f   vgui:vgui.dll
 0001:00044a0e       ??0Panel@vgui@@QAE@XZ      10045a0e f   vgui:vgui.dll
 0001:00044a14       ??0Panel@vgui@@QAE@HHHH@Z  10045a14 f   vgui:vgui.dll
 0001:00044a1a       ?setPos@Panel@vgui@@UAEXHH@Z 10045a1a f   vgui:vgui.dll
 0001:00044a20       ?getPos@Panel@vgui@@UAEXAAH0@Z 10045a20 f   vgui:vgui.dll
 0001:00044a26       ?setSize@Panel@vgui@@UAEXHH@Z 10045a26 f   vgui:vgui.dll
 0001:00044a2c       ?getSize@Panel@vgui@@UAEXAAH0@Z 10045a2c f   vgui:vgui.dll
 0001:00044a32       ?setBounds@Panel@vgui@@UAEXHHHH@Z 10045a32 f   vgui:vgui.dll
 0001:00044a38       ?getBounds@Panel@vgui@@UAEXAAH000@Z 10045a38 f   vgui:vgui.dll
 0001:00044a3e       ?getWide@Panel@vgui@@UAEHXZ 10045a3e f   vgui:vgui.dll
 0001:00044a44       ?getTall@Panel@vgui@@UAEHXZ 10045a44 f   vgui:vgui.dll
 0001:00044a4a       ?getParent@Panel@vgui@@UAEPAV12@XZ 10045a4a f   vgui:vgui.dll
 0001:00044a50       ?setVisible@Panel@vgui@@UAEX_N@Z 10045a50 f   vgui:vgui.dll
 0001:00044a56       ?isVisible@Panel@vgui@@UAE_NXZ 10045a56 f   vgui:vgui.dll
 0001:00044a5c       ?isVisibleUp@Panel@vgui@@UAE_NXZ 10045a5c f   vgui:vgui.dll
 0001:00044a62       ?repaint@Panel@vgui@@UAEXXZ 10045a62 f   vgui:vgui.dll
 0001:00044a68       ?repaintAll@Panel@vgui@@UAEXXZ 10045a68 f   vgui:vgui.dll
 0001:00044a6e       ?getAbsExtents@Panel@vgui@@UAEXAAH000@Z 10045a6e f   vgui:vgui.dll
 0001:00044a74       ?getClipRect@Panel@vgui@@UAEXAAH000@Z 10045a74 f   vgui:vgui.dll
 0001:00044a7a       ?setParent@Panel@vgui@@UAEXPAV12@@Z 10045a7a f   vgui:vgui.dll
 0001:00044a80       ?addChild@Panel@vgui@@UAEXPAV12@@Z 10045a80 f   vgui:vgui.dll
 0001:00044a86       ?insertChildAt@Panel@vgui@@UAEXPAV12@H@Z 10045a86 f   vgui:vgui.dll
 0001:00044a8c       ?removeChild@Panel@vgui@@UAEXPAV12@@Z 10045a8c f   vgui:vgui.dll
 0001:00044a92       ?wasMousePressed@Panel@vgui@@UAE_NW4MouseCode@2@@Z 10045a92 f   vgui:vgui.dll
 0001:00044a98       ?wasMouseDoublePressed@Panel@vgui@@UAE_NW4MouseCode@2@@Z 10045a98 f   vgui:vgui.dll
 0001:00044a9e       ?isMouseDown@Panel@vgui@@UAE_NW4MouseCode@2@@Z 10045a9e f   vgui:vgui.dll
 0001:00044aa4       ?wasMouseReleased@Panel@vgui@@UAE_NW4MouseCode@2@@Z 10045aa4 f   vgui:vgui.dll
 0001:00044aaa       ?wasKeyPressed@Panel@vgui@@UAE_NW4KeyCode@2@@Z 10045aaa f   vgui:vgui.dll
 0001:00044ab0       ?isKeyDown@Panel@vgui@@UAE_NW4KeyCode@2@@Z 10045ab0 f   vgui:vgui.dll
 0001:00044ab6       ?wasKeyTyped@Panel@vgui@@UAE_NW4KeyCode@2@@Z 10045ab6 f   vgui:vgui.dll
 0001:00044abc       ?wasKeyReleased@Panel@vgui@@UAE_NW4KeyCode@2@@Z 10045abc f   vgui:vgui.dll
 0001:00044ac2       ?addInputSignal@Panel@vgui@@UAEXPAVInputSignal@2@@Z 10045ac2 f   vgui:vgui.dll
 0001:00044ac8       ?removeInputSignal@Panel@vgui@@UAEXPAVInputSignal@2@@Z 10045ac8 f   vgui:vgui.dll
 0001:00044ace       ?addRepaintSignal@Panel@vgui@@UAEXPAVRepaintSignal@2@@Z 10045ace f   vgui:vgui.dll
 0001:00044ad4       ?removeRepaintSignal@Panel@vgui@@UAEXPAVRepaintSignal@2@@Z 10045ad4 f   vgui:vgui.dll
 0001:00044ada       ?isWithin@Panel@vgui@@UAE_NHH@Z 10045ada f   vgui:vgui.dll
 0001:00044ae0       ?isWithinTraverse@Panel@vgui@@UAEPAV12@HH@Z 10045ae0 f   vgui:vgui.dll
 0001:00044ae6       ?localToScreen@Panel@vgui@@UAEXAAH0@Z 10045ae6 f   vgui:vgui.dll
 0001:00044aec       ?screenToLocal@Panel@vgui@@UAEXAAH0@Z 10045aec f   vgui:vgui.dll
 0001:00044af2       ?setCursor@Panel@vgui@@UAEXPAVCursor@2@@Z 10045af2 f   vgui:vgui.dll
 0001:00044af8       ?setCursor@Panel@vgui@@UAEXW4SchemeCursor@Scheme@2@@Z 10045af8 f   vgui:vgui.dll
 0001:00044afe       ?getCursor@Panel@vgui@@UAEPAVCursor@2@XZ 10045afe f   vgui:vgui.dll
 0001:00044b04       ?setMinimumSize@Panel@vgui@@UAEXHH@Z 10045b04 f   vgui:vgui.dll
 0001:00044b0a       ?getMinimumSize@Panel@vgui@@UAEXAAH0@Z 10045b0a f   vgui:vgui.dll
 0001:00044b10       ?requestFocus@Panel@vgui@@UAEXXZ 10045b10 f   vgui:vgui.dll
 0001:00044b16       ?hasFocus@Panel@vgui@@UAE_NXZ 10045b16 f   vgui:vgui.dll
 0001:00044b1c       ?getChildCount@Panel@vgui@@UAEHXZ 10045b1c f   vgui:vgui.dll
 0001:00044b22       ?getChild@Panel@vgui@@UAEPAV12@H@Z 10045b22 f   vgui:vgui.dll
 0001:00044b28       ?setLayout@Panel@vgui@@UAEXPAVLayout@2@@Z 10045b28 f   vgui:vgui.dll
 0001:00044b2e       ?invalidateLayout@Panel@vgui@@UAEX_N@Z 10045b2e f   vgui:vgui.dll
 0001:00044b34       ?setFocusNavGroup@Panel@vgui@@UAEXPAVFocusNavGroup@2@@Z 10045b34 f   vgui:vgui.dll
 0001:00044b3a       ?requestFocusPrev@Panel@vgui@@UAEXXZ 10045b3a f   vgui:vgui.dll
 0001:00044b40       ?requestFocusNext@Panel@vgui@@UAEXXZ 10045b40 f   vgui:vgui.dll
 0001:00044b46       ?addFocusChangeSignal@Panel@vgui@@UAEXPAVFocusChangeSignal@2@@Z 10045b46 f   vgui:vgui.dll
 0001:00044b4c       ?isAutoFocusNavEnabled@Panel@vgui@@UAE_NXZ 10045b4c f   vgui:vgui.dll
 0001:00044b52       ?setAutoFocusNavEnabled@Panel@vgui@@UAEX_N@Z 10045b52 f   vgui:vgui.dll
 0001:00044b58       ?setBorder@Panel@vgui@@UAEXPAVBorder@2@@Z 10045b58 f   vgui:vgui.dll
 0001:00044b5e       ?setPaintBorderEnabled@Panel@vgui@@UAEX_N@Z 10045b5e f   vgui:vgui.dll
 0001:00044b64       ?setPaintBackgroundEnabled@Panel@vgui@@UAEX_N@Z 10045b64 f   vgui:vgui.dll
 0001:00044b6a       ?setPaintEnabled@Panel@vgui@@UAEX_N@Z 10045b6a f   vgui:vgui.dll
 0001:00044b70       ?getInset@Panel@vgui@@UAEXAAH000@Z 10045b70 f   vgui:vgui.dll
 0001:00044b76       ?getPaintSize@Panel@vgui@@UAEXAAH0@Z 10045b76 f   vgui:vgui.dll
 0001:00044b7c       ?setPreferredSize@Panel@vgui@@UAEXHH@Z 10045b7c f   vgui:vgui.dll
 0001:00044b82       ?getPreferredSize@Panel@vgui@@UAEXAAH0@Z 10045b82 f   vgui:vgui.dll
 0001:00044b88       ?getSurfaceBase@Panel@vgui@@UAEPAVSurfaceBase@2@XZ 10045b88 f   vgui:vgui.dll
 0001:00044b8e       ?isEnabled@Panel@vgui@@UAE_NXZ 10045b8e f   vgui:vgui.dll
 0001:00044b94       ?setEnabled@Panel@vgui@@UAEX_N@Z 10045b94 f   vgui:vgui.dll
 0001:00044b9a       ?setBuildGroup@Panel@vgui@@UAEXPAVBuildGroup@2@PBD@Z 10045b9a f   vgui:vgui.dll
 0001:00044ba0       ?isBuildGroupEnabled@Panel@vgui@@UAE_NXZ 10045ba0 f   vgui:vgui.dll
 0001:00044ba6       ?removeAllChildren@Panel@vgui@@UAEXXZ 10045ba6 f   vgui:vgui.dll
 0001:00044bac       ?repaintParent@Panel@vgui@@UAEXXZ 10045bac f   vgui:vgui.dll
 0001:00044bb2       ?createPropertyPanel@Panel@vgui@@UAEPAV12@XZ 10045bb2 f   vgui:vgui.dll
 0001:00044bb8       ?getPersistanceText@Panel@vgui@@UAEXPADH@Z 10045bb8 f   vgui:vgui.dll
 0001:00044bbe       ?applyPersistanceText@Panel@vgui@@UAEXPBD@Z 10045bbe f   vgui:vgui.dll
 0001:00044bc4       ?setFgColor@Panel@vgui@@UAEXW4SchemeColor@Scheme@2@@Z 10045bc4 f   vgui:vgui.dll
 0001:00044bca       ?setBgColor@Panel@vgui@@UAEXW4SchemeColor@Scheme@2@@Z 10045bca f   vgui:vgui.dll
 0001:00044bd0       ?setFgColor@Panel@vgui@@UAEXHHHH@Z 10045bd0 f   vgui:vgui.dll
 0001:00044bd6       ?setBgColor@Panel@vgui@@UAEXHHHH@Z 10045bd6 f   vgui:vgui.dll
 0001:00044bdc       ?getFgColor@Panel@vgui@@UAEXAAH000@Z 10045bdc f   vgui:vgui.dll
 0001:00044be2       ?getBgColor@Panel@vgui@@UAEXAAH000@Z 10045be2 f   vgui:vgui.dll
 0001:00044be8       ?setBgColor@Panel@vgui@@UAEXVColor@2@@Z 10045be8 f   vgui:vgui.dll
 0001:00044bee       ?setFgColor@Panel@vgui@@UAEXVColor@2@@Z 10045bee f   vgui:vgui.dll
 0001:00044bf4       ?getBgColor@Panel@vgui@@UAEXAAVColor@2@@Z 10045bf4 f   vgui:vgui.dll
 0001:00044bfa       ?getFgColor@Panel@vgui@@UAEXAAVColor@2@@Z 10045bfa f   vgui:vgui.dll
 0001:00044c00       ?setAsMouseCapture@Panel@vgui@@UAEX_N@Z 10045c00 f   vgui:vgui.dll
 0001:00044c06       ?setAsMouseArena@Panel@vgui@@UAEX_N@Z 10045c06 f   vgui:vgui.dll
 0001:00044c0c       ?getApp@Panel@vgui@@UAEPAVApp@2@XZ 10045c0c f   vgui:vgui.dll
 0001:00044c12       ?getVirtualSize@Panel@vgui@@UAEXAAH0@Z 10045c12 f   vgui:vgui.dll
 0001:00044c18       ?setLayoutInfo@Panel@vgui@@UAEXPAVLayoutInfo@2@@Z 10045c18 f   vgui:vgui.dll
 0001:00044c1e       ?getLayoutInfo@Panel@vgui@@UAEPAVLayoutInfo@2@XZ 10045c1e f   vgui:vgui.dll
 0001:00044c24       ?isCursorNone@Panel@vgui@@UAE_NXZ 10045c24 f   vgui:vgui.dll
 0001:00044c2a       ?solveTraverse@Panel@vgui@@UAEXXZ 10045c2a f   vgui:vgui.dll
 0001:00044c30       ?paintTraverse@Panel@vgui@@UAEXXZ 10045c30 f   vgui:vgui.dll
 0001:00044c36       ?setSurfaceBaseTraverse@Panel@vgui@@UAEXPAVSurfaceBase@2@@Z 10045c36 f   vgui:vgui.dll
 0001:00044c3c       ?performLayout@Panel@vgui@@MAEXXZ 10045c3c f   vgui:vgui.dll
 0001:00044c42       ?internalPerformLayout@Panel@vgui@@MAEXXZ 10045c42 f   vgui:vgui.dll
 0001:00044c48       ?drawSetColor@Panel@vgui@@MAEXW4SchemeColor@Scheme@2@@Z 10045c48 f   vgui:vgui.dll
 0001:00044c4e       ?drawSetColor@Panel@vgui@@MAEXHHHH@Z 10045c4e f   vgui:vgui.dll
 0001:00044c54       ?drawFilledRect@Panel@vgui@@MAEXHHHH@Z 10045c54 f   vgui:vgui.dll
 0001:00044c5a       ?drawOutlinedRect@Panel@vgui@@MAEXHHHH@Z 10045c5a f   vgui:vgui.dll
 0001:00044c60       ?drawSetTextFont@Panel@vgui@@MAEXW4SchemeFont@Scheme@2@@Z 10045c60 f   vgui:vgui.dll
 0001:00044c66       ?drawSetTextFont@Panel@vgui@@MAEXPAVFont@2@@Z 10045c66 f   vgui:vgui.dll
 0001:00044c6c       ?drawSetTextColor@Panel@vgui@@MAEXW4SchemeColor@Scheme@2@@Z 10045c6c f   vgui:vgui.dll
 0001:00044c72       ?drawSetTextColor@Panel@vgui@@MAEXHHHH@Z 10045c72 f   vgui:vgui.dll
 0001:00044c78       ?drawSetTextPos@Panel@vgui@@MAEXHH@Z 10045c78 f   vgui:vgui.dll
 0001:00044c7e       ?drawPrintText@Panel@vgui@@MAEXPBDH@Z 10045c7e f   vgui:vgui.dll
 0001:00044c84       ?drawPrintText@Panel@vgui@@MAEXHHPBDH@Z 10045c84 f   vgui:vgui.dll
 0001:00044c8a       ?drawPrintChar@Panel@vgui@@MAEXD@Z 10045c8a f   vgui:vgui.dll
 0001:00044c90       ?drawPrintChar@Panel@vgui@@MAEXHHD@Z 10045c90 f   vgui:vgui.dll
 0001:00044c96       ?drawSetTextureRGBA@Panel@vgui@@MAEXHPBDHH@Z 10045c96 f   vgui:vgui.dll
 0001:00044c9c       ?drawSetTexture@Panel@vgui@@MAEXH@Z 10045c9c f   vgui:vgui.dll
 0001:00044ca2       ?drawTexturedRect@Panel@vgui@@MAEXHHHH@Z 10045ca2 f   vgui:vgui.dll
 0001:00044ca8       ?solve@Panel@vgui@@MAEXXZ  10045ca8 f   vgui:vgui.dll
 0001:00044cae       ?paintTraverse@Panel@vgui@@MAEX_N@Z 10045cae f   vgui:vgui.dll
 0001:00044cb4       ?paintBackground@Panel@vgui@@MAEXXZ 10045cb4 f   vgui:vgui.dll
 0001:00044cba       ?paint@Panel@vgui@@MAEXXZ  10045cba f   vgui:vgui.dll
 0001:00044cc0       ?paintBuildOverlay@Panel@vgui@@MAEXXZ 10045cc0 f   vgui:vgui.dll
 0001:00044cc6       ?internalCursorMoved@Panel@vgui@@MAEXHH@Z 10045cc6 f   vgui:vgui.dll
 0001:00044ccc       ?internalCursorEntered@Panel@vgui@@MAEXXZ 10045ccc f   vgui:vgui.dll
 0001:00044cd2       ?internalCursorExited@Panel@vgui@@MAEXXZ 10045cd2 f   vgui:vgui.dll
 0001:00044cd8       ?internalMousePressed@Panel@vgui@@MAEXW4MouseCode@2@@Z 10045cd8 f   vgui:vgui.dll
 0001:00044cde       ?internalMouseDoublePressed@Panel@vgui@@MAEXW4MouseCode@2@@Z 10045cde f   vgui:vgui.dll
 0001:00044ce4       ?internalMouseReleased@Panel@vgui@@MAEXW4MouseCode@2@@Z 10045ce4 f   vgui:vgui.dll
 0001:00044cea       ?internalMouseWheeled@Panel@vgui@@MAEXH@Z 10045cea f   vgui:vgui.dll
 0001:00044cf0       ?internalKeyPressed@Panel@vgui@@MAEXW4KeyCode@2@@Z 10045cf0 f   vgui:vgui.dll
 0001:00044cf6       ?internalKeyTyped@Panel@vgui@@MAEXW4KeyCode@2@@Z 10045cf6 f   vgui:vgui.dll
 0001:00044cfc       ?internalKeyReleased@Panel@vgui@@MAEXW4KeyCode@2@@Z 10045cfc f   vgui:vgui.dll
 0001:00044d02       ?internalKeyFocusTicked@Panel@vgui@@MAEXXZ 10045d02 f   vgui:vgui.dll
 0001:00044d08       ?internalFocusChanged@Panel@vgui@@MAEX_N@Z 10045d08 f   vgui:vgui.dll
 0001:00044d0e       ?internalSetCursor@Panel@vgui@@MAEXXZ 10045d0e f   vgui:vgui.dll
 0001:00044d14       ?init@Label@vgui@@AAEXHPBD_N@Z 10045d14 f   vgui:vgui.dll
 0001:00044d1a       ?setImage@Label@vgui@@UAEXPAVImage@2@@Z 10045d1a f   vgui:vgui.dll
 0001:00044d20       ?setText@Label@vgui@@UAEXHPBD@Z 10045d20 f   vgui:vgui.dll
 0001:00044d26       ?setText@Label@vgui@@UAAXPBDZZ 10045d26 f   vgui:vgui.dll
 0001:00044d2c       ?setFont@Label@vgui@@UAEXW4SchemeFont@Scheme@2@@Z 10045d2c f   vgui:vgui.dll
 0001:00044d32       ?setFont@Label@vgui@@UAEXPAVFont@2@@Z 10045d32 f   vgui:vgui.dll
 0001:00044d38       ?getTextSize@Label@vgui@@UAEXAAH0@Z 10045d38 f   vgui:vgui.dll
 0001:00044d3e       ?getContentSize@Label@vgui@@UAEXAAH0@Z 10045d3e f   vgui:vgui.dll
 0001:00044d44       ?setTextAlignment@Label@vgui@@UAEXW4Alignment@12@@Z 10045d44 f   vgui:vgui.dll
 0001:00044d4a       ?setContentAlignment@Label@vgui@@UAEXW4Alignment@12@@Z 10045d4a f   vgui:vgui.dll
 0001:00044d50       ?createPropertyPanel@Label@vgui@@UAEPAVPanel@2@XZ 10045d50 f   vgui:vgui.dll
 0001:00044d56       ?setFgColor@Label@vgui@@UAEXHHHH@Z 10045d56 f   vgui:vgui.dll
 0001:00044d5c       ?setFgColor@Label@vgui@@UAEXW4SchemeColor@Scheme@2@@Z 10045d5c f   vgui:vgui.dll
 0001:00044d62       ?setContentFitted@Label@vgui@@UAEX_N@Z 10045d62 f   vgui:vgui.dll
 0001:00044d68       ?computeAlignment@Label@vgui@@MAEXAAH00000000000@Z 10045d68 f   vgui:vgui.dll
 0001:00044d6e       ?paint@Label@vgui@@MAEXXZ  10045d6e f   vgui:vgui.dll
 0001:00044d74       ?recomputeMinimumSize@Label@vgui@@MAEXXZ 10045d74 f   vgui:vgui.dll
 0001:00044d7a       ?setPos@Image@vgui@@UAEXHH@Z 10045d7a f   vgui:vgui.dll
 0001:00044d80       ?getPos@Image@vgui@@UAEXAAH0@Z 10045d80 f   vgui:vgui.dll
 0001:00044d86       ?getSize@Image@vgui@@UAEXAAH0@Z 10045d86 f   vgui:vgui.dll
 0001:00044d8c       ?setColor@Image@vgui@@UAEXVColor@2@@Z 10045d8c f   vgui:vgui.dll
 0001:00044d92       ?getColor@Image@vgui@@UAEXAAVColor@2@@Z 10045d92 f   vgui:vgui.dll
 0001:00044d98       ?setSize@Image@vgui@@MAEXHH@Z 10045d98 f   vgui:vgui.dll
 0001:00044d9e       ?drawSetColor@Image@vgui@@MAEXW4SchemeColor@Scheme@2@@Z 10045d9e f   vgui:vgui.dll
 0001:00044da4       ?drawSetColor@Image@vgui@@MAEXHHHH@Z 10045da4 f   vgui:vgui.dll
 0001:00044daa       ?drawFilledRect@Image@vgui@@MAEXHHHH@Z 10045daa f   vgui:vgui.dll
 0001:00044db0       ?drawOutlinedRect@Image@vgui@@MAEXHHHH@Z 10045db0 f   vgui:vgui.dll
 0001:00044db6       ?drawSetTextFont@Image@vgui@@MAEXW4SchemeFont@Scheme@2@@Z 10045db6 f   vgui:vgui.dll
 0001:00044dbc       ?drawSetTextFont@Image@vgui@@MAEXPAVFont@2@@Z 10045dbc f   vgui:vgui.dll
 0001:00044dc2       ?drawSetTextColor@Image@vgui@@MAEXW4SchemeColor@Scheme@2@@Z 10045dc2 f   vgui:vgui.dll
 0001:00044dc8       ?drawSetTextColor@Image@vgui@@MAEXHHHH@Z 10045dc8 f   vgui:vgui.dll
 0001:00044dce       ?drawSetTextPos@Image@vgui@@MAEXHH@Z 10045dce f   vgui:vgui.dll
 0001:00044dd4       ?drawPrintText@Image@vgui@@MAEXPBDH@Z 10045dd4 f   vgui:vgui.dll
 0001:00044dda       ?drawPrintText@Image@vgui@@MAEXHHPBDH@Z 10045dda f   vgui:vgui.dll
 0001:00044de0       ?drawPrintChar@Image@vgui@@MAEXD@Z 10045de0 f   vgui:vgui.dll
 0001:00044de6       ?drawPrintChar@Image@vgui@@MAEXHHD@Z 10045de6 f   vgui:vgui.dll
 0001:00044dec       ?drawSetTextureRGBA@Image@vgui@@MAEXHPBDHH@Z 10045dec f   vgui:vgui.dll
 0001:00044df2       ?drawSetTexture@Image@vgui@@MAEXH@Z 10045df2 f   vgui:vgui.dll
 0001:00044df8       ?drawTexturedRect@Image@vgui@@MAEXHHHH@Z 10045df8 f   vgui:vgui.dll
 0001:00044dfe       ?paint@Image@vgui@@MAEXPAVPanel@2@@Z 10045dfe f   vgui:vgui.dll
 0001:00044e04       ?doPaint@Image@vgui@@UAEXPAVPanel@2@@Z 10045e04 f   vgui:vgui.dll
 0001:00044e0a       ?setInset@Border@vgui@@UAEXHHHH@Z 10045e0a f   vgui:vgui.dll
 0001:00044e10       ?getInset@Border@vgui@@UAEXAAH000@Z 10045e10 f   vgui:vgui.dll
 0001:00044e16       ?drawFilledRect@Border@vgui@@MAEXHHHH@Z 10045e16 f   vgui:vgui.dll
 0001:00044e1c       ?drawOutlinedRect@Border@vgui@@MAEXHHHH@Z 10045e1c f   vgui:vgui.dll
 0001:00044e22       ?drawSetTextPos@Border@vgui@@MAEXHH@Z 10045e22 f   vgui:vgui.dll
 0001:00044e28       ?drawPrintText@Border@vgui@@MAEXHHPBDH@Z 10045e28 f   vgui:vgui.dll
 0001:00044e2e       ?drawPrintChar@Border@vgui@@MAEXHHD@Z 10045e2e f   vgui:vgui.dll
 0001:00044e34       ?init@LineBorder@vgui@@EAEXHVColor@2@@Z 10045e34 f   vgui:vgui.dll
 0001:00044e3a       ?paint@LineBorder@vgui@@MAEXPAVPanel@2@@Z 10045e3a f   vgui:vgui.dll
 0001:00044e40       ?setImage@ImagePanel@vgui@@UAEXPAVImage@2@@Z 10045e40 f   vgui:vgui.dll
 0001:00044e46       ?paintBackground@ImagePanel@vgui@@MAEXXZ 10045e46 f   vgui:vgui.dll
 0001:00044e4c       ?setSize@Bitmap@vgui@@MAEXHH@Z 10045e4c f   vgui:vgui.dll
 0001:00044e52       ?setRGBA@Bitmap@vgui@@MAEXHHEEEE@Z 10045e52 f   vgui:vgui.dll
 0001:00044e58       ?paint@Bitmap@vgui@@UAEXPAVPanel@2@@Z 10045e58 f   vgui:vgui.dll
 0001:00044e5e       ?loadTGA@BitmapTGA@vgui@@EAE_NPAVInputStream@2@_N@Z 10045e5e f   vgui:vgui.dll
 0001:00044e64       ?setSelected@Button@vgui@@UAEX_N@Z 10045e64 f   vgui:vgui.dll
 0001:00044e6a       ?setSelectedDirect@Button@vgui@@UAEX_N@Z 10045e6a f   vgui:vgui.dll
 0001:00044e70       ?setArmed@Button@vgui@@UAEX_N@Z 10045e70 f   vgui:vgui.dll
 0001:00044e76       ?isSelected@Button@vgui@@UAE_NXZ 10045e76 f   vgui:vgui.dll
 0001:00044e7c       ?doClick@Button@vgui@@UAEXXZ 10045e7c f   vgui:vgui.dll
 0001:00044e82       ?addActionSignal@Button@vgui@@UAEXPAVActionSignal@2@@Z 10045e82 f   vgui:vgui.dll
 0001:00044e88       ?setButtonGroup@Button@vgui@@UAEXPAVButtonGroup@2@@Z 10045e88 f   vgui:vgui.dll
 0001:00044e8e       ?isArmed@Button@vgui@@UAE_NXZ 10045e8e f   vgui:vgui.dll
 0001:00044e94       ?setButtonBorderEnabled@Button@vgui@@UAEX_N@Z 10045e94 f   vgui:vgui.dll
 0001:00044e9a       ?setMouseClickEnabled@Button@vgui@@UAEXW4MouseCode@2@_N@Z 10045e9a f   vgui:vgui.dll
 0001:00044ea0       ?isMouseClickEnabled@Button@vgui@@UAE_NW4MouseCode@2@@Z 10045ea0 f   vgui:vgui.dll
 0001:00044ea6       ?fireActionSignal@Button@vgui@@UAEXXZ 10045ea6 f   vgui:vgui.dll
 0001:00044eac       ?createPropertyPanel@Button@vgui@@UAEPAVPanel@2@XZ 10045eac f   vgui:vgui.dll
 0001:00044eb2       ?setButtonController@Button@vgui@@MAEXPAVButtonController@2@@Z 10045eb2 f   vgui:vgui.dll
 0001:00044eb8       ?paintBackground@Button@vgui@@MAEXXZ 10045eb8 f   vgui:vgui.dll
 0001:00044ebe       ?setSize@Frame@vgui@@UAEXHH@Z 10045ebe f   vgui:vgui.dll
 0001:00044ec4       ?setInternal@Frame@vgui@@UAEX_N@Z 10045ec4 f   vgui:vgui.dll
 0001:00044eca       ?paintBackground@Frame@vgui@@UAEXXZ 10045eca f   vgui:vgui.dll
 0001:00044ed0       ?isInternal@Frame@vgui@@UAE_NXZ 10045ed0 f   vgui:vgui.dll
 0001:00044ed6       ?getClient@Frame@vgui@@UAEPAVPanel@2@XZ 10045ed6 f   vgui:vgui.dll
 0001:00044edc       ?setTitle@Frame@vgui@@UAEXPBD@Z 10045edc f   vgui:vgui.dll
 0001:00044ee2       ?getTitle@Frame@vgui@@UAEXPADH@Z 10045ee2 f   vgui:vgui.dll
 0001:00044ee8       ?setMoveable@Frame@vgui@@UAEX_N@Z 10045ee8 f   vgui:vgui.dll
 0001:00044eee       ?setSizeable@Frame@vgui@@UAEX_N@Z 10045eee f   vgui:vgui.dll
 0001:00044ef4       ?isMoveable@Frame@vgui@@UAE_NXZ 10045ef4 f   vgui:vgui.dll
 0001:00044efa       ?isSizeable@Frame@vgui@@UAE_NXZ 10045efa f   vgui:vgui.dll
 0001:00044f00       ?addFrameSignal@Frame@vgui@@UAEXPAVFrameSignal@2@@Z 10045f00 f   vgui:vgui.dll
 0001:00044f06       ?setVisible@Frame@vgui@@UAEX_N@Z 10045f06 f   vgui:vgui.dll
 0001:00044f0c       ?setMenuButtonVisible@Frame@vgui@@UAEX_N@Z 10045f0c f   vgui:vgui.dll
 0001:00044f12       ?setTrayButtonVisible@Frame@vgui@@UAEX_N@Z 10045f12 f   vgui:vgui.dll
 0001:00044f18       ?setMinimizeButtonVisible@Frame@vgui@@UAEX_N@Z 10045f18 f   vgui:vgui.dll
 0001:00044f1e       ?setMaximizeButtonVisible@Frame@vgui@@UAEX_N@Z 10045f1e f   vgui:vgui.dll
 0001:00044f24       ?setCloseButtonVisible@Frame@vgui@@UAEX_N@Z 10045f24 f   vgui:vgui.dll
 0001:00044f2a       ?fireClosingSignal@Frame@vgui@@UAEXXZ 10045f2a f   vgui:vgui.dll
 0001:00044f30       ?fireMinimizingSignal@Frame@vgui@@UAEXXZ 10045f30 f   vgui:vgui.dll
 0001:00044f36       ?setText@TextPanel@vgui@@UAEXPBD@Z 10045f36 f   vgui:vgui.dll
 0001:00044f3c       ?setFont@TextPanel@vgui@@UAEXW4SchemeFont@Scheme@2@@Z 10045f3c f   vgui:vgui.dll
 0001:00044f42       ?setFont@TextPanel@vgui@@UAEXPAVFont@2@@Z 10045f42 f   vgui:vgui.dll
 0001:00044f48       ?setSize@TextPanel@vgui@@UAEXHH@Z 10045f48 f   vgui:vgui.dll
 0001:00044f4e       ?setFgColor@TextPanel@vgui@@UAEXHHHH@Z 10045f4e f   vgui:vgui.dll
 0001:00044f54       ?setFgColor@TextPanel@vgui@@UAEXW4SchemeColor@Scheme@2@@Z 10045f54 f   vgui:vgui.dll
 0001:00044f5a       ?getTextImage@TextPanel@vgui@@UAEPAVTextImage@2@XZ 10045f5a f   vgui:vgui.dll
 0001:00044f60       ?paint@TextPanel@vgui@@MAEXXZ 10045f60 f   vgui:vgui.dll
 0001:00044f66       ?seekStart@FileInputStream@vgui@@UAEXAA_N@Z 10045f66 f   vgui:vgui.dll
 0001:00044f6c       ?seekRelative@FileInputStream@vgui@@UAEXHAA_N@Z 10045f6c f   vgui:vgui.dll
 0001:00044f72       ?seekEnd@FileInputStream@vgui@@UAEXAA_N@Z 10045f72 f   vgui:vgui.dll
 0001:00044f78       ?getAvailable@FileInputStream@vgui@@UAEHAA_N@Z 10045f78 f   vgui:vgui.dll
 0001:00044f7e       ?readUChar@FileInputStream@vgui@@UAEEAA_N@Z 10045f7e f   vgui:vgui.dll
 0001:00044f84       ?readUChar@FileInputStream@vgui@@UAEXPAEHAA_N@Z 10045f84 f   vgui:vgui.dll
 0001:00044f8a       ?close@FileInputStream@vgui@@UAEXAA_N@Z 10045f8a f   vgui:vgui.dll
 0001:00044f90       ?close@FileInputStream@vgui@@UAEXXZ 10045f90 f   vgui:vgui.dll
 0001:00044f96       ?doActivate@DesktopIcon@vgui@@UAEXXZ 10045f96 f   vgui:vgui.dll
 0001:00044f9c       ?setImage@DesktopIcon@vgui@@UAEXPAVImage@2@@Z 10045f9c f   vgui:vgui.dll
 0001:00044fa2       ?setDesktop@DesktopIcon@vgui@@UAEXPAVDesktop@2@@Z 10045fa2 f   vgui:vgui.dll
 0001:00044fa8       ?getMiniApp@DesktopIcon@vgui@@UAEPAVMiniApp@2@XZ 10045fa8 f   vgui:vgui.dll
 0001:00044fae       ?paintBackground@DesktopIcon@vgui@@MAEXXZ 10045fae f   vgui:vgui.dll
 0001:00044fb4       ?getHotspot@Cursor@vgui@@UAEXAAH0@Z 10045fb4 f   vgui:vgui.dll
 0001:00044fba       ?privateInit@Cursor@vgui@@EAEXPAVBitmap@2@HH@Z 10045fba f   vgui:vgui.dll
 0001:00044fc0       ?getBitmap@Cursor@vgui@@UAEPAVBitmap@2@XZ 10045fc0 f   vgui:vgui.dll
 0001:00044fc6       ?getDefaultCursor@Cursor@vgui@@UAE?AW4DefaultCursor@12@XZ 10045fc6 f   vgui:vgui.dll
 0001:00044fcc       ?start@App@vgui@@UAEXXZ    10045fcc f   vgui:vgui.dll
 0001:00044fd2       ?stop@App@vgui@@UAEXXZ     10045fd2 f   vgui:vgui.dll
 0001:00044fd8       ?externalTick@App@vgui@@UAEXXZ 10045fd8 f   vgui:vgui.dll
 0001:00044fde       ?wasMousePressed@App@vgui@@UAE_NW4MouseCode@2@PAVPanel@2@@Z 10045fde f   vgui:vgui.dll
 0001:00044fe4       ?wasMouseDoublePressed@App@vgui@@UAE_NW4MouseCode@2@PAVPanel@2@@Z 10045fe4 f   vgui:vgui.dll
 0001:00044fea       ?isMouseDown@App@vgui@@UAE_NW4MouseCode@2@PAVPanel@2@@Z 10045fea f   vgui:vgui.dll
 0001:00044ff0       ?wasMouseReleased@App@vgui@@UAE_NW4MouseCode@2@PAVPanel@2@@Z 10045ff0 f   vgui:vgui.dll
 0001:00044ff6       ?wasKeyPressed@App@vgui@@UAE_NW4KeyCode@2@PAVPanel@2@@Z 10045ff6 f   vgui:vgui.dll
 0001:00044ffc       ?isKeyDown@App@vgui@@UAE_NW4KeyCode@2@PAVPanel@2@@Z 10045ffc f   vgui:vgui.dll
 0001:00045002       ?wasKeyTyped@App@vgui@@UAE_NW4KeyCode@2@PAVPanel@2@@Z 10046002 f   vgui:vgui.dll
 0001:00045008       ?wasKeyReleased@App@vgui@@UAE_NW4KeyCode@2@PAVPanel@2@@Z 10046008 f   vgui:vgui.dll
 0001:0004500e       ?addTickSignal@App@vgui@@UAEXPAVTickSignal@2@@Z 1004600e f   vgui:vgui.dll
 0001:00045014       ?setCursorPos@App@vgui@@UAEXHH@Z 10046014 f   vgui:vgui.dll
 0001:0004501a       ?getCursorPos@App@vgui@@UAEXAAH0@Z 1004601a f   vgui:vgui.dll
 0001:00045020       ?setMouseCapture@App@vgui@@UAEXPAVPanel@2@@Z 10046020 f   vgui:vgui.dll
 0001:00045026       ?setMouseArena@App@vgui@@UAEXHHHH_N@Z 10046026 f   vgui:vgui.dll
 0001:0004502c       ?setMouseArena@App@vgui@@UAEXPAVPanel@2@@Z 1004602c f   vgui:vgui.dll
 0001:00045032       ?requestFocus@App@vgui@@UAEXPAVPanel@2@@Z 10046032 f   vgui:vgui.dll
 0001:00045038       ?getFocus@App@vgui@@UAEPAVPanel@2@XZ 10046038 f   vgui:vgui.dll
 0001:0004503e       ?repaintAll@App@vgui@@UAEXXZ 1004603e f   vgui:vgui.dll
 0001:00045044       ?setScheme@App@vgui@@UAEXPAVScheme@2@@Z 10046044 f   vgui:vgui.dll
 0001:0004504a       ?getScheme@App@vgui@@UAEPAVScheme@2@XZ 1004604a f   vgui:vgui.dll
 0001:00045050       ?enableBuildMode@App@vgui@@UAEXXZ 10046050 f   vgui:vgui.dll
 0001:00045056       ?getTimeMillis@App@vgui@@UAEJXZ 10046056 f   vgui:vgui.dll
 0001:0004505c       ?getKeyCodeChar@App@vgui@@UAEDW4KeyCode@2@_N@Z 1004605c f   vgui:vgui.dll
 0001:00045062       ?getKeyCodeText@App@vgui@@UAEXW4KeyCode@2@PADH@Z 10046062 f   vgui:vgui.dll
 0001:00045068       ?getClipboardTextCount@App@vgui@@UAEHXZ 10046068 f   vgui:vgui.dll
 0001:0004506e       ?setClipboardText@App@vgui@@UAEXPBDH@Z 1004606e f   vgui:vgui.dll
 0001:00045074       ?getClipboardText@App@vgui@@UAEHHPADH@Z 10046074 f   vgui:vgui.dll
 0001:0004507a       ?reset@App@vgui@@UAEXXZ    1004607a f   vgui:vgui.dll
 0001:00045080       ?internalSetMouseArena@App@vgui@@UAEXHHHH_N@Z 10046080 f   vgui:vgui.dll
 0001:00045086       ?setRegistryString@App@vgui@@UAE_NPBD0@Z 10046086 f   vgui:vgui.dll
 0001:0004508c       ?getRegistryString@App@vgui@@UAE_NPBDPADH@Z 1004608c f   vgui:vgui.dll
 0001:00045092       ?setRegistryInteger@App@vgui@@UAE_NPBDH@Z 10046092 f   vgui:vgui.dll
 0001:00045098       ?getRegistryInteger@App@vgui@@UAE_NPBDAAH@Z 10046098 f   vgui:vgui.dll
 0001:0004509e       ?setCursorOveride@App@vgui@@UAEXPAVCursor@2@@Z 1004609e f   vgui:vgui.dll
 0001:000450a4       ?getCursorOveride@App@vgui@@UAEPAVCursor@2@XZ 100460a4 f   vgui:vgui.dll
 0001:000450aa       ?setMinimumTickMillisInterval@App@vgui@@UAEXH@Z 100460aa f   vgui:vgui.dll
 0001:000450b0       ?run@App@vgui@@UAEXXZ      100460b0 f   vgui:vgui.dll
 0001:000450b6       ?internalCursorMoved@App@vgui@@UAEXHHPAVSurfaceBase@2@@Z 100460b6 f   vgui:vgui.dll
 0001:000450bc       ?internalMousePressed@App@vgui@@UAEXW4MouseCode@2@PAVSurfaceBase@2@@Z 100460bc f   vgui:vgui.dll
 0001:000450c2       ?internalMouseDoublePressed@App@vgui@@UAEXW4MouseCode@2@PAVSurfaceBase@2@@Z 100460c2 f   vgui:vgui.dll
 0001:000450c8       ?internalMouseReleased@App@vgui@@UAEXW4MouseCode@2@PAVSurfaceBase@2@@Z 100460c8 f   vgui:vgui.dll
 0001:000450ce       ?internalMouseWheeled@App@vgui@@UAEXHPAVSurfaceBase@2@@Z 100460ce f   vgui:vgui.dll
 0001:000450d4       ?internalKeyPressed@App@vgui@@UAEXW4KeyCode@2@PAVSurfaceBase@2@@Z 100460d4 f   vgui:vgui.dll
 0001:000450da       ?internalKeyTyped@App@vgui@@UAEXW4KeyCode@2@PAVSurfaceBase@2@@Z 100460da f   vgui:vgui.dll
 0001:000450e0       ?internalKeyReleased@App@vgui@@UAEXW4KeyCode@2@PAVSurfaceBase@2@@Z 100460e0 f   vgui:vgui.dll
 0001:000450e6       ?init@App@vgui@@EAEXXZ     100460e6 f   vgui:vgui.dll
 0001:000450ec       ?updateMouseFocus@App@vgui@@EAEXHHPAVSurfaceBase@2@@Z 100460ec f   vgui:vgui.dll
 0001:000450f2       ?setMouseFocus@App@vgui@@EAEXPAVPanel@2@@Z 100460f2 f   vgui:vgui.dll
 0001:000450f8       ?surfaceBaseCreated@App@vgui@@MAEXPAVSurfaceBase@2@@Z 100460f8 f   vgui:vgui.dll
 0001:000450fe       ?surfaceBaseDeleted@App@vgui@@MAEXPAVSurfaceBase@2@@Z 100460fe f   vgui:vgui.dll
 0001:00045104       ?platTick@App@vgui@@MAEXXZ 10046104 f   vgui:vgui.dll
 0001:0004510a       ?internalTick@App@vgui@@MAEXXZ 1004610a f   vgui:vgui.dll
 0001:00045110       ?getName@MiniApp@vgui@@UAEXPADH@Z 10046110 f   vgui:vgui.dll
 0001:00045116       ?setName@MiniApp@vgui@@MAEXPBD@Z 10046116 f   vgui:vgui.dll
 0001:0004511c       ?setSize@ScrollPanel@vgui@@MAEXHH@Z 1004611c f   vgui:vgui.dll
 0001:00045122       ?setScrollBarVisible@ScrollPanel@vgui@@UAEX_N0@Z 10046122 f   vgui:vgui.dll
 0001:00045128       ?setScrollBarAutoVisible@ScrollPanel@vgui@@UAEX_N0@Z 10046128 f   vgui:vgui.dll
 0001:0004512e       ?getClient@ScrollPanel@vgui@@UAEPAVPanel@2@XZ 1004612e f   vgui:vgui.dll
 0001:00045134       ?getClientClip@ScrollPanel@vgui@@UAEPAVPanel@2@XZ 10046134 f   vgui:vgui.dll
 0001:0004513a       ?setScrollValue@ScrollPanel@vgui@@UAEXHH@Z 1004613a f   vgui:vgui.dll
 0001:00045140       ?getScrollValue@ScrollPanel@vgui@@UAEXAAH0@Z 10046140 f   vgui:vgui.dll
 0001:00045146       ?recomputeClientSize@ScrollPanel@vgui@@UAEXXZ 10046146 f   vgui:vgui.dll
 0001:0004514c       ?getHorizontalScrollBar@ScrollPanel@vgui@@UAEPAVScrollBar@2@XZ 1004614c f   vgui:vgui.dll
 0001:00045152       ?getVerticalScrollBar@ScrollPanel@vgui@@UAEPAVScrollBar@2@XZ 10046152 f   vgui:vgui.dll
 0001:00045158       ?validate@ScrollPanel@vgui@@UAEXXZ 10046158 f   vgui:vgui.dll
 0001:0004515e       ?recomputeScroll@ScrollPanel@vgui@@UAEXXZ 1004615e f   vgui:vgui.dll
 0001:00045164       ?setValue@ScrollBar@vgui@@UAEXH@Z 10046164 f   vgui:vgui.dll
 0001:0004516a       ?getValue@ScrollBar@vgui@@UAEHXZ 1004616a f   vgui:vgui.dll
 0001:00045170       ?addIntChangeSignal@ScrollBar@vgui@@UAEXPAVIntChangeSignal@2@@Z 10046170 f   vgui:vgui.dll
 0001:00045176       ?setRange@ScrollBar@vgui@@UAEXHH@Z 10046176 f   vgui:vgui.dll
 0001:0004517c       ?setRangeWindow@ScrollBar@vgui@@UAEXH@Z 1004617c f   vgui:vgui.dll
 0001:00045182       ?setRangeWindowEnabled@ScrollBar@vgui@@UAEX_N@Z 10046182 f   vgui:vgui.dll
 0001:00045188       ?setSize@ScrollBar@vgui@@UAEXHH@Z 10046188 f   vgui:vgui.dll
 0001:0004518e       ?isVertical@ScrollBar@vgui@@UAE_NXZ 1004618e f   vgui:vgui.dll
 0001:00045194       ?hasFullRange@ScrollBar@vgui@@UAE_NXZ 10046194 f   vgui:vgui.dll
 0001:0004519a       ?setButton@ScrollBar@vgui@@UAEXPAVButton@2@H@Z 1004619a f   vgui:vgui.dll
 0001:000451a0       ?getButton@ScrollBar@vgui@@UAEPAVButton@2@H@Z 100461a0 f   vgui:vgui.dll
 0001:000451a6       ?setSlider@ScrollBar@vgui@@UAEXPAVSlider@2@@Z 100461a6 f   vgui:vgui.dll
 0001:000451ac       ?getSlider@ScrollBar@vgui@@UAEPAVSlider@2@XZ 100461ac f   vgui:vgui.dll
 0001:000451b2       ?doButtonPressed@ScrollBar@vgui@@UAEXH@Z 100461b2 f   vgui:vgui.dll
 0001:000451b8       ?setButtonPressedScrollValue@ScrollBar@vgui@@UAEXH@Z 100461b8 f   vgui:vgui.dll
 0001:000451be       ?validate@ScrollBar@vgui@@UAEXXZ 100461be f   vgui:vgui.dll
 0001:000451c4       ?fireIntChangeSignal@ScrollBar@vgui@@UAEXXZ 100461c4 f   vgui:vgui.dll
 0001:000451ca       ?performLayout@ScrollBar@vgui@@MAEXXZ 100461ca f   vgui:vgui.dll
 0001:000451d0       ?setValue@Slider@vgui@@UAEXH@Z 100461d0 f   vgui:vgui.dll
 0001:000451d6       ?getValue@Slider@vgui@@UAEHXZ 100461d6 f   vgui:vgui.dll
 0001:000451dc       ?isVertical@Slider@vgui@@UAE_NXZ 100461dc f   vgui:vgui.dll
 0001:000451e2       ?addIntChangeSignal@Slider@vgui@@UAEXPAVIntChangeSignal@2@@Z 100461e2 f   vgui:vgui.dll
 0001:000451e8       ?setRange@Slider@vgui@@UAEXHH@Z 100461e8 f   vgui:vgui.dll
 0001:000451ee       ?getRange@Slider@vgui@@UAEXAAH0@Z 100461ee f   vgui:vgui.dll
 0001:000451f4       ?setRangeWindow@Slider@vgui@@UAEXH@Z 100461f4 f   vgui:vgui.dll
 0001:000451fa       ?setRangeWindowEnabled@Slider@vgui@@UAEX_N@Z 100461fa f   vgui:vgui.dll
 0001:00045200       ?setSize@Slider@vgui@@UAEXHH@Z 10046200 f   vgui:vgui.dll
 0001:00045206       ?getNobPos@Slider@vgui@@UAEXAAH0@Z 10046206 f   vgui:vgui.dll
 0001:0004520c       ?hasFullRange@Slider@vgui@@UAE_NXZ 1004620c f   vgui:vgui.dll
 0001:00045212       ?setButtonOffset@Slider@vgui@@UAEXH@Z 10046212 f   vgui:vgui.dll
 0001:00045218       ?recomputeNobPosFromValue@Slider@vgui@@EAEXXZ 10046218 f   vgui:vgui.dll
 0001:0004521e       ?recomputeValueFromNobPos@Slider@vgui@@EAEXXZ 1004621e f   vgui:vgui.dll
 0001:00045224       ?privateCursorMoved@Slider@vgui@@UAEXHHPAVPanel@2@@Z 10046224 f   vgui:vgui.dll
 0001:0004522a       ?privateMousePressed@Slider@vgui@@UAEXW4MouseCode@2@PAVPanel@2@@Z 1004622a f   vgui:vgui.dll
 0001:00045230       ?privateMouseReleased@Slider@vgui@@UAEXW4MouseCode@2@PAVPanel@2@@Z 10046230 f   vgui:vgui.dll
 0001:00045236       ?fireIntChangeSignal@Slider@vgui@@MAEXXZ 10046236 f   vgui:vgui.dll
 0001:0004523c       ?paintBackground@Slider@vgui@@MAEXXZ 1004623c f   vgui:vgui.dll
 0001:00045242       ?init@Font@vgui@@EAEXPBDPAXHHHMH_N222@Z 10046242 f   vgui:vgui.dll
 0001:00045248       ?getCharRGBA@Font@vgui@@UAEXHHHHHPAE@Z 10046248 f   vgui:vgui.dll
 0001:0004524e       ?getCharABCwide@Font@vgui@@UAEXHAAH00@Z 1004624e f   vgui:vgui.dll
 0001:00045254       ?getTextSize@Font@vgui@@UAEXPBDAAH1@Z 10046254 f   vgui:vgui.dll
 0001:0004525a       ?getTall@Font@vgui@@UAEHXZ 1004625a f   vgui:vgui.dll
 0001:00045260       ?getId@Font@vgui@@UAEHXZ   10046260 f   vgui:vgui.dll
 0001:00045266       ?init@TextImage@vgui@@EAEXHPBD@Z 10046266 f   vgui:vgui.dll
 0001:0004526c       ?getTextSize@TextImage@vgui@@UAEXAAH0@Z 1004626c f   vgui:vgui.dll
 0001:00045272       ?getTextSizeWrapped@TextImage@vgui@@UAEXAAH0@Z 10046272 f   vgui:vgui.dll
 0001:00045278       ?getFont@TextImage@vgui@@UAEPAVFont@2@XZ 10046278 f   vgui:vgui.dll
 0001:0004527e       ?setText@TextImage@vgui@@UAEXHPBD@Z 1004627e f   vgui:vgui.dll
 0001:00045284       ?setText@TextImage@vgui@@UAEXPBD@Z 10046284 f   vgui:vgui.dll
 0001:0004528a       ?setFont@TextImage@vgui@@UAEXW4SchemeFont@Scheme@2@@Z 1004628a f   vgui:vgui.dll
 0001:00045290       ?setFont@TextImage@vgui@@UAEXPAVFont@2@@Z 10046290 f   vgui:vgui.dll
 0001:00045296       ?setSize@TextImage@vgui@@UAEXHH@Z 10046296 f   vgui:vgui.dll
 0001:0004529c       ?paint@TextImage@vgui@@MAEXPAVPanel@2@@Z 1004629c f   vgui:vgui.dll
 0001:000452a2       ?performLayout@Layout@vgui@@UAEXPAVPanel@2@@Z 100462a2 f   vgui:vgui.dll
 0001:000452a8       ?performLayout@StackLayout@vgui@@UAEXPAVPanel@2@@Z 100462a8 f   vgui:vgui.dll
 0001:000452ae       ?setCellEditingEnabled@TablePanel@vgui@@UAEX_N@Z 100462ae f   vgui:vgui.dll
 0001:000452b4       ?setColumnCount@TablePanel@vgui@@UAEXH@Z 100462b4 f   vgui:vgui.dll
 0001:000452ba       ?setGridVisible@TablePanel@vgui@@UAEX_N0@Z 100462ba f   vgui:vgui.dll
 0001:000452c0       ?setGridSize@TablePanel@vgui@@UAEXHH@Z 100462c0 f   vgui:vgui.dll
 0001:000452c6       ?getColumnCount@TablePanel@vgui@@UAEHXZ 100462c6 f   vgui:vgui.dll
 0001:000452cc       ?setColumnExtents@TablePanel@vgui@@UAEXHHH@Z 100462cc f   vgui:vgui.dll
 0001:000452d2       ?setSelectedCell@TablePanel@vgui@@UAEXHH@Z 100462d2 f   vgui:vgui.dll
 0001:000452d8       ?getSelectedCell@TablePanel@vgui@@UAEXAAH0@Z 100462d8 f   vgui:vgui.dll
 0001:000452de       ?setHeaderPanel@TablePanel@vgui@@UAEXPAVHeaderPanel@2@@Z 100462de f   vgui:vgui.dll
 0001:000452e4       ?setColumnSelectionEnabled@TablePanel@vgui@@UAEX_N@Z 100462e4 f   vgui:vgui.dll
 0001:000452ea       ?setRowSelectionEnabled@TablePanel@vgui@@UAEX_N@Z 100462ea f   vgui:vgui.dll
 0001:000452f0       ?setCellSectionEnabled@TablePanel@vgui@@UAEX_N@Z 100462f0 f   vgui:vgui.dll
 0001:000452f6       ?setEditableCell@TablePanel@vgui@@UAEXHH@Z 100462f6 f   vgui:vgui.dll
 0001:000452fc       ?stopCellEditing@TablePanel@vgui@@UAEXXZ 100462fc f   vgui:vgui.dll
 0001:00045302       ?getVirtualSize@TablePanel@vgui@@UAEXAAH0@Z 10046302 f   vgui:vgui.dll
 0001:00045308       ?paint@TablePanel@vgui@@MAEXXZ 10046308 f   vgui:vgui.dll
 0001:0004530e       ?isWithinTraverse@TablePanel@vgui@@MAEPAVPanel@2@HH@Z 1004630e f   vgui:vgui.dll
 0001:00045314       ?privateMousePressed@TablePanel@vgui@@EAEXW4MouseCode@2@PAVPanel@2@@Z 10046314 f   vgui:vgui.dll
 0001:0004531a       ?privateMouseDoublePressed@TablePanel@vgui@@EAEXW4MouseCode@2@PAVPanel@2@@Z 1004631a f   vgui:vgui.dll
 0001:00045320       ?privateKeyTyped@TablePanel@vgui@@EAEXW4KeyCode@2@PAVPanel@2@@Z 10046320 f   vgui:vgui.dll
 0001:00045326       ?performLayout@HeaderPanel@vgui@@MAEXXZ 10046326 f   vgui:vgui.dll
 0001:0004532c       ?addSectionPanel@HeaderPanel@vgui@@UAEXPAVPanel@2@@Z 1004632c f   vgui:vgui.dll
 0001:00045332       ?setSliderPos@HeaderPanel@vgui@@UAEXHH@Z 10046332 f   vgui:vgui.dll
 0001:00045338       ?getSectionCount@HeaderPanel@vgui@@UAEHXZ 10046338 f   vgui:vgui.dll
 0001:0004533e       ?getSectionExtents@HeaderPanel@vgui@@UAEXHAAH0@Z 1004633e f   vgui:vgui.dll
 0001:00045344       ?addChangeSignal@HeaderPanel@vgui@@UAEXPAVChangeSignal@2@@Z 10046344 f   vgui:vgui.dll
 0001:0004534a       ?fireChangeSignal@HeaderPanel@vgui@@UAEXXZ 1004634a f   vgui:vgui.dll
 0001:00045350       ?privateCursorMoved@HeaderPanel@vgui@@UAEXHHPAVPanel@2@@Z 10046350 f   vgui:vgui.dll
 0001:00045356       ?privateMousePressed@HeaderPanel@vgui@@UAEXW4MouseCode@2@PAVPanel@2@@Z 10046356 f   vgui:vgui.dll
 0001:0004535c       ?privateMouseReleased@HeaderPanel@vgui@@UAEXW4MouseCode@2@PAVPanel@2@@Z 1004635c f   vgui:vgui.dll
 0001:00045362       ?setGridSize@TextGrid@vgui@@UAEXHH@Z 10046362 f   vgui:vgui.dll
 0001:00045368       ?newLine@TextGrid@vgui@@UAEXXZ 10046368 f   vgui:vgui.dll
 0001:0004536e       ?setXY@TextGrid@vgui@@UAEXHH@Z 1004636e f   vgui:vgui.dll
 0001:00045374       ?vprintf@TextGrid@vgui@@UAEHPBDPAD@Z 10046374 f   vgui:vgui.dll
 0001:0004537a       ?printf@TextGrid@vgui@@UAAHPBDZZ 1004637a f   vgui:vgui.dll
 0001:00045380       ?paintBackground@TextGrid@vgui@@MAEXXZ 10046380 f   vgui:vgui.dll
 0001:00045386       ??0Label@vgui@@QAE@PBD@Z   10046386 f   vgui:vgui.dll
 0001:0004538c       ??0ImagePanel@vgui@@QAE@PAVImage@1@@Z 1004638c f   vgui:vgui.dll
 0001:00045392       ??0Label@vgui@@QAE@PBDHH@Z 10046392 f   vgui:vgui.dll
 0001:00045398       ??0LineBorder@vgui@@QAE@VColor@1@@Z 10046398 f   vgui:vgui.dll
 0001:0004539e       ??0TextPanel@vgui@@QAE@PBDHHHH@Z 1004639e f   vgui:vgui.dll
 0001:000453a4       ?setText@TextEntry@vgui@@UAEXPBDH@Z 100463a4 f   vgui:vgui.dll
 0001:000453aa       ?getText@TextEntry@vgui@@UAEXHPADH@Z 100463aa f   vgui:vgui.dll
 0001:000453b0       ?resetCursorBlink@TextEntry@vgui@@UAEXXZ 100463b0 f   vgui:vgui.dll
 0001:000453b6       ?doGotoLeft@TextEntry@vgui@@UAEXXZ 100463b6 f   vgui:vgui.dll
 0001:000453bc       ?doGotoRight@TextEntry@vgui@@UAEXXZ 100463bc f   vgui:vgui.dll
 0001:000453c2       ?doGotoFirstOfLine@TextEntry@vgui@@UAEXXZ 100463c2 f   vgui:vgui.dll
 0001:000453c8       ?doGotoEndOfLine@TextEntry@vgui@@UAEXXZ 100463c8 f   vgui:vgui.dll
 0001:000453ce       ?doInsertChar@TextEntry@vgui@@UAEXD@Z 100463ce f   vgui:vgui.dll
 0001:000453d4       ?doBackspace@TextEntry@vgui@@UAEXXZ 100463d4 f   vgui:vgui.dll
 0001:000453da       ?doDelete@TextEntry@vgui@@UAEXXZ 100463da f   vgui:vgui.dll
 0001:000453e0       ?doSelectNone@TextEntry@vgui@@UAEXXZ 100463e0 f   vgui:vgui.dll
 0001:000453e6       ?doCopySelected@TextEntry@vgui@@UAEXXZ 100463e6 f   vgui:vgui.dll
 0001:000453ec       ?doPaste@TextEntry@vgui@@UAEXXZ 100463ec f   vgui:vgui.dll
 0001:000453f2       ?doPasteSelected@TextEntry@vgui@@UAEXXZ 100463f2 f   vgui:vgui.dll
 0001:000453f8       ?doDeleteSelected@TextEntry@vgui@@UAEXXZ 100463f8 f   vgui:vgui.dll
 0001:000453fe       ?addActionSignal@TextEntry@vgui@@UAEXPAVActionSignal@2@@Z 100463fe f   vgui:vgui.dll
 0001:00045404       ?setFont@TextEntry@vgui@@UAEXPAVFont@2@@Z 10046404 f   vgui:vgui.dll
 0001:0004540a       ?setTextHidden@TextEntry@vgui@@UAEX_N@Z 1004640a f   vgui:vgui.dll
 0001:00045410       ?paintBackground@TextEntry@vgui@@MAEXXZ 10046410 f   vgui:vgui.dll
 0001:00045416       ?setCharAt@TextEntry@vgui@@MAEXDH@Z 10046416 f   vgui:vgui.dll
 0001:0004541c       ?fireActionSignal@TextEntry@vgui@@MAEXXZ 1004641c f   vgui:vgui.dll
 0001:00045422       ?getSelectedRange@TextEntry@vgui@@MAE_NAAH0@Z 10046422 f   vgui:vgui.dll
 0001:00045428       ?getSelectedPixelRange@TextEntry@vgui@@MAE_NAAH0@Z 10046428 f   vgui:vgui.dll
 0001:0004542e       ?cursorToPixelSpace@TextEntry@vgui@@MAEHH@Z 1004642e f   vgui:vgui.dll
 0001:00045434       ?selectCheck@TextEntry@vgui@@MAEXXZ 10046434 f   vgui:vgui.dll
 0001:0004543a       ?cursorMoved@TextEntry@vgui@@MAEXHHPAVPanel@2@@Z 1004643a f   vgui:vgui.dll
 0001:00045440       ?cursorEntered@TextEntry@vgui@@MAEXPAVPanel@2@@Z 10046440 f   vgui:vgui.dll
 0001:00045446       ?cursorExited@TextEntry@vgui@@MAEXPAVPanel@2@@Z 10046446 f   vgui:vgui.dll
 0001:0004544c       ?mousePressed@TextEntry@vgui@@MAEXW4MouseCode@2@PAVPanel@2@@Z 1004644c f   vgui:vgui.dll
 0001:00045452       ?mouseDoublePressed@TextEntry@vgui@@MAEXW4MouseCode@2@PAVPanel@2@@Z 10046452 f   vgui:vgui.dll
 0001:00045458       ?mouseReleased@TextEntry@vgui@@MAEXW4MouseCode@2@PAVPanel@2@@Z 10046458 f   vgui:vgui.dll
 0001:0004545e       ?mouseWheeled@TextEntry@vgui@@MAEXHPAVPanel@2@@Z 1004645e f   vgui:vgui.dll
 0001:00045464       ?keyPressed@TextEntry@vgui@@MAEXW4KeyCode@2@PAVPanel@2@@Z 10046464 f   vgui:vgui.dll
 0001:0004546a       ?keyTyped@TextEntry@vgui@@MAEXW4KeyCode@2@PAVPanel@2@@Z 1004646a f   vgui:vgui.dll
 0001:00045470       ?keyReleased@TextEntry@vgui@@MAEXW4KeyCode@2@PAVPanel@2@@Z 10046470 f   vgui:vgui.dll
 0001:00045476       ?keyFocusTicked@TextEntry@vgui@@MAEXPAVPanel@2@@Z 10046476 f   vgui:vgui.dll
 0001:0004547c       ?paint@EtchedBorder@vgui@@MAEXPAVPanel@2@@Z 1004647c f   vgui:vgui.dll
 0001:00045482       ?paint@LoweredBorder@vgui@@MAEXPAVPanel@2@@Z 10046482 f   vgui:vgui.dll
 0001:00045488       ??0HeaderPanel@vgui@@QAE@HHHH@Z 10046488 f   vgui:vgui.dll
 0001:0004548e       ??0TablePanel@vgui@@QAE@HHHHH@Z 1004648e f   vgui:vgui.dll
 0001:00045494       ??0Label@vgui@@QAE@PBDHHHH@Z 10046494 f   vgui:vgui.dll
 0001:0004549a       ??0ScrollPanel@vgui@@QAE@HHHH@Z 1004649a f   vgui:vgui.dll
 0001:000454a0       ?seekStart@DataInputStream@vgui@@UAEXAA_N@Z 100464a0 f   vgui:vgui.dll
 0001:000454a6       ?seekRelative@DataInputStream@vgui@@UAEXHAA_N@Z 100464a6 f   vgui:vgui.dll
 0001:000454ac       ?seekEnd@DataInputStream@vgui@@UAEXAA_N@Z 100464ac f   vgui:vgui.dll
 0001:000454b2       ?getAvailable@DataInputStream@vgui@@UAEHAA_N@Z 100464b2 f   vgui:vgui.dll
 0001:000454b8       ?readUChar@DataInputStream@vgui@@UAEXPAEHAA_N@Z 100464b8 f   vgui:vgui.dll
 0001:000454be       ?close@DataInputStream@vgui@@UAEXAA_N@Z 100464be f   vgui:vgui.dll
 0001:000454c4       ?close@DataInputStream@vgui@@UAEXXZ 100464c4 f   vgui:vgui.dll
 0001:000454ca       ?readBool@DataInputStream@vgui@@UAE_NAA_N@Z 100464ca f   vgui:vgui.dll
 0001:000454d0       ?readChar@DataInputStream@vgui@@UAEDAA_N@Z 100464d0 f   vgui:vgui.dll
 0001:000454d6       ?readUChar@DataInputStream@vgui@@UAEEAA_N@Z 100464d6 f   vgui:vgui.dll
 0001:000454dc       ?readShort@DataInputStream@vgui@@UAEFAA_N@Z 100464dc f   vgui:vgui.dll
 0001:000454e2       ?readUShort@DataInputStream@vgui@@UAEGAA_N@Z 100464e2 f   vgui:vgui.dll
 0001:000454e8       ?readInt@DataInputStream@vgui@@UAEHAA_N@Z 100464e8 f   vgui:vgui.dll
 0001:000454ee       ?readUInt@DataInputStream@vgui@@UAEIAA_N@Z 100464ee f   vgui:vgui.dll
 0001:000454f4       ?readLong@DataInputStream@vgui@@UAEJAA_N@Z 100464f4 f   vgui:vgui.dll
 0001:000454fa       ?readULong@DataInputStream@vgui@@UAEKAA_N@Z 100464fa f   vgui:vgui.dll
 0001:00045500       ?readFloat@DataInputStream@vgui@@UAEMAA_N@Z 10046500 f   vgui:vgui.dll
 0001:00045506       ?readDouble@DataInputStream@vgui@@UAENAA_N@Z 10046506 f   vgui:vgui.dll
 0001:0004550c       ?readLine@DataInputStream@vgui@@UAEXPADHAA_N@Z 1004650c f   vgui:vgui.dll
 0001:00045512       ??0BitmapTGA@vgui@@QAE@PAVInputStream@1@_N@Z 10046512 f   vgui:vgui.dll
 0001:00045518       ??0Button@vgui@@QAE@PBDHHHH@Z 10046518 f   vgui:vgui.dll
 0001:0004551e       ??0FileInputStream@vgui@@QAE@PBD_N@Z 1004651e f   vgui:vgui.dll
 0001:00045524       ??0Slider@vgui@@QAE@HHHH_N@Z 10046524 f   vgui:vgui.dll
 0001:0004552a       ??0BorderLayout@vgui@@QAE@H@Z 1004652a f   vgui:vgui.dll
 0001:00045530       ?performLayout@BorderLayout@vgui@@UAEXPAVPanel@2@@Z 10046530 f   vgui:vgui.dll
 0001:00045536       ?createLayoutInfo@BorderLayout@vgui@@UAEPAVLayoutInfo@2@W4Alignment@12@@Z 10046536 f   vgui:vgui.dll
 0001:0004553c       ?getPanel@SurfaceBase@vgui@@UAEPAVPanel@2@XZ 1004653c f   vgui:vgui.dll
 0001:00045542       ?requestSwap@SurfaceBase@vgui@@UAEXXZ 10046542 f   vgui:vgui.dll
 0001:00045548       ?resetModeInfo@SurfaceBase@vgui@@UAEXXZ 10046548 f   vgui:vgui.dll
 0001:0004554e       ?getModeInfoCount@SurfaceBase@vgui@@UAEHXZ 1004654e f   vgui:vgui.dll
 0001:00045554       ?getModeInfo@SurfaceBase@vgui@@UAE_NHAAH00@Z 10046554 f   vgui:vgui.dll
 0001:0004555a       ?getApp@SurfaceBase@vgui@@UAEPAVApp@2@XZ 1004655a f   vgui:vgui.dll
 0001:00045560       ?setEmulatedCursorVisible@SurfaceBase@vgui@@UAEX_N@Z 10046560 f   vgui:vgui.dll
 0001:00045566       ?setEmulatedCursorPos@SurfaceBase@vgui@@UAEXHH@Z 10046566 f   vgui:vgui.dll
 0001:0004556c       ?addModeInfo@SurfaceBase@vgui@@MAEXHHH@Z 1004656c f   vgui:vgui.dll
 0001:00045572       ??0Font@vgui@@QAE@PBDPAXHHHMH_N222@Z 10046572 f   vgui:vgui.dll
 0001:00045578       ??0Color@vgui@@QAE@XZ      10046578 f   vgui:vgui.dll
 0001:0004557e       ??0Image@vgui@@QAE@XZ      1004657e f   vgui:vgui.dll
 0001:00045584       ??0TextImage@vgui@@QAE@PBD@Z 10046584 f   vgui:vgui.dll
 0001:0004558a       ??1SurfaceBase@vgui@@IAE@XZ 1004658a f   vgui:vgui.dll
 0001:00045590       ?setTitle@Surface@vgui@@UAEXPBD@Z 10046590 f   vgui:vgui.dll
 0001:00045596       ?setFullscreenMode@Surface@vgui@@UAE_NHHH@Z 10046596 f   vgui:vgui.dll
 0001:0004559c       ?setWindowedMode@Surface@vgui@@UAEXXZ 1004659c f   vgui:vgui.dll
 0001:000455a2       ?setAsTopMost@Surface@vgui@@UAEX_N@Z 100465a2 f   vgui:vgui.dll
 0001:000455a8       ?getModeInfoCount@Surface@vgui@@UAEHXZ 100465a8 f   vgui:vgui.dll
 0001:000455ae       ?createPopup@Surface@vgui@@UAEXPAVPanel@2@@Z 100465ae f   vgui:vgui.dll
 0001:000455b4       ?hasFocus@Surface@vgui@@UAE_NXZ 100465b4 f   vgui:vgui.dll
 0001:000455ba       ?isWithin@Surface@vgui@@UAE_NHH@Z 100465ba f   vgui:vgui.dll
 0001:000455c0       ?createNewTextureID@Surface@vgui@@MAEHXZ 100465c0 f   vgui:vgui.dll
 0001:000455c6       ?drawSetColor@Surface@vgui@@MAEXHHHH@Z 100465c6 f   vgui:vgui.dll
 0001:000455cc       ?drawFilledRect@Surface@vgui@@MAEXHHHH@Z 100465cc f   vgui:vgui.dll
 0001:000455d2       ?drawOutlinedRect@Surface@vgui@@MAEXHHHH@Z 100465d2 f   vgui:vgui.dll
 0001:000455d8       ?drawSetTextFont@Surface@vgui@@MAEXPAVFont@2@@Z 100465d8 f   vgui:vgui.dll
 0001:000455de       ?drawSetTextColor@Surface@vgui@@MAEXHHHH@Z 100465de f   vgui:vgui.dll
 0001:000455e4       ?drawSetTextPos@Surface@vgui@@MAEXHH@Z 100465e4 f   vgui:vgui.dll
 0001:000455ea       ?drawPrintText@Surface@vgui@@MAEXPBDH@Z 100465ea f   vgui:vgui.dll
 0001:000455f0       ?drawSetTextureRGBA@Surface@vgui@@MAEXHPBDHH@Z 100465f0 f   vgui:vgui.dll
 0001:000455f6       ?drawSetTexture@Surface@vgui@@MAEXH@Z 100465f6 f   vgui:vgui.dll
 0001:000455fc       ?drawTexturedRect@Surface@vgui@@MAEXHHHH@Z 100465fc f   vgui:vgui.dll
 0001:00045602       ?invalidate@Surface@vgui@@MAEXPAVPanel@2@@Z 10046602 f   vgui:vgui.dll
 0001:00045608       ?createPlat@Surface@vgui@@MAE_NXZ 10046608 f   vgui:vgui.dll
 0001:0004560e       ?recreateContext@Surface@vgui@@MAE_NXZ 1004660e f   vgui:vgui.dll
 0001:00045614       ?enableMouseCapture@Surface@vgui@@MAEX_N@Z 10046614 f   vgui:vgui.dll
 0001:0004561a       ?setCursor@Surface@vgui@@MAEXPAVCursor@2@@Z 1004661a f   vgui:vgui.dll
 0001:00045620       ?swapBuffers@Surface@vgui@@MAEXXZ 10046620 f   vgui:vgui.dll
 0001:00045626       ?pushMakeCurrent@Surface@vgui@@MAEXPAVPanel@2@_N@Z 10046626 f   vgui:vgui.dll
 0001:0004562c       ?popMakeCurrent@Surface@vgui@@MAEXPAVPanel@2@@Z 1004662c f   vgui:vgui.dll
 0001:00045632       ?applyChanges@Surface@vgui@@MAEXXZ 10046632 f   vgui:vgui.dll
 0001:00045638       ?paintBackground@MenuSeparator@vgui@@MAEXXZ 10046638 f   vgui:vgui.dll
 0001:0004563e       ?getInstance@App@vgui@@SAPAV12@XZ 1004663e f   vgui:vgui.dll
 0001:00045644       ?setEnabled@BuildGroup@vgui@@UAEX_N@Z 10046644 f   vgui:vgui.dll
 0001:0004564a       ?isEnabled@BuildGroup@vgui@@UAE_NXZ 1004664a f   vgui:vgui.dll
 0001:00045650       ?addCurrentPanelChangeSignal@BuildGroup@vgui@@UAEXPAVChangeSignal@2@@Z 10046650 f   vgui:vgui.dll
 0001:00045656       ?getCurrentPanel@BuildGroup@vgui@@UAEPAVPanel@2@XZ 10046656 f   vgui:vgui.dll
 0001:0004565c       ?copyPropertiesToClipboard@BuildGroup@vgui@@UAEXXZ 1004665c f   vgui:vgui.dll
 0001:00045662       ?applySnap@BuildGroup@vgui@@EAEXPAVPanel@2@@Z 10046662 f   vgui:vgui.dll
 0001:00045668       ?fireCurrentPanelChangeSignal@BuildGroup@vgui@@EAEXXZ 10046668 f   vgui:vgui.dll
 0001:0004566e       ?panelAdded@BuildGroup@vgui@@MAEXPAVPanel@2@PBD@Z 1004666e f   vgui:vgui.dll
 0001:00045674       ?cursorMoved@BuildGroup@vgui@@MAEXHHPAVPanel@2@@Z 10046674 f   vgui:vgui.dll
 0001:0004567a       ?mousePressed@BuildGroup@vgui@@MAEXW4MouseCode@2@PAVPanel@2@@Z 1004667a f   vgui:vgui.dll
 0001:00045680       ?mouseReleased@BuildGroup@vgui@@MAEXW4MouseCode@2@PAVPanel@2@@Z 10046680 f   vgui:vgui.dll
 0001:00045686       ?mouseDoublePressed@BuildGroup@vgui@@MAEXW4MouseCode@2@PAVPanel@2@@Z 10046686 f   vgui:vgui.dll
 0001:0004568c       ?keyTyped@BuildGroup@vgui@@MAEXW4KeyCode@2@PAVPanel@2@@Z 1004668c f   vgui:vgui.dll
 0001:00045692       ?getCursor@BuildGroup@vgui@@MAEPAVCursor@2@PAVPanel@2@@Z 10046692 f   vgui:vgui.dll
 0001:00045698       _htons@4                   10046698 f   wsock32:WSOCK32.dll
 0001:0004569e       __purecall                 1004669e f   LIBCMT:purevirt.obj
 0001:000456c8       ??0bad_alloc@std@@QAE@ABV01@@Z 100466c8 f i LIBCMT:new.obj
 0001:000456e3       ??1bad_alloc@std@@UAE@XZ   100466e3 f i LIBCMT:new.obj
 0001:000456ee       ??2@YAPAXI@Z               100466ee f   LIBCMT:new.obj
 0001:0004573d       ??_Gbad_alloc@std@@UAEPAXI@Z 1004673d f i LIBCMT:new.obj
 0001:0004573d       ??_Ebad_alloc@std@@UAEPAXI@Z 1004673d f i LIBCMT:new.obj
 0001:00045762       ??3@YAXPAX@Z               10046762 f   LIBCMT:delete.obj
 0001:00045767       _sprintf                   10046767 f   LIBCMT:sprintf.obj
 0001:000457e9       ___copy_path_to_wide_string 100467e9 f   LIBCMT:crt0dat.obj
 0001:00045899       ___crtCorExitProcess       10046899 f   LIBCMT:crt0dat.obj
 0001:000458cb       ___crtExitProcess          100468cb f   LIBCMT:crt0dat.obj
 0001:000458e1       ___freeCrtMemory           100468e1 f   LIBCMT:crt0dat.obj
 0001:000459e8       __amsg_exit                100469e8 f   LIBCMT:crt0dat.obj
 0001:00045a04       __cexit                    10046a04 f   LIBCMT:crt0dat.obj
 0001:00045a13       __cinit                    10046a13 f   LIBCMT:crt0dat.obj
 0001:00045aa4       __exit                     10046aa4 f   LIBCMT:crt0dat.obj
 0001:00045ab8       __init_pointers            10046ab8 f   LIBCMT:crt0dat.obj
 0001:00045b08       __initterm_e               10046b08 f   LIBCMT:crt0dat.obj
 0001:00045b2a       __lockexit                 10046b2a f   LIBCMT:crt0dat.obj
 0001:00045b33       __unlockexit               10046b33 f   LIBCMT:crt0dat.obj
 0001:00045c6b       _exit                      10046c6b f   LIBCMT:crt0dat.obj
 0001:00045c7f       @__security_check_cookie@4 10046c7f f   LIBCMT:secchk.obj
 0001:00045c90       _memset                    10046c90 f   LIBCMT:memset.obj
 0001:00045d20       ??1type_info@@UAE@XZ       10046d20 f   LIBCMT:typinfo.obj
 0001:00045d2e       ??8type_info@@QBE_NABV0@@Z 10046d2e f   LIBCMT:typinfo.obj
 0001:00045d4c       ??_Etype_info@@UAEPAXI@Z   10046d4c f i LIBCMT:typinfo.obj
 0001:00045d4c       ??_Gtype_info@@UAEPAXI@Z   10046d4c f i LIBCMT:typinfo.obj
 0001:00045d6b       __fpmath                   10046d6b f   LIBCMT:fpinit.obj
 0001:00045d82       __cfltcvt_init             10046d82 f   LIBCMT:fpinit.obj
 0001:00045de2       ___onexitinit              10046de2 f   LIBCMT:onexit.obj
 0001:00045e11       __onexit                   10046e11 f   LIBCMT:onexit.obj
 0001:00045f07       _atexit                    10046f07 f   LIBCMT:onexit.obj
 0001:00045f1c       __fclose_nolock            10046f1c f   LIBCMT:fclose.obj
 0001:00045f88       _fclose                    10046f88 f   LIBCMT:fclose.obj
 0001:00045fff       __fsopen                   10046fff f   LIBCMT:fopen.obj
 0001:000460c3       _fopen                     100470c3 f   LIBCMT:fopen.obj
 0001:000460d8       __vsprintf_l               100470d8 f   LIBCMT:vsprintf.obj
 0001:0004615a       _vsprintf                  1004715a f   LIBCMT:vsprintf.obj
 0001:00046180       _memmove                   10047180 f   LIBCMT:memmove.obj
 0001:000467d0       _strncat                   100477d0 f   LIBCMT:strncat.obj
 0001:00046910       _strncpy                   10047910 f   LIBCMT:strncpy.obj
 0001:00046a40       __chkstk                   10047a40 f   LIBCMT:chkstk.obj
 0001:00046a40       __alloca_probe             10047a40     LIBCMT:chkstk.obj
 0001:00046a70       _memcpy                    10047a70 f   LIBCMT:memcpy.obj
 0001:000470b4       _atoi                      100480b4 f   LIBCMT:atox.obj
 0001:000470bd       _atol                      100480bd f   LIBCMT:atox.obj
 0001:000470d1       _rand                      100480d1 f   LIBCMT:rand.obj
 0001:000470f4       _srand                     100480f4 f   LIBCMT:rand.obj
 0001:000471d2       ?_CallCatchBlock2@@YAPAXPAUEHRegistrationNode@@PBU_s_FuncInfo@@PAXHK@Z 100481d2 f   LIBCMT:_trnsctrl_.obj
 0001:00047230       ?_CallMemberFunction0@@YGXPAX0@Z 10048230 f   LIBCMT:_trnsctrl_.obj
 0001:00047230       ?_CallMemberFunction2@@YGXPAX00H@Z 10048230 f   LIBCMT:_trnsctrl_.obj
 0001:00047230       ?_CallMemberFunction1@@YGXPAX00@Z 10048230 f   LIBCMT:_trnsctrl_.obj
 0001:00047237       ?_CallSETranslator@@YAHPAUEHExceptionRecord@@PAUEHRegistrationNode@@PAX2PBU_s_FuncInfo@@H1@Z 10048237 f   LIBCMT:_trnsctrl_.obj
 0001:0004730c       ?_GetRangeOfTrysToCheck@@YAPBU_s_TryBlockMapEntry@@PBU_s_FuncInfo@@HHPAI1@Z 1004830c f   LIBCMT:_trnsctrl_.obj
 0001:0004738b       ?_JumpToContinuation@@YGXPAXPAUEHRegistrationNode@@@Z 1004838b f   LIBCMT:_trnsctrl_.obj
 0001:000473bb       ?_UnwindNestedFrames@@YGXPAUEHRegistrationNode@@PAUEHExceptionRecord@@@Z 100483bb f   LIBCMT:_trnsctrl_.obj
 0001:0004740e       __CreateFrameInfo          1004840e f   LIBCMT:_trnsctrl_.obj
 0001:00047438       __FindAndUnlinkFrame       10048438 f   LIBCMT:_trnsctrl_.obj
 0001:00047488       __IsExceptionObjectToBeDestroyed 10048488 f   LIBCMT:_trnsctrl_.obj
 0001:000474b1       ___CxxFrameHandler3        100484b1 f   LIBCMT:_trnsctrl_.obj
 0001:000474f0       __ftol2_sse                100484f0 f   LIBCMT:ftol2.obj
 0001:000474f9       __ftol2_pentium4           100484f9 f   LIBCMT:ftol2.obj
 0001:0004750c       __ftol2_sse_excpt          1004850c f   LIBCMT:ftol2.obj
 0001:00047526       __ftol2                    10048526 f   LIBCMT:ftol2.obj
 0001:000475a0       __libm_sse2_cos_precise    100485a0 f   LIBCMT:cos_sse2_precise.obj
 0001:00047760       __libm_sse2_sin_precise    10048760 f   LIBCMT:sin_sse2_precise.obj
 0001:00047928       __time64                   10048928 f   LIBCMT:time64.obj
 0001:00047980       __libm_sse2_sqrt_precise   10048980 f   LIBCMT:sqrt_sse2_precise.obj
 0001:00047a80       _free                      10048a80 f   LIBCMT:free.obj
 0001:00047ab8       _malloc                    10048ab8 f   LIBCMT:malloc.obj
 0001:00047b50       _strncmp                   10048b50 f   LIBCMT:strncmp.obj
 0001:00047bc8       ??0_LocaleUpdate@@QAE@PAUlocaleinfo_struct@@@Z 10048bc8 f i LIBCMT:atof.obj
 0001:00047c50       __atof_l                   10048c50 f   LIBCMT:atof.obj
 0001:00047cec       _atof                      10048cec f   LIBCMT:atof.obj
 0001:00047d00       _qsort                     10048d00 f   LIBCMT:qsort.obj
 0001:0004802c       ___raise_securityfailure   1004902c f   LIBCMT:gs_report.obj
 0001:00048069       ___report_gsfailure        10049069 f   LIBCMT:gs_report.obj
 0001:00048162       ___report_rangecheckfailure 10049162 f   LIBCMT:gs_report.obj
 0001:0004816e       ___report_securityfailure  1004916e f   LIBCMT:gs_report.obj
 0001:0004823c       __isalnum_l                1004923c f i LIBCMT:_ctype.obj
 0001:00048292       __isalpha_l                10049292 f i LIBCMT:_ctype.obj
 0001:000482e8       __isdigit_l                100492e8 f i LIBCMT:_ctype.obj
 0001:00048338       __isspace_l                10049338 f i LIBCMT:_ctype.obj
 0001:00048388       __isxdigit_l               10049388 f i LIBCMT:_ctype.obj
 0001:000483de       _isalnum                   100493de f i LIBCMT:_ctype.obj
 0001:0004840b       _isalpha                   1004940b f i LIBCMT:_ctype.obj
 0001:00048438       _isdigit                   10049438 f i LIBCMT:_ctype.obj
 0001:00048463       _isspace                   10049463 f i LIBCMT:_ctype.obj
 0001:0004848e       _isxdigit                  1004948e f i LIBCMT:_ctype.obj
 0001:000484c0       __libm_sse2_pow_precise    100494c0 f   LIBCMT:pow_sse2_precise.obj
 0001:00049030       _atan2                     1004a030 f   LIBCMT:87ctriga.obj
 0001:0004903a       __CIatan2                  1004a03a f   LIBCMT:87ctriga.obj
 0001:00049050       __libm_sse2_acos_precise   1004a050 f   LIBCMT:acos_sse2_precise.obj
 0001:00049570       __toupper_l                1004a570 f   LIBCMT:toupper.obj
 0001:000496b2       _toupper                   1004a6b2 f   LIBCMT:toupper.obj
 0001:000496e0       _strstr                    1004a6e0 f   LIBCMT:strstr.obj
 0001:00049943       _system                    1004a943 f   LIBCMT:system.obj
 0001:00049a22       _sscanf                    1004aa22 f   LIBCMT:sscanf.obj
 0001:00049ab1       ??_L@YGXPAXIHP6EX0@Z1@Z    1004aab1 f   LIBCMT:ehvecctr.obj
 0001:00049b19       ??_M@YGXPAXIHP6EX0@Z@Z     1004ab19 f   LIBCMT:ehvecdtr.obj
 0001:00049b88       ?__ArrayUnwind@@YGXPAXIHP6EX0@Z@Z 1004ab88 f   LIBCMT:ehvecdtr.obj
 0001:00049be6       __snprintf                 1004abe6 f   LIBCMT:snprintf.obj
 0001:00049c90       _strchr                    1004ac90 f   LIBCMT:strchr.obj
 0001:00049cfe       ___from_strstr_to_strchr   1004acfe     LIBCMT:strchr.obj
 0001:00049dbb       __fread_nolock_s           1004adbb f   LIBCMT:fread.obj
 0001:00049f7e       _fread                     1004af7e f   LIBCMT:fread.obj
 0001:00049f99       _fread_s                   1004af99 f   LIBCMT:fread.obj
 0001:0004a02a       __fseek_nolock             1004b02a f   LIBCMT:fseek.obj
 0001:0004a0b9       _fseek                     1004b0b9 f   LIBCMT:fseek.obj
 0001:0004a138       __ftell_nolock             1004b138 f   LIBCMT:ftell.obj
 0001:0004a491       _ftell                     1004b491 f   LIBCMT:ftell.obj
 0001:0004a4f9       __fwrite_nolock            1004b4f9 f   LIBCMT:fwrite.obj
 0001:0004a650       _fwrite                    1004b650 f   LIBCMT:fwrite.obj
 0001:0004a6d0       _fmod                      1004b6d0 f   LIBCMT:87fmod.obj
 0001:0004a6da       __CIfmod                   1004b6da f   LIBCMT:87fmod.obj
 0001:0004a6f2       __CRT_INIT@12              1004b6f2 f   LIBCMT:dllcrt0.obj
 0001:0004a85e       __DllMainCRTStartup@12     1004b85e f   LIBCMT:dllcrt0.obj
 0001:0004a98f       ___DllXcptFilter           1004b98f f   LIBCMT:dllcrt0.obj
 0001:0004a9b4       __FF_MSGBANNER             1004b9b4 f   LIBCMT:crt0msg.obj
 0001:0004a9ed       __GET_RTERRMSG             1004b9ed f   LIBCMT:crt0msg.obj
 0001:0004aa11       __NMSG_WRITE               1004ba11 f   LIBCMT:crt0msg.obj
 0001:0004abcc       __set_abort_behavior       1004bbcc f   LIBCMT:abort.obj
 0001:0004abeb       _abort                     1004bbeb f   LIBCMT:abort.obj
 0001:0004ac2e       __initp_misc_purevirt      1004bc2e f   LIBCMT:inithelp.obj
 0001:0004ac3b       ??0exception@std@@QAE@ABQBD@Z 1004bc3b f   LIBCMT:stdexcpt.obj
 0001:0004ac60       ??0exception@std@@QAE@ABQBDH@Z 1004bc60 f   LIBCMT:stdexcpt.obj
 0001:0004ac7b       ??0exception@std@@QAE@ABV01@@Z 1004bc7b f   LIBCMT:stdexcpt.obj
 0001:0004ac9e       ??1exception@std@@UAE@XZ   1004bc9e f   LIBCMT:stdexcpt.obj
 0001:0004aca9       ??4exception@std@@QAEAAV01@ABV01@@Z 1004bca9 f   LIBCMT:stdexcpt.obj
 0001:0004acdc       ??_Eexception@std@@UAEPAXI@Z 1004bcdc f i LIBCMT:stdexcpt.obj
 0001:0004acdc       ??_Gexception@std@@UAEPAXI@Z 1004bcdc f i LIBCMT:stdexcpt.obj
 0001:0004ad01       ?_Copy_str@exception@std@@AAEXPBD@Z 1004bd01 f   LIBCMT:stdexcpt.obj
 0001:0004ad3f       ?_Tidy@exception@std@@AAEXXZ 1004bd3f f   LIBCMT:stdexcpt.obj
 0001:0004ad5b       ?what@exception@std@@UBEPBDXZ 1004bd5b f   LIBCMT:stdexcpt.obj
 0001:0004ad68       __callnewh                 1004bd68 f   LIBCMT:handler.obj
 0001:0004ad8e       __initp_heap_handler       1004bd8e f   LIBCMT:handler.obj
 0001:0004ad9b       __CxxThrowException@8      1004bd9b f   LIBCMT:throw.obj
 0001:0004adf6       __call_reportfault         1004bdf6 f   LIBCMT:invarg.obj
 0001:0004af19       __initp_misc_invarg        1004bf19 f   LIBCMT:invarg.obj
 0001:0004af26       __invalid_parameter        1004bf26 f   LIBCMT:invarg.obj
 0001:0004af51       __invalid_parameter_noinfo 1004bf51 f   LIBCMT:invarg.obj
 0001:0004af61       __invoke_watson            1004bf61 f   LIBCMT:invarg.obj
 0001:0004af8c       __flsbuf                   1004bf8c f   LIBCMT:_flsbuf.obj
 0001:0004b0e8       __output_l                 1004c0e8 f   LIBCMT:output.obj
 0001:0004bd76       ___doserrno                1004cd76 f   LIBCMT:dosmap.obj
 0001:0004bd89       __dosmaperr                1004cd89 f   LIBCMT:dosmap.obj
 0001:0004bdaa       __errno                    1004cdaa f   LIBCMT:dosmap.obj
 0001:0004bdbd       __get_errno_from_oserr     1004cdbd f   LIBCMT:dosmap.obj
 0001:0004bdfe       __RTC_Initialize           1004cdfe f   LIBCMT:initsect.obj
 0001:0004be1e       __RTC_Terminate            1004ce1e f   LIBCMT:initsect.obj
 0001:0004be3e       __lock                     1004ce3e f   LIBCMT:mlock.obj
 0001:0004be72       __mtdeletelocks            1004ce72 f   LIBCMT:mlock.obj
 0001:0004bec6       __mtinitlocknum            1004cec6 f   LIBCMT:mlock.obj
 0001:0004bf6d       __mtinitlocks              1004cf6d f   LIBCMT:mlock.obj
 0001:0004bfa2       __unlock                   1004cfa2 f   LIBCMT:mlock.obj
 0001:0004bfb7       ___crtFlsAlloc             1004cfb7 f   LIBCMT:winapisupp.obj
 0001:0004bfc5       ___crtFlsFree              1004cfc5 f   LIBCMT:winapisupp.obj
 0001:0004bfd3       ___crtFlsGetValue          1004cfd3 f   LIBCMT:winapisupp.obj
 0001:0004bfe1       ___crtFlsSetValue          1004cfe1 f   LIBCMT:winapisupp.obj
 0001:0004bff2       ___crtIsPackagedApp        1004cff2 f   LIBCMT:winapisupp.obj
 0001:0004c03e       ___crtTerminateProcess     1004d03e f   LIBCMT:winapisupp.obj
 0001:0004c053       ___crtUnhandledException   1004d053 f   LIBCMT:winapisupp.obj
 0001:0004c070       __FindPESection            1004d070 f   LIBCMT:pesect.obj
 0001:0004c0c0       __IsNonwritableInCurrentImage 1004d0c0 f   LIBCMT:pesect.obj
 0001:0004c180       __ValidateImageBase        1004d180 f   LIBCMT:pesect.obj
 0001:0004c1b1       __calloc_crt               1004d1b1 f   LIBCMT:crtheap.obj
 0001:0004c1fb       __malloc_crt               1004d1fb f   LIBCMT:crtheap.obj
 0001:0004c244       __realloc_crt              1004d244 f   LIBCMT:crtheap.obj
 0001:0004c290       __recalloc_crt             1004d290 f   LIBCMT:crtheap.obj
 0001:0004c2e0       __initp_misc_cfltcvt_tab   1004d2e0 f   LIBCMT:cmiscdat.obj
 0001:0004c2ff       ?_inconsistency@@YAXXZ     1004d2ff f   LIBCMT:hooks.obj
 0001:0004c337       ?terminate@@YAXXZ          1004d337 f   LIBCMT:hooks.obj
 0001:0004c36b       ?unexpected@@YAXXZ         1004d36b f   LIBCMT:hooks.obj
 0001:0004c37e       __initp_eh_hooks           1004d37e f   LIBCMT:hooks.obj
 0001:0004c38f       __initp_misc_rand_s        1004d38f f   LIBCMT:rand_s.obj
 0001:0004c39c       ___get_sigabrt             1004d39c f   LIBCMT:winsig.obj
 0001:0004c3a9       __initp_misc_winsig        1004d3a9 f   LIBCMT:winsig.obj
 0001:0004c3c5       _raise                     1004d3c5 f   LIBCMT:winsig.obj
 0001:0004c5c0       __SEH_prolog4              1004d5c0 f   LIBCMT:sehprolg4.obj
 0001:0004c605       __SEH_epilog4              1004d605 f   LIBCMT:sehprolg4.obj
 0001:0004c620       __except_handler4          1004d620 f   LIBCMT:chandler4.obj
 0001:0004c7b5       ___initmbctable            1004d7b5 f   LIBCMT:mbctype.obj
 0001:0004ca70       ___updatetmbcinfo          1004da70 f   LIBCMT:mbctype.obj
 0001:0004cb15       __setmbcp                  1004db15 f   LIBCMT:mbctype.obj
 0001:0004ccc3       __setmbcp_nolock           1004dcc3 f   LIBCMT:mbctype.obj
 0001:0004ceb8       __VEC_memset               1004deb8 f   LIBCMT:p4_memset.obj
 0001:0004cf80       ___isa_available_init      1004df80 f   LIBCMT:cpu_disp.obj
 0001:0004d0c0       _strcmp                    1004e0c0 f   LIBCMT:strcmp.obj
 0001:0004d14c       ?_Type_info_dtor@type_info@@CAXPAV1@@Z 1004e14c f   LIBCMT:typname.obj
 0001:0004d1bd       __cfltcvt                  1004e1bd f   LIBCMT:cvt.obj
 0001:0004d1de       __cfltcvt_l                1004e1de f   LIBCMT:cvt.obj
 0001:0004d264       __cftoa_l                  1004e264 f   LIBCMT:cvt.obj
 0001:0004d5be       __cftoe                    1004e5be f   LIBCMT:cvt.obj
 0001:0004d72b       __cftoe_l                  1004e72b f   LIBCMT:cvt.obj
 0001:0004d8e1       __cftof_l                  1004e8e1 f   LIBCMT:cvt.obj
 0001:0004d9a0       __cftog_l                  1004e9a0 f   LIBCMT:cvt.obj
 0001:0004da9d       __cropzeros                1004ea9d f   LIBCMT:cvt.obj
 0001:0004daae       __cropzeros_l              1004eaae f   LIBCMT:cvt.obj
 0001:0004db2c       __fassign                  1004eb2c f   LIBCMT:cvt.obj
 0001:0004db44       __fassign_l                1004eb44 f   LIBCMT:cvt.obj
 0001:0004db84       __forcdecpt                1004eb84 f   LIBCMT:cvt.obj
 0001:0004db95       __forcdecpt_l              1004eb95 f   LIBCMT:cvt.obj
 0001:0004dc07       __positive                 1004ec07 f   LIBCMT:cvt.obj
 0001:0004dc49       __setdefaultprecision      1004ec49 f   LIBCMT:fp8.obj
 0001:0004dc70       __msize                    1004ec70 f   LIBCMT:msize.obj
 0001:0004dca1       __fileno                   1004eca1 f   LIBCMT:fileno.obj
 0001:0004dcc5       ___initstdio               1004ecc5 f   LIBCMT:_file.obj
 0001:0004dd38       ___endstdio                1004ed38 f   LIBCMT:_file.obj
 0001:0004dd5f       ___iob_func                1004ed5f f   LIBCMT:_file.obj
 0001:0004dd65       __lock_file                1004ed65 f   LIBCMT:_file.obj
 0001:0004dda4       __lock_file2               1004eda4 f   LIBCMT:_file.obj
 0001:0004ddd4       __unlock_file              1004edd4 f   LIBCMT:_file.obj
 0001:0004de0e       __unlock_file2             1004ee0e f   LIBCMT:_file.obj
 0001:0004de3b       __close                    1004ee3b f   LIBCMT:close.obj
 0001:0004df12       __close_nolock             1004ef12 f   LIBCMT:close.obj
 0001:0004dfba       __freebuf                  1004efba f   LIBCMT:_freebuf.obj
 0001:0004dfea       __fflush_nolock            1004efea f   LIBCMT:fflush.obj
 0001:0004e030       __flush                    1004f030 f   LIBCMT:fflush.obj
 0001:0004e094       __flushall                 1004f094 f   LIBCMT:fflush.obj
 0001:0004e181       __getstream                1004f181 f   LIBCMT:stream.obj
 0001:0004e299       __openfile                 1004f299 f   LIBCMT:_open.obj
 0001:0004e520       __local_unwind4            1004f520 f   LIBCMT:exsup4.obj
 0001:0004e5f6       __seh_longjmp_unwind4@4    1004f5f6 f   LIBCMT:exsup4.obj
 0001:0004e612       @_EH4_CallFilterFunc@8     1004f612 f   LIBCMT:exsup4.obj
 0001:0004e629       @_EH4_TransferToHandler@8  1004f629 f   LIBCMT:exsup4.obj
 0001:0004e642       @_EH4_GlobalUnwind2@8      1004f642 f   LIBCMT:exsup4.obj
 0001:0004e65b       @_EH4_LocalUnwind@16       1004f65b f   LIBCMT:exsup4.obj
 0001:0004e672       __ioinit                   1004f672 f   LIBCMT:ioinit.obj
 0001:0004e68e       __ioinit0                  1004f68e f   LIBCMT:ioinit.obj
 0001:0004e6ad       __ioinitCallback@12        1004f6ad f   LIBCMT:ioinit.obj
 0001:0004e97a       __ioterm                   1004f97a f   LIBCMT:ioinit.obj
 0001:0004ebf0       _strtol                    1004fbf0 f   LIBCMT:strtol.obj
 0001:0004ec1a       __freefls@4                1004fc1a f   LIBCMT:tidtable.obj
 0001:0004ed51       __freeptd                  1004fd51 f   LIBCMT:tidtable.obj
 0001:0004ed87       __getptd                   1004fd87 f   LIBCMT:tidtable.obj
 0001:0004ed9f       __getptd_noexit            1004fd9f f   LIBCMT:tidtable.obj
 0001:0004ee0e       __initptd                  1004fe0e f   LIBCMT:tidtable.obj
 0001:0004eeba       __mtinit                   1004feba f   LIBCMT:tidtable.obj
 0001:0004ef30       __mtterm                   1004ff30 f   LIBCMT:tidtable.obj
 0001:0004ef50       __CallSettingFrame@12      1004ff50 f   LIBCMT:lowhelpr.obj
 0001:0004ef77       __NLG_Return               1004ff77     LIBCMT:lowhelpr.obj
 0001:0004ef9c       ___DestructExceptionObject 1004ff9c f   LIBCMT:frame.obj
 0001:0004f027       ??0bad_exception@std@@QAE@ABV01@@Z 10050027 f i LIBCMT:frame.obj
 0001:0004f042       ??1bad_exception@std@@UAE@XZ 10050042 f i LIBCMT:frame.obj
 0001:0004f04d       ??_Gbad_exception@std@@UAEPAXI@Z 1005004d f i LIBCMT:frame.obj
 0001:0004f04d       ??_Ebad_exception@std@@UAEPAXI@Z 1005004d f i LIBCMT:frame.obj
 0001:0004f883       ___AdjustPointer           10050883 f   LIBCMT:frame.obj
 0001:0004f8a8       ___BuildCatchObject        100508a8 f   LIBCMT:frame.obj
 0001:0004f936       ___BuildCatchObjectHelper  10050936 f   LIBCMT:frame.obj
 0001:0004fabb       ___FrameUnwindFilter       10050abb f   LIBCMT:frame.obj
 0001:0004fb09       ___FrameUnwindToState      10050b09 f   LIBCMT:frame.obj
 0001:0004fbe2       ___InternalCxxFrameHandler 10050be2 f   LIBCMT:frame.obj
 0001:0004fcc1       ___TypeMatch               10050cc1 f   LIBCMT:frame.obj
 0001:0004fd20       _cos                       10050d20 f   LIBCMT:cos.obj
 0001:0004fd60       __CIcos                    10050d60 f   LIBCMT:cos.obj
 0001:0004fd9b       __CIcos_default            10050d9b f   LIBCMT:cos.obj
 0001:0004fdaf       __cos_default              10050daf     LIBCMT:cos.obj
 0001:0004fe50       _sin                       10050e50 f   LIBCMT:sin.obj
 0001:0004fe90       __CIsin                    10050e90 f   LIBCMT:sin.obj
 0001:0004fecb       __CIsin_default            10050ecb f   LIBCMT:sin.obj
 0001:0004fedf       __sin_default              10050edf     LIBCMT:sin.obj
 0001:0004ff80       __aulldiv                  10050f80 f   LIBCMT:ulldiv.obj
 0001:0004ffe8       ___libm_error_support      10050fe8 f   LIBCMT:libm_error.obj
 0001:000502d0       __CIsqrt                   100512d0 f   LIBCMT:sqrt.obj
 0001:000502e4       _sqrt                      100512e4     LIBCMT:sqrt.obj
 0001:0005038a       __heap_init                1005138a f   LIBCMT:heapinit.obj
 0001:0005039f       __heap_term                1005139f f   LIBCMT:heapinit.obj
 0001:000503a7       __fltin2                   100513a7 f   LIBCMT:cfin.obj
 0001:0005044c       ___strgtold12_l            1005144c f   LIBCMT:strgtold.obj
 0001:00050bc8       ___addlocaleref            10051bc8 f   LIBCMT:localref.obj
 0001:00050c58       ___freetlocinfo            10051c58 f   LIBCMT:localref.obj
 0001:00050db2       ___removelocaleref         10051db2 f   LIBCMT:localref.obj
 0001:00050e4d       ___updatetlocinfo          10051e4d f   LIBCMT:localref.obj
 0001:00050ec9       __updatetlocinfoEx_nolock  10051ec9 f   LIBCMT:localref.obj
 0001:00050f14       __isctype_l                10051f14 f   LIBCMT:isctype.obj
 0001:00050fc3       __crt_debugger_hook        10051fc3 f   LIBCMT:dbghook.obj
 0001:00050fcb       __locterm                  10051fcb f   LIBCMT:wsetloca.obj
 0001:00051020       _pow                       10052020 f   LIBCMT:pow.obj
 0001:00051060       __CIpow                    10052060 f   LIBCMT:pow.obj
 0001:0005109b       __CIpow_default            1005209b f   LIBCMT:pow.obj
 0001:000510b4       __pow_default              100520b4     LIBCMT:pow.obj
 0001:000512cc       __fFATN2                   100522cc     LIBCMT:87triga.obj
 0001:0005131c       __rtpiby2                  1005231c     LIBCMT:87triga.obj
 0001:00051360       __cintrindisp2             10052360 f   LIBCMT:87cdisp.obj
 0001:0005139e       __cintrindisp1             1005239e f   LIBCMT:87cdisp.obj
 0001:000513db       __ctrandisp2               100523db f   LIBCMT:87cdisp.obj
 0001:0005156a       __ctrandisp1               1005256a f   LIBCMT:87cdisp.obj
 0001:0005159d       __fload                    1005259d f   LIBCMT:87cdisp.obj
 0001:000515e0       _acos                      100525e0 f   LIBCMT:acos.obj
 0001:00051620       __CIacos                   10052620 f   LIBCMT:acos.obj
 0001:0005165b       __CIacos_default           1005265b f   LIBCMT:acos.obj
 0001:0005166f       __acos_default             1005266f     LIBCMT:acos.obj
 0001:00051726       __isleadbyte_l             10052726 f i LIBCMT:_wctype.obj
 0001:0005175c       _isleadbyte                1005275c f i LIBCMT:_wctype.obj
 0001:00051956       ___crtLCMapStringA         10052956 f   LIBCMT:a_map.obj
 0001:0005199a       __freea                    1005299a f i LIBCMT:a_map.obj
 0001:000519b8       __spawnve                  100529b8 f   LIBCMT:spawnve.obj
 0001:00051c13       __spawnvpe                 10052c13 f   LIBCMT:spawnvpe.obj
 0001:00051e83       __access_s                 10052e83 f   LIBCMT:access.obj
 0001:00051ecb       __dupenv_s                 10052ecb f   LIBCMT:getenv.obj
 0001:00051f9f       __getenv_helper_nolock     10052f9f f   LIBCMT:getenv.obj
 0001:00052030       _strlen                    10053030 f   LIBCMT:strlen.obj
 0001:0005215d       __input_l                  1005315d f   LIBCMT:input.obj
 0001:0005326e       __filbuf                   1005426e f   LIBCMT:_filbuf.obj
 0001:0005339c       _memcpy_s                  1005439c f   LIBCMT:memcpy_s.obj
 0001:0005341b       __read                     1005441b f   LIBCMT:read.obj
 0001:00053530       __read_nolock              10054530 f   LIBCMT:read.obj
 0001:00053cca       __lseek                    10054cca f   LIBCMT:lseek.obj
 0001:00053db9       __lseek_nolock             10054db9 f   LIBCMT:lseek.obj
 0001:00053e2b       __lseeki64                 10054e2b f   LIBCMT:lseeki64.obj
 0001:00053f34       __lseeki64_nolock          10054f34 f   LIBCMT:lseeki64.obj
 0001:00053fa5       __write                    10054fa5 f   LIBCMT:write.obj
 0001:00054094       __write_nolock             10055094 f   LIBCMT:write.obj
 0001:000548e0       __trandisp1                100558e0 f   LIBCMT:87disp.obj
 0001:00054947       __trandisp2                10055947 f   LIBCMT:87disp.obj
 0001:000549d3       __rttospopde               100559d3     LIBCMT:87disp.obj
 0001:000549d8       __rttospop                 100559d8     LIBCMT:87disp.obj
 0001:000549da       __rtnospop                 100559da     LIBCMT:87disp.obj
 0001:000549dc       __rttosnpop                100559dc     LIBCMT:87disp.obj
 0001:000549dd       __rtnospopde               100559dd     LIBCMT:87disp.obj
 0001:000549e4       __rtzeropop                100559e4     LIBCMT:87disp.obj
 0001:000549e6       __rtzeronpop               100559e6     LIBCMT:87disp.obj
 0001:000549eb       __rtonepop                 100559eb     LIBCMT:87disp.obj
 0001:000549ed       __rtonenpop                100559ed     LIBCMT:87disp.obj
 0001:000549f2       __tosnan1                  100559f2     LIBCMT:87disp.obj
 0001:00054a1d       __nosnan2                  10055a1d     LIBCMT:87disp.obj
 0001:00054a1f       __tosnan2                  10055a1f     LIBCMT:87disp.obj
 0001:00054a47       __nan2                     10055a47     LIBCMT:87disp.obj
 0001:00054a86       __rtindfpop                10055a86     LIBCMT:87disp.obj
 0001:00054a88       __rtindfnpop               10055a88     LIBCMT:87disp.obj
 0001:00054a99       __rttosnpopde              10055a99     LIBCMT:87disp.obj
 0001:00054aa3       __rtchsifneg               10055aa3     LIBCMT:87disp.obj
 0001:00054aaa       __XcptFilter               10055aaa f   LIBCMT:winxfltr.obj
 0001:00054c05       ___CppXcptFilter           10055c05 f   LIBCMT:winxfltr.obj
 0001:00054c23       __setargv                  10055c23 f   LIBCMT:stdargv.obj
 0001:00054e50       __setenvp                  10055e50 f   LIBCMT:stdenvp.obj
 0001:00054f31       ___security_init_cookie    10055f31 f   LIBCMT:gs_support.obj
 0001:00054fcb       _DllMain@12                10055fcb f   LIBCMT:dllmain.obj
 0001:00054fd1       ___crtGetEnvironmentStringsA 10055fd1 f   LIBCMT:a_env.obj
 0001:0005505c       _wcscat_s                  1005605c f   LIBCMT:wcscat_s.obj
 0001:000550c8       _wcscpy_s                  100560c8 f   LIBCMT:wcscpy_s.obj
 0001:00055124       _wcslen                    10056124 f   LIBCMT:wcslen.obj
 0001:0005513d       _wcsncpy_s                 1005613d f   LIBCMT:wcsncpy_s.obj
 0001:000551fb       __set_error_mode           100561fb f   LIBCMT:errmode.obj
 0001:0005523b       ___crtMessageBoxW          1005623b f   LIBCMT:crtmboxw.obj
 0001:0005541d       ___crtCompareStringEx      1005641d f   LIBCMT:winapinls.obj
 0001:0005543f       ___crtLCMapStringEx        1005643f f   LIBCMT:winapinls.obj
 0001:00055461       _strcpy_s                  10056461 f   LIBCMT:strcpy_s.obj
 0001:000554b6       __isatty                   100564b6 f   LIBCMT:isatty.obj
 0001:0005551a       __getbuf                   1005651a f   LIBCMT:_getbuf.obj
 0001:00055560       __get_printf_count_output  10056560 f   LIBCMT:printf.obj
 0001:00055575       __wctomb_s_l               10056575 f   LIBCMT:wctomb.obj
 0001:00055697       _wctomb_s                  10056697 f   LIBCMT:wctomb.obj
 0001:000556c0       __aulldvrm                 100566c0 f   LIBCMT:ulldvrm.obj
 0001:00055755       _realloc                   10056755 f   LIBCMT:realloc.obj
 0001:00055800       __recalloc                 10056800 f   LIBCMT:recalloc.obj
 0001:00055869       __calloc_impl              10056869 f   LIBCMT:calloc_impl.obj
 0001:000558e3       __fptrap                   100568e3 f   LIBCMT:crt0fp.obj
 0001:000559d8       ___crtGetStringTypeA       100569d8 f   LIBCMT:a_str.obj
 0001:00055a16       __tolower_l                10056a16 f   LIBCMT:tolower.obj
 0001:00055b57       _tolower                   10056b57 f   LIBCMT:tolower.obj
 0001:00055b90       _strrchr                   10056b90 f   LIBCMT:strrchr.obj
 0001:00055cc7       __fptostr                  10056cc7 f   LIBCMT:_fptostr.obj
 0001:00055d77       __atodbl_l                 10056d77 f   LIBCMT:atodbl.obj
 0001:00055e03       __atoflt_l                 10056e03 f   LIBCMT:atodbl.obj
 0001:00055e8f       ___dtold                   10056e8f f   LIBCMT:cfout.obj
 0001:00055f55       __fltout2                  10056f55 f   LIBCMT:cfout.obj
 0001:00055ff0       __alldvrm                  10056ff0 f   LIBCMT:lldvrm.obj
 0001:000560d0       __aullshr                  100570d0 f   LIBCMT:ullshr.obj
 0001:000560ef       __controlfp_s              100570ef f   LIBCMT:contrlfp.obj
 0001:0005614c       __fcloseall                1005714c f   LIBCMT:closeall.obj
 0001:000561e9       ___lock_fhandle            100571e9 f   LIBCMT:osfinfo.obj
 0001:00056275       __alloc_osfhnd             10057275 f   LIBCMT:osfinfo.obj
 0001:00056424       __free_osfhnd              10057424 f   LIBCMT:osfinfo.obj
 0001:000564aa       __get_osfhandle            100574aa f   LIBCMT:osfinfo.obj
 0001:0005651c       __set_osfhnd               1005751c f   LIBCMT:osfinfo.obj
 0001:0005659e       __unlock_fhandle           1005759e f   LIBCMT:osfinfo.obj
 0001:000565c4       __commit                   100575c4 f   LIBCMT:commit.obj
 0001:000566bb       __sopen_helper             100576bb f   LIBCMT:open.obj
 0001:00056782       __sopen_nolock             10057782 f   LIBCMT:open.obj
 0001:000567ce       __sopen_s                  100577ce f   LIBCMT:open.obj
 0001:000567ec       __mbsnbcmp                 100577ec f   LIBCMT:mbsnbcmp.obj
 0001:00056804       __mbsnbcmp_l               10057804 f   LIBCMT:mbsnbcmp.obj
 0001:00056919       __mbsnbicmp                10057919 f   LIBCMT:mbsnbicm.obj
 0001:00056931       __mbsnbicmp_l              10057931 f   LIBCMT:mbsnbicm.obj
 0001:00056af0       __global_unwind2           10057af0 f   LIBCMT:exsup.obj
 0001:00056b55       __local_unwind2            10057b55 f   LIBCMT:exsup.obj
 0001:00056bd9       __abnormal_termination     10057bd9 f   LIBCMT:exsup.obj
 0001:00056bfc       __NLG_Notify1              10057bfc f   LIBCMT:exsup.obj
 0001:00056c05       __NLG_Notify               10057c05 f   LIBCMT:exsup.obj
 0001:00056c1c       __NLG_Dispatch             10057c1c     LIBCMT:exsup.obj
 0001:00056c1c       __NLG_Dispatch2            10057c1c     LIBCMT:exsup.obj
 0001:00056c24       __NLG_Call                 10057c24 f   LIBCMT:exsup.obj
 0001:00056c26       __NLG_Return2              10057c26     LIBCMT:exsup.obj
 0001:00056c30       __allmul                   10057c30 f   LIBCMT:llmul.obj
 0001:00056c64       ?_ValidateWrite@@YAHPAXI@Z 10057c64 f   LIBCMT:validate.obj
 0001:00056c64       ?_ValidateRead@@YAHPBXI@Z  10057c64 f   LIBCMT:validate.obj
 0001:00056c64       ?_ValidateExecute@@YAHP6GHXZ@Z 10057c64 f   LIBCMT:validate.obj
 0001:00056c73       __EH_prolog3_catch         10057c73 f   LIBCMT:ehprolg3.obj
 0001:00056ca9       __sse2_mathfcns_init       10057ca9 f   LIBCMT:mathfcns.obj
 0001:00056cc0       __CIcos_pentium4           10057cc0 f   LIBCMT:cos_pentium4.obj
 0001:00056cd8       __cos_pentium4             10057cd8     LIBCMT:cos_pentium4.obj
 0001:00056e70       __twoToTOS                 10057e70 f   LIBCMT:common.obj
 0001:00056e85       __load_CW                  10057e85 f   LIBCMT:common.obj
 0001:00056e9c       __convertTOStoQNaN         10057e9c f   LIBCMT:common.obj
 0001:00056eb5       __fload_withFB             10057eb5 f   LIBCMT:common.obj
 0001:00056ef8       __checkTOS_withFB          10057ef8 f   LIBCMT:common.obj
 0001:00056f0e       __fast_exit                10057f0e f   LIBCMT:common.obj
 0001:00056f1b       __math_exit                10057f1b f   LIBCMT:common.obj
 0001:00056f45       __check_overflow_exit      10057f45 f   LIBCMT:common.obj
 0001:00056f59       __check_range_exit         10057f59 f   LIBCMT:common.obj
 0001:00057000       __startTwoArgErrorHandling 10058000 f   LIBCMT:genexcep.obj
 0001:00057017       __startOneArgErrorHandling 10058017 f   LIBCMT:genexcep.obj
 0001:00057060       __CIsin_pentium4           10058060 f   LIBCMT:sin_pentium4.obj
 0001:00057078       __sin_pentium4             10058078     LIBCMT:sin_pentium4.obj
 0001:00057228       __matherr                  10058228 f   LIBCMT:matherr.obj
 0001:0005722b       __ld12tod                  1005822b f   LIBCMT:intrncvt.obj
 0001:0005779b       __ld12tof                  1005879b f   LIBCMT:intrncvt.obj
 0001:00057d0b       ___mtold12                 10058d0b f   LIBCMT:mantold.obj
 0001:00057eed       ___free_lconv_mon          10058eed f   LIBCMT:initmon.obj
 0001:00057fe9       ___free_lconv_num          10058fe9 f   LIBCMT:initnum.obj
 0001:00058050       ___free_lc_time            10059050 f   LIBCMT:inittime.obj
 0001:000583d0       __CIpow_pentium4           100593d0 f   LIBCMT:pow_pentium4.obj
 0001:000583e9       __pow_pentium4             100593e9     LIBCMT:pow_pentium4.obj
 0001:00058f41       __fFEXP                    10059f41     LIBCMT:87tran.obj
 0001:00058f98       __rtinfpopse               10059f98     LIBCMT:87tran.obj
 0001:00058f9a       __rtinfnpopse              10059f9a     LIBCMT:87tran.obj
 0001:00058faa       __fFLN                     10059faa     LIBCMT:87tran.obj
 0001:0005905f       __rtinfpop                 1005a05f     LIBCMT:87tran.obj
 0001:00059061       __rtinfnpop                1005a061     LIBCMT:87tran.obj
 0001:0005907e       __ffexpm1                  1005a07e     LIBCMT:87tran.obj
 0001:00059127       __d_inttype                1005a127 f   LIBCMT:powhlp.obj
 0001:0005918d       __powhlp                   1005a18d f   LIBCMT:powhlp.obj
 0001:000592c3       __87except                 1005a2c3 f   LIBCMT:87except.obj
 0001:000593d0       __CIacos_pentium4          1005a3d0 f   LIBCMT:acos_pentium4.obj
 0001:000593e8       __acos_pentium4            1005a3e8     LIBCMT:acos_pentium4.obj
 0001:00059930       __alloca_probe_16          1005a930 f   LIBCMT:alloca16.obj
 0001:00059946       __alloca_probe_8           1005a946     LIBCMT:alloca16.obj
 0001:0005995c       _strcat_s                  1005a95c f   LIBCMT:strcat_s.obj
 0001:000599bf       __dospawn                  1005a9bf f   LIBCMT:dospawn.obj
 0001:00059be4       __cenvarg                  1005abe4 f   LIBCMT:cenvarg.obj
 0001:00059fad       __mbschr                   1005afad f   LIBCMT:mbschr.obj
 0001:00059fc2       __mbschr_l                 1005afc2 f   LIBCMT:mbschr.obj
 0001:0005a05d       __mbsrchr                  1005b05d f   LIBCMT:mbsrchr.obj
 0001:0005a072       __mbsrchr_l                1005b072 f   LIBCMT:mbsrchr.obj
 0001:0005a101       __getpath                  1005b101 f   LIBCMT:getpath.obj
 0001:0005a18c       __waccess_s                1005b18c f   LIBCMT:waccess.obj
 0001:0005a228       _strnlen                   1005b228 f   LIBCMT:strlen_s.obj
 0001:0005a243       ___wtomb_environ           1005b243 f   LIBCMT:wtombenv.obj
 0001:0005a2d0       _calloc                    1005b2d0 f   LIBCMT:calloc.obj
 0001:0005a30e       __mbsnbicoll               1005b30e f   LIBCMT:mbsnbico.obj
 0001:0005a326       __mbsnbicoll_l             1005b326 f   LIBCMT:mbsnbico.obj
 0001:0005a3da       __ungetc_nolock            1005b3da f   LIBCMT:ungetc.obj
 0001:0005a4ba       __mbtowc_l                 1005b4ba f   LIBCMT:mbtowc.obj
 0001:0005a5ad       _mbtowc                    1005b5ad f   LIBCMT:mbtowc.obj
 0001:0005a5c5       __putwch_nolock            1005b5c5 f   LIBCMT:putwch.obj
 0001:0005a65c       __ismbblead                1005b65c f   LIBCMT:ismbbyte.obj
 0001:0005a672       _$I10_OUTPUT               1005b672 f   LIBCMT:x10fout.obj
 0001:0005b0df       __control87                1005c0df f i LIBCMT:ieee87.obj
 0001:0005b507       __wsopen_nolock            1005c507 f   LIBCMT:wopen.obj
 0001:0005bc80       __strnicmp                 1005cc80 f   LIBCMT:strnicmp.obj
 0001:0005bc80       _strnicmp                  1005cc80 f   LIBCMT:strnicmp.obj
 0001:0005bceb       __strnicmp_l               1005cceb f   LIBCMT:strnicmp.obj
 0001:0005bd9a       __frnd                     1005cd9a f   LIBCMT:frnd.obj
 0001:0005bdac       __fpclass                  1005cdac f   LIBCMT:ieeemisc.obj
 0001:0005be48       __decomp                   1005ce48 f   LIBCMT:util.obj
 0001:0005bf1a       __set_exp                  1005cf1a f   LIBCMT:util.obj
 0001:0005bf45       __sptype                   1005cf45 f   LIBCMT:util.obj
 0001:0005bfa1       __handle_exc               1005cfa1 f   LIBCMT:fpexcept.obj
 0001:0005c17d       __raise_exc                1005d17d f   LIBCMT:fpexcept.obj
 0001:0005c19e       __raise_exc_ex             1005d19e f   LIBCMT:fpexcept.obj
 0001:0005c483       __set_errno_from_matherr   1005d483 f   LIBCMT:fpexcept.obj
 0001:0005c4b0       ___set_fpsr_sse2           1005d4b0 f   LIBCMT:fpctrl.obj
 0001:0005c526       __clrfp                    1005d526 f   LIBCMT:fpctrl.obj
 0001:0005c535       __ctrlfp                   1005d535 f   LIBCMT:fpctrl.obj
 0001:0005c55e       __set_statfp               1005d55e f   LIBCMT:fpctrl.obj
 0001:0005c5b4       __statfp                   1005d5b4 f   LIBCMT:fpctrl.obj
 0001:0005c5c2       __mbsnicmp                 1005d5c2 f   LIBCMT:mbsnicmp.obj
 0001:0005c5da       __mbsnicmp_l               1005d5da f   LIBCMT:mbsnicmp.obj
 0001:0005c76f       ___crtsetenv               1005d76f f   LIBCMT:setenv.obj
 0001:0005ca70       __strnicoll_l              1005da70 f   LIBCMT:strnicol.obj
 0001:0005cdbe       ___crtCompareStringA       1005ddbe f   LIBCMT:a_cmp.obj
 0001:0005cdff       ___termconout              1005ddff f   LIBCMT:initcon.obj
 0001:0005ce16       ___initconout              1005de16 f   LIBCMT:initcon.obj
 0001:0005ce35       __chsize_nolock            1005de35 f   LIBCMT:chsize.obj
 0001:0005cfe9       __get_fmode                1005dfe9 f   LIBCMT:setmode.obj
 0001:0005d013       __setmode_nolock           1005e013 f   LIBCMT:setmode.obj
 0001:0005d0e0       ___ascii_strnicmp          1005e0e0 f   LIBCMT:_strnicm.obj
 0001:0005d141       __strdup                   1005e141 f   LIBCMT:strdup.obj
 0001:0005d192       _RtlUnwind@16              1005e192 f   kernel32:KERNEL32.dll
 0001:0005d198       _IsProcessorFeaturePresent@4 1005e198 f   kernel32:KERNEL32.dll
 0001:0005d19e       ___ascii_stricmp           1005e19e f   LIBCMT:stricmp.obj
 0001:0005d1d7       _stricmp                   1005e1d7 f   LIBCMT:stricmp.obj
 0001:0005d1d7       __stricmp                  1005e1d7 f   LIBCMT:stricmp.obj
 0001:0005d21e       __stricmp_l                1005e21e f   LIBCMT:stricmp.obj
 0001:0005d423       _strupr                    1005e423 f   LIBCMT:strupr.obj
 0001:0005d423       __strupr                   1005e423 f   LIBCMT:strupr.obj
 0001:0005d47e       __strupr_s_l               1005e47e f   LIBCMT:strupr.obj
 0002:00000000       __imp__SetEndOfFile@4      10060000     kernel32:KERNEL32.dll
 0002:00000004       __imp__GetProcAddress@8    10060004     kernel32:KERNEL32.dll
 0002:00000008       __imp__SetEnvironmentVariableA@8 10060008     kernel32:KERNEL32.dll
 0002:0000000c       __imp__CreateFileW@28      1006000c     kernel32:KERNEL32.dll
 0002:00000010       __imp__WriteConsoleW@20    10060010     kernel32:KERNEL32.dll
 0002:00000014       __imp__GetFileAttributesExW@12 10060014     kernel32:KERNEL32.dll
 0002:00000018       __imp__CreateProcessA@40   10060018     kernel32:KERNEL32.dll
 0002:0000001c       __imp__GetExitCodeProcess@8 1006001c     kernel32:KERNEL32.dll
 0002:00000020       __imp__WaitForSingleObject@8 10060020     kernel32:KERNEL32.dll
 0002:00000024       __imp__FlushFileBuffers@4  10060024     kernel32:KERNEL32.dll
 0002:00000028       __imp__SetStdHandle@8      10060028     kernel32:KERNEL32.dll
 0002:0000002c       __imp__GetStringTypeW@16   1006002c     kernel32:KERNEL32.dll
 0002:00000030       __imp__HeapReAlloc@16      10060030     kernel32:KERNEL32.dll
 0002:00000034       __imp__LCMapStringEx@36    10060034     kernel32:KERNEL32.dll
 0002:00000038       __imp__CompareStringEx@36  10060038     kernel32:KERNEL32.dll
 0002:0000003c       __imp__LoadLibraryW@4      1006003c     kernel32:KERNEL32.dll
 0002:00000040       __imp__OutputDebugStringW@4 10060040     kernel32:KERNEL32.dll
 0002:00000044       __imp__FreeEnvironmentStringsW@4 10060044     kernel32:KERNEL32.dll
 0002:00000048       __imp__GetEnvironmentStringsW@0 10060048     kernel32:KERNEL32.dll
 0002:0000004c       __imp__GetTickCount64@0    1006004c     kernel32:KERNEL32.dll
 0002:00000050       __imp__QueryPerformanceCounter@4 10060050     kernel32:KERNEL32.dll
 0002:00000054       __imp__GetModuleFileNameA@12 10060054     kernel32:KERNEL32.dll
 0002:00000058       __imp__GetConsoleCP@0      10060058     kernel32:KERNEL32.dll
 0002:0000005c       __imp__SetFilePointerEx@20 1006005c     kernel32:KERNEL32.dll
 0002:00000060       __imp__SetFilePointer@16   10060060     kernel32:KERNEL32.dll
 0002:00000064       __imp__ReadConsoleW@20     10060064     kernel32:KERNEL32.dll
 0002:00000068       __imp__GetConsoleMode@8    10060068     kernel32:KERNEL32.dll
 0002:0000006c       __imp__WideCharToMultiByte@32 1006006c     kernel32:KERNEL32.dll
 0002:00000070       __imp__GetProcessHeap@0    10060070     kernel32:KERNEL32.dll
 0002:00000074       __imp__SetLastError@4      10060074     kernel32:KERNEL32.dll
 0002:00000078       __imp__InitOnceExecuteOnce@16 10060078     kernel32:KERNEL32.dll
 0002:0000007c       __imp__GetFileType@4       1006007c     kernel32:KERNEL32.dll
 0002:00000080       __imp__CloseHandle@4       10060080     kernel32:KERNEL32.dll
 0002:00000084       __imp__HeapSize@12         10060084     kernel32:KERNEL32.dll
 0002:00000088       __imp__GetCPInfo@8         10060088     kernel32:KERNEL32.dll
 0002:0000008c       __imp__GetOEMCP@0          1006008c     kernel32:KERNEL32.dll
 0002:00000090       __imp__GetACP@0            10060090     kernel32:KERNEL32.dll
 0002:00000094       __imp__IsValidCodePage@4   10060094     kernel32:KERNEL32.dll
 0002:00000098       __imp__InterlockedIncrement@4 10060098     kernel32:KERNEL32.dll
 0002:0000009c       __imp__LoadLibraryExW@12   1006009c     kernel32:KERNEL32.dll
 0002:000000a0       __imp__Sleep@4             100600a0     kernel32:KERNEL32.dll
 0002:000000a4       __imp__GetModuleHandleW@4  100600a4     kernel32:KERNEL32.dll
 0002:000000a8       __imp__GetStartupInfoW@4   100600a8     kernel32:KERNEL32.dll
 0002:000000ac       __imp__TerminateProcess@8  100600ac     kernel32:KERNEL32.dll
 0002:000000b0       __imp__GetCurrentProcess@0 100600b0     kernel32:KERNEL32.dll
 0002:000000b4       __imp__FlsFree@4           100600b4     kernel32:KERNEL32.dll
 0002:000000b8       __imp__FlsSetValue@8       100600b8     kernel32:KERNEL32.dll
 0002:000000bc       __imp__FlsGetValue@4       100600bc     kernel32:KERNEL32.dll
 0002:000000c0       __imp__FlsAlloc@4          100600c0     kernel32:KERNEL32.dll
 0002:000000c4       __imp__SetUnhandledExceptionFilter@4 100600c4     kernel32:KERNEL32.dll
 0002:000000c8       __imp__UnhandledExceptionFilter@4 100600c8     kernel32:KERNEL32.dll
 0002:000000cc       __imp__DeleteCriticalSection@4 100600cc     kernel32:KERNEL32.dll
 0002:000000d0       __imp__InitializeCriticalSectionAndSpinCount@8 100600d0     kernel32:KERNEL32.dll
 0002:000000d4       __imp__LeaveCriticalSection@4 100600d4     kernel32:KERNEL32.dll
 0002:000000d8       __imp__EnterCriticalSection@4 100600d8     kernel32:KERNEL32.dll
 0002:000000dc       __imp__RaiseException@16   100600dc     kernel32:KERNEL32.dll
 0002:000000e0       __imp__GetModuleFileNameW@12 100600e0     kernel32:KERNEL32.dll
 0002:000000e4       __imp__WriteFile@20        100600e4     kernel32:KERNEL32.dll
 0002:000000e8       __imp__GetStdHandle@4      100600e8     kernel32:KERNEL32.dll
 0002:000000ec       __imp__GetCurrentThreadId@0 100600ec     kernel32:KERNEL32.dll
 0002:000000f0       __imp__GetCommandLineA@0   100600f0     kernel32:KERNEL32.dll
 0002:000000f4       __imp__ReadFile@20         100600f4     kernel32:KERNEL32.dll
 0002:000000f8       __imp__IsProcessorFeaturePresent@4 100600f8     kernel32:KERNEL32.dll
 0002:000000fc       __imp__IsDebuggerPresent@0 100600fc     kernel32:KERNEL32.dll
 0002:00000100       __imp__HeapAlloc@12        10060100     kernel32:KERNEL32.dll
 0002:00000104       __imp__HeapFree@12         10060104     kernel32:KERNEL32.dll
 0002:00000108       __imp__GetSystemTimeAsFileTime@4 10060108     kernel32:KERNEL32.dll
 0002:0000010c       __imp__RtlUnwind@16        1006010c     kernel32:KERNEL32.dll
 0002:00000110       __imp__MultiByteToWideChar@24 10060110     kernel32:KERNEL32.dll
 0002:00000114       __imp__AreFileApisANSI@0   10060114     kernel32:KERNEL32.dll
 0002:00000118       __imp__GetModuleHandleExW@12 10060118     kernel32:KERNEL32.dll
 0002:0000011c       __imp__ExitProcess@4       1006011c     kernel32:KERNEL32.dll
 0002:00000120       __imp__InterlockedDecrement@4 10060120     kernel32:KERNEL32.dll
 0002:00000124       __imp__GetLastError@0      10060124     kernel32:KERNEL32.dll
 0002:00000128       __imp__DecodePointer@4     10060128     kernel32:KERNEL32.dll
 0002:0000012c       __imp__EncodePointer@4     1006012c     kernel32:KERNEL32.dll
 0002:00000130       \177KERNEL32_NULL_THUNK_DATA 10060130     kernel32:KERNEL32.dll
 0002:00000134       __imp__ShellExecuteA@24    10060134     shell32:SHELL32.dll
 0002:00000138       \177SHELL32_NULL_THUNK_DATA 10060138     shell32:SHELL32.dll
 0002:0000013c       __imp__GetCursorPos@4      1006013c     user32:USER32.dll
 0002:00000140       __imp__SetCursorPos@8      10060140     user32:USER32.dll
 0002:00000144       __imp__SystemParametersInfoA@16 10060144     user32:USER32.dll
 0002:00000148       \177USER32_NULL_THUNK_DATA 10060148     user32:USER32.dll
 0002:0000014c       __imp__joyGetNumDevs@0     1006014c     winmm:WINMM.dll
 0002:00000150       __imp__joyGetDevCapsA@12   10060150     winmm:WINMM.dll
 0002:00000154       __imp__joyGetPosEx@8       10060154     winmm:WINMM.dll
 0002:00000158       \177WINMM_NULL_THUNK_DATA  10060158     winmm:WINMM.dll
 0002:0000015c       __imp__htons@4             1006015c     wsock32:WSOCK32.dll
 0002:00000160       \177WSOCK32_NULL_THUNK_DATA 10060160     wsock32:WSOCK32.dll
 0002:00000164       __imp_?setAsMouseArena@Panel@vgui@@UAEX_N@Z 10060164     vgui:vgui.dll
 0002:00000168       __imp_?getApp@Panel@vgui@@UAEPAVApp@2@XZ 10060168     vgui:vgui.dll
 0002:0000016c       __imp_?getVirtualSize@Panel@vgui@@UAEXAAH0@Z 1006016c     vgui:vgui.dll
 0002:00000170       __imp_?setLayoutInfo@Panel@vgui@@UAEXPAVLayoutInfo@2@@Z 10060170     vgui:vgui.dll
 0002:00000174       __imp_?getLayoutInfo@Panel@vgui@@UAEPAVLayoutInfo@2@XZ 10060174     vgui:vgui.dll
 0002:00000178       __imp_?isCursorNone@Panel@vgui@@UAE_NXZ 10060178     vgui:vgui.dll
 0002:0000017c       __imp_?solveTraverse@Panel@vgui@@UAEXXZ 1006017c     vgui:vgui.dll
 0002:00000180       __imp_?paintTraverse@Panel@vgui@@UAEXXZ 10060180     vgui:vgui.dll
 0002:00000184       __imp_?setSurfaceBaseTraverse@Panel@vgui@@UAEXPAVSurfaceBase@2@@Z 10060184     vgui:vgui.dll
 0002:00000188       __imp_?performLayout@Panel@vgui@@MAEXXZ 10060188     vgui:vgui.dll
 0002:0000018c       __imp_?internalPerformLayout@Panel@vgui@@MAEXXZ 1006018c     vgui:vgui.dll
 0002:00000190       __imp_?drawSetColor@Panel@vgui@@MAEXW4SchemeColor@Scheme@2@@Z 10060190     vgui:vgui.dll
 0002:00000194       __imp_?drawSetColor@Panel@vgui@@MAEXHHHH@Z 10060194     vgui:vgui.dll
 0002:00000198       __imp_?drawFilledRect@Panel@vgui@@MAEXHHHH@Z 10060198     vgui:vgui.dll
 0002:0000019c       __imp_?drawOutlinedRect@Panel@vgui@@MAEXHHHH@Z 1006019c     vgui:vgui.dll
 0002:000001a0       __imp_?drawSetTextFont@Panel@vgui@@MAEXW4SchemeFont@Scheme@2@@Z 100601a0     vgui:vgui.dll
 0002:000001a4       __imp_?drawSetTextFont@Panel@vgui@@MAEXPAVFont@2@@Z 100601a4     vgui:vgui.dll
 0002:000001a8       __imp_?drawSetTextColor@Panel@vgui@@MAEXW4SchemeColor@Scheme@2@@Z 100601a8     vgui:vgui.dll
 0002:000001ac       __imp_?drawSetTextColor@Panel@vgui@@MAEXHHHH@Z 100601ac     vgui:vgui.dll
 0002:000001b0       __imp_?drawSetTextPos@Panel@vgui@@MAEXHH@Z 100601b0     vgui:vgui.dll
 0002:000001b4       __imp_?drawPrintText@Panel@vgui@@MAEXPBDH@Z 100601b4     vgui:vgui.dll
 0002:000001b8       __imp_?drawPrintText@Panel@vgui@@MAEXHHPBDH@Z 100601b8     vgui:vgui.dll
 0002:000001bc       __imp_?drawPrintChar@Panel@vgui@@MAEXD@Z 100601bc     vgui:vgui.dll
 0002:000001c0       __imp_?drawPrintChar@Panel@vgui@@MAEXHHD@Z 100601c0     vgui:vgui.dll
 0002:000001c4       __imp_?drawSetTextureRGBA@Panel@vgui@@MAEXHPBDHH@Z 100601c4     vgui:vgui.dll
 0002:000001c8       __imp_?drawSetTexture@Panel@vgui@@MAEXH@Z 100601c8     vgui:vgui.dll
 0002:000001cc       __imp_?drawTexturedRect@Panel@vgui@@MAEXHHHH@Z 100601cc     vgui:vgui.dll
 0002:000001d0       __imp_?solve@Panel@vgui@@MAEXXZ 100601d0     vgui:vgui.dll
 0002:000001d4       __imp_?paintTraverse@Panel@vgui@@MAEX_N@Z 100601d4     vgui:vgui.dll
 0002:000001d8       __imp_?paintBackground@Panel@vgui@@MAEXXZ 100601d8     vgui:vgui.dll
 0002:000001dc       __imp_?paint@Panel@vgui@@MAEXXZ 100601dc     vgui:vgui.dll
 0002:000001e0       __imp_?paintBuildOverlay@Panel@vgui@@MAEXXZ 100601e0     vgui:vgui.dll
 0002:000001e4       __imp_?internalCursorMoved@Panel@vgui@@MAEXHH@Z 100601e4     vgui:vgui.dll
 0002:000001e8       __imp_?internalCursorEntered@Panel@vgui@@MAEXXZ 100601e8     vgui:vgui.dll
 0002:000001ec       __imp_?internalCursorExited@Panel@vgui@@MAEXXZ 100601ec     vgui:vgui.dll
 0002:000001f0       __imp_?internalMousePressed@Panel@vgui@@MAEXW4MouseCode@2@@Z 100601f0     vgui:vgui.dll
 0002:000001f4       __imp_?internalMouseDoublePressed@Panel@vgui@@MAEXW4MouseCode@2@@Z 100601f4     vgui:vgui.dll
 0002:000001f8       __imp_?internalMouseReleased@Panel@vgui@@MAEXW4MouseCode@2@@Z 100601f8     vgui:vgui.dll
 0002:000001fc       __imp_?internalMouseWheeled@Panel@vgui@@MAEXH@Z 100601fc     vgui:vgui.dll
 0002:00000200       __imp_?internalKeyPressed@Panel@vgui@@MAEXW4KeyCode@2@@Z 10060200     vgui:vgui.dll
 0002:00000204       __imp_?internalKeyTyped@Panel@vgui@@MAEXW4KeyCode@2@@Z 10060204     vgui:vgui.dll
 0002:00000208       __imp_?internalKeyReleased@Panel@vgui@@MAEXW4KeyCode@2@@Z 10060208     vgui:vgui.dll
 0002:0000020c       __imp_?internalKeyFocusTicked@Panel@vgui@@MAEXXZ 1006020c     vgui:vgui.dll
 0002:00000210       __imp_?internalFocusChanged@Panel@vgui@@MAEX_N@Z 10060210     vgui:vgui.dll
 0002:00000214       __imp_?internalSetCursor@Panel@vgui@@MAEXXZ 10060214     vgui:vgui.dll
 0002:00000218       __imp_?init@Label@vgui@@AAEXHPBD_N@Z 10060218     vgui:vgui.dll
 0002:0000021c       __imp_?setImage@Label@vgui@@UAEXPAVImage@2@@Z 1006021c     vgui:vgui.dll
 0002:00000220       __imp_?setText@Label@vgui@@UAEXHPBD@Z 10060220     vgui:vgui.dll
 0002:00000224       __imp_?setText@Label@vgui@@UAAXPBDZZ 10060224     vgui:vgui.dll
 0002:00000228       __imp_?setFont@Label@vgui@@UAEXW4SchemeFont@Scheme@2@@Z 10060228     vgui:vgui.dll
 0002:0000022c       __imp_?setFont@Label@vgui@@UAEXPAVFont@2@@Z 1006022c     vgui:vgui.dll
 0002:00000230       __imp_?getTextSize@Label@vgui@@UAEXAAH0@Z 10060230     vgui:vgui.dll
 0002:00000234       __imp_?getContentSize@Label@vgui@@UAEXAAH0@Z 10060234     vgui:vgui.dll
 0002:00000238       __imp_?setTextAlignment@Label@vgui@@UAEXW4Alignment@12@@Z 10060238     vgui:vgui.dll
 0002:0000023c       __imp_?setContentAlignment@Label@vgui@@UAEXW4Alignment@12@@Z 1006023c     vgui:vgui.dll
 0002:00000240       __imp_?createPropertyPanel@Label@vgui@@UAEPAVPanel@2@XZ 10060240     vgui:vgui.dll
 0002:00000244       __imp_?setFgColor@Label@vgui@@UAEXHHHH@Z 10060244     vgui:vgui.dll
 0002:00000248       __imp_?setFgColor@Label@vgui@@UAEXW4SchemeColor@Scheme@2@@Z 10060248     vgui:vgui.dll
 0002:0000024c       __imp_?setContentFitted@Label@vgui@@UAEX_N@Z 1006024c     vgui:vgui.dll
 0002:00000250       __imp_?computeAlignment@Label@vgui@@MAEXAAH00000000000@Z 10060250     vgui:vgui.dll
 0002:00000254       __imp_?paint@Label@vgui@@MAEXXZ 10060254     vgui:vgui.dll
 0002:00000258       __imp_?recomputeMinimumSize@Label@vgui@@MAEXXZ 10060258     vgui:vgui.dll
 0002:0000025c       __imp_?setPos@Image@vgui@@UAEXHH@Z 1006025c     vgui:vgui.dll
 0002:00000260       __imp_?getPos@Image@vgui@@UAEXAAH0@Z 10060260     vgui:vgui.dll
 0002:00000264       __imp_?getSize@Image@vgui@@UAEXAAH0@Z 10060264     vgui:vgui.dll
 0002:00000268       __imp_?setColor@Image@vgui@@UAEXVColor@2@@Z 10060268     vgui:vgui.dll
 0002:0000026c       __imp_?getColor@Image@vgui@@UAEXAAVColor@2@@Z 1006026c     vgui:vgui.dll
 0002:00000270       __imp_?setSize@Image@vgui@@MAEXHH@Z 10060270     vgui:vgui.dll
 0002:00000274       __imp_?drawSetColor@Image@vgui@@MAEXW4SchemeColor@Scheme@2@@Z 10060274     vgui:vgui.dll
 0002:00000278       __imp_?drawSetColor@Image@vgui@@MAEXHHHH@Z 10060278     vgui:vgui.dll
 0002:0000027c       __imp_?drawFilledRect@Image@vgui@@MAEXHHHH@Z 1006027c     vgui:vgui.dll
 0002:00000280       __imp_?drawOutlinedRect@Image@vgui@@MAEXHHHH@Z 10060280     vgui:vgui.dll
 0002:00000284       __imp_?drawSetTextFont@Image@vgui@@MAEXW4SchemeFont@Scheme@2@@Z 10060284     vgui:vgui.dll
 0002:00000288       __imp_?drawSetTextFont@Image@vgui@@MAEXPAVFont@2@@Z 10060288     vgui:vgui.dll
 0002:0000028c       __imp_?drawSetTextColor@Image@vgui@@MAEXW4SchemeColor@Scheme@2@@Z 1006028c     vgui:vgui.dll
 0002:00000290       __imp_?drawSetTextColor@Image@vgui@@MAEXHHHH@Z 10060290     vgui:vgui.dll
 0002:00000294       __imp_?drawSetTextPos@Image@vgui@@MAEXHH@Z 10060294     vgui:vgui.dll
 0002:00000298       __imp_?drawPrintText@Image@vgui@@MAEXPBDH@Z 10060298     vgui:vgui.dll
 0002:0000029c       __imp_?drawPrintText@Image@vgui@@MAEXHHPBDH@Z 1006029c     vgui:vgui.dll
 0002:000002a0       __imp_?drawPrintChar@Image@vgui@@MAEXD@Z 100602a0     vgui:vgui.dll
 0002:000002a4       __imp_?drawPrintChar@Image@vgui@@MAEXHHD@Z 100602a4     vgui:vgui.dll
 0002:000002a8       __imp_?drawSetTextureRGBA@Image@vgui@@MAEXHPBDHH@Z 100602a8     vgui:vgui.dll
 0002:000002ac       __imp_?drawSetTexture@Image@vgui@@MAEXH@Z 100602ac     vgui:vgui.dll
 0002:000002b0       __imp_?drawTexturedRect@Image@vgui@@MAEXHHHH@Z 100602b0     vgui:vgui.dll
 0002:000002b4       __imp_?paint@Image@vgui@@MAEXPAVPanel@2@@Z 100602b4     vgui:vgui.dll
 0002:000002b8       __imp_?doPaint@Image@vgui@@UAEXPAVPanel@2@@Z 100602b8     vgui:vgui.dll
 0002:000002bc       __imp_?setInset@Border@vgui@@UAEXHHHH@Z 100602bc     vgui:vgui.dll
 0002:000002c0       __imp_?getInset@Border@vgui@@UAEXAAH000@Z 100602c0     vgui:vgui.dll
 0002:000002c4       __imp_?drawFilledRect@Border@vgui@@MAEXHHHH@Z 100602c4     vgui:vgui.dll
 0002:000002c8       __imp_?drawOutlinedRect@Border@vgui@@MAEXHHHH@Z 100602c8     vgui:vgui.dll
 0002:000002cc       __imp_?drawSetTextPos@Border@vgui@@MAEXHH@Z 100602cc     vgui:vgui.dll
 0002:000002d0       __imp_?drawPrintText@Border@vgui@@MAEXHHPBDH@Z 100602d0     vgui:vgui.dll
 0002:000002d4       __imp_?drawPrintChar@Border@vgui@@MAEXHHD@Z 100602d4     vgui:vgui.dll
 0002:000002d8       __imp_?init@LineBorder@vgui@@EAEXHVColor@2@@Z 100602d8     vgui:vgui.dll
 0002:000002dc       __imp_?paint@LineBorder@vgui@@MAEXPAVPanel@2@@Z 100602dc     vgui:vgui.dll
 0002:000002e0       __imp_?setImage@ImagePanel@vgui@@UAEXPAVImage@2@@Z 100602e0     vgui:vgui.dll
 0002:000002e4       __imp_?paintBackground@ImagePanel@vgui@@MAEXXZ 100602e4     vgui:vgui.dll
 0002:000002e8       __imp_?setSize@Bitmap@vgui@@MAEXHH@Z 100602e8     vgui:vgui.dll
 0002:000002ec       __imp_?setRGBA@Bitmap@vgui@@MAEXHHEEEE@Z 100602ec     vgui:vgui.dll
 0002:000002f0       __imp_?paint@Bitmap@vgui@@UAEXPAVPanel@2@@Z 100602f0     vgui:vgui.dll
 0002:000002f4       __imp_?loadTGA@BitmapTGA@vgui@@EAE_NPAVInputStream@2@_N@Z 100602f4     vgui:vgui.dll
 0002:000002f8       __imp_?setSelected@Button@vgui@@UAEX_N@Z 100602f8     vgui:vgui.dll
 0002:000002fc       __imp_?setSelectedDirect@Button@vgui@@UAEX_N@Z 100602fc     vgui:vgui.dll
 0002:00000300       __imp_?setArmed@Button@vgui@@UAEX_N@Z 10060300     vgui:vgui.dll
 0002:00000304       __imp_?isSelected@Button@vgui@@UAE_NXZ 10060304     vgui:vgui.dll
 0002:00000308       __imp_?doClick@Button@vgui@@UAEXXZ 10060308     vgui:vgui.dll
 0002:0000030c       __imp_?addActionSignal@Button@vgui@@UAEXPAVActionSignal@2@@Z 1006030c     vgui:vgui.dll
 0002:00000310       __imp_?setButtonGroup@Button@vgui@@UAEXPAVButtonGroup@2@@Z 10060310     vgui:vgui.dll
 0002:00000314       __imp_?isArmed@Button@vgui@@UAE_NXZ 10060314     vgui:vgui.dll
 0002:00000318       __imp_?setButtonBorderEnabled@Button@vgui@@UAEX_N@Z 10060318     vgui:vgui.dll
 0002:0000031c       __imp_?setMouseClickEnabled@Button@vgui@@UAEXW4MouseCode@2@_N@Z 1006031c     vgui:vgui.dll
 0002:00000320       __imp_?isMouseClickEnabled@Button@vgui@@UAE_NW4MouseCode@2@@Z 10060320     vgui:vgui.dll
 0002:00000324       __imp_?fireActionSignal@Button@vgui@@UAEXXZ 10060324     vgui:vgui.dll
 0002:00000328       __imp_?createPropertyPanel@Button@vgui@@UAEPAVPanel@2@XZ 10060328     vgui:vgui.dll
 0002:0000032c       __imp_?setButtonController@Button@vgui@@MAEXPAVButtonController@2@@Z 1006032c     vgui:vgui.dll
 0002:00000330       __imp_?paintBackground@Button@vgui@@MAEXXZ 10060330     vgui:vgui.dll
 0002:00000334       __imp_?setSize@Frame@vgui@@UAEXHH@Z 10060334     vgui:vgui.dll
 0002:00000338       __imp_?setInternal@Frame@vgui@@UAEX_N@Z 10060338     vgui:vgui.dll
 0002:0000033c       __imp_?paintBackground@Frame@vgui@@UAEXXZ 1006033c     vgui:vgui.dll
 0002:00000340       __imp_?isInternal@Frame@vgui@@UAE_NXZ 10060340     vgui:vgui.dll
 0002:00000344       __imp_?getClient@Frame@vgui@@UAEPAVPanel@2@XZ 10060344     vgui:vgui.dll
 0002:00000348       __imp_?setTitle@Frame@vgui@@UAEXPBD@Z 10060348     vgui:vgui.dll
 0002:0000034c       __imp_?getTitle@Frame@vgui@@UAEXPADH@Z 1006034c     vgui:vgui.dll
 0002:00000350       __imp_?setMoveable@Frame@vgui@@UAEX_N@Z 10060350     vgui:vgui.dll
 0002:00000354       __imp_?setSizeable@Frame@vgui@@UAEX_N@Z 10060354     vgui:vgui.dll
 0002:00000358       __imp_?isMoveable@Frame@vgui@@UAE_NXZ 10060358     vgui:vgui.dll
 0002:0000035c       __imp_?isSizeable@Frame@vgui@@UAE_NXZ 1006035c     vgui:vgui.dll
 0002:00000360       __imp_?addFrameSignal@Frame@vgui@@UAEXPAVFrameSignal@2@@Z 10060360     vgui:vgui.dll
 0002:00000364       __imp_?setVisible@Frame@vgui@@UAEX_N@Z 10060364     vgui:vgui.dll
 0002:00000368       __imp_?setMenuButtonVisible@Frame@vgui@@UAEX_N@Z 10060368     vgui:vgui.dll
 0002:0000036c       __imp_?setTrayButtonVisible@Frame@vgui@@UAEX_N@Z 1006036c     vgui:vgui.dll
 0002:00000370       __imp_?setMinimizeButtonVisible@Frame@vgui@@UAEX_N@Z 10060370     vgui:vgui.dll
 0002:00000374       __imp_?setMaximizeButtonVisible@Frame@vgui@@UAEX_N@Z 10060374     vgui:vgui.dll
 0002:00000378       __imp_?setCloseButtonVisible@Frame@vgui@@UAEX_N@Z 10060378     vgui:vgui.dll
 0002:0000037c       __imp_?fireClosingSignal@Frame@vgui@@UAEXXZ 1006037c     vgui:vgui.dll
 0002:00000380       __imp_?fireMinimizingSignal@Frame@vgui@@UAEXXZ 10060380     vgui:vgui.dll
 0002:00000384       __imp_?setText@TextPanel@vgui@@UAEXPBD@Z 10060384     vgui:vgui.dll
 0002:00000388       __imp_?setFont@TextPanel@vgui@@UAEXW4SchemeFont@Scheme@2@@Z 10060388     vgui:vgui.dll
 0002:0000038c       __imp_?setFont@TextPanel@vgui@@UAEXPAVFont@2@@Z 1006038c     vgui:vgui.dll
 0002:00000390       __imp_?setSize@TextPanel@vgui@@UAEXHH@Z 10060390     vgui:vgui.dll
 0002:00000394       __imp_?setFgColor@TextPanel@vgui@@UAEXHHHH@Z 10060394     vgui:vgui.dll
 0002:00000398       __imp_?setFgColor@TextPanel@vgui@@UAEXW4SchemeColor@Scheme@2@@Z 10060398     vgui:vgui.dll
 0002:0000039c       __imp_?getTextImage@TextPanel@vgui@@UAEPAVTextImage@2@XZ 1006039c     vgui:vgui.dll
 0002:000003a0       __imp_?paint@TextPanel@vgui@@MAEXXZ 100603a0     vgui:vgui.dll
 0002:000003a4       __imp_?seekStart@FileInputStream@vgui@@UAEXAA_N@Z 100603a4     vgui:vgui.dll
 0002:000003a8       __imp_?seekRelative@FileInputStream@vgui@@UAEXHAA_N@Z 100603a8     vgui:vgui.dll
 0002:000003ac       __imp_?seekEnd@FileInputStream@vgui@@UAEXAA_N@Z 100603ac     vgui:vgui.dll
 0002:000003b0       __imp_?getAvailable@FileInputStream@vgui@@UAEHAA_N@Z 100603b0     vgui:vgui.dll
 0002:000003b4       __imp_?readUChar@FileInputStream@vgui@@UAEEAA_N@Z 100603b4     vgui:vgui.dll
 0002:000003b8       __imp_?readUChar@FileInputStream@vgui@@UAEXPAEHAA_N@Z 100603b8     vgui:vgui.dll
 0002:000003bc       __imp_?close@FileInputStream@vgui@@UAEXAA_N@Z 100603bc     vgui:vgui.dll
 0002:000003c0       __imp_?close@FileInputStream@vgui@@UAEXXZ 100603c0     vgui:vgui.dll
 0002:000003c4       __imp_?doActivate@DesktopIcon@vgui@@UAEXXZ 100603c4     vgui:vgui.dll
 0002:000003c8       __imp_?setImage@DesktopIcon@vgui@@UAEXPAVImage@2@@Z 100603c8     vgui:vgui.dll
 0002:000003cc       __imp_?setDesktop@DesktopIcon@vgui@@UAEXPAVDesktop@2@@Z 100603cc     vgui:vgui.dll
 0002:000003d0       __imp_?getMiniApp@DesktopIcon@vgui@@UAEPAVMiniApp@2@XZ 100603d0     vgui:vgui.dll
 0002:000003d4       __imp_?paintBackground@DesktopIcon@vgui@@MAEXXZ 100603d4     vgui:vgui.dll
 0002:000003d8       __imp_?getHotspot@Cursor@vgui@@UAEXAAH0@Z 100603d8     vgui:vgui.dll
 0002:000003dc       __imp_?privateInit@Cursor@vgui@@EAEXPAVBitmap@2@HH@Z 100603dc     vgui:vgui.dll
 0002:000003e0       __imp_?getBitmap@Cursor@vgui@@UAEPAVBitmap@2@XZ 100603e0     vgui:vgui.dll
 0002:000003e4       __imp_?getDefaultCursor@Cursor@vgui@@UAE?AW4DefaultCursor@12@XZ 100603e4     vgui:vgui.dll
 0002:000003e8       __imp_?start@App@vgui@@UAEXXZ 100603e8     vgui:vgui.dll
 0002:000003ec       __imp_?stop@App@vgui@@UAEXXZ 100603ec     vgui:vgui.dll
 0002:000003f0       __imp_?externalTick@App@vgui@@UAEXXZ 100603f0     vgui:vgui.dll
 0002:000003f4       __imp_?wasMousePressed@App@vgui@@UAE_NW4MouseCode@2@PAVPanel@2@@Z 100603f4     vgui:vgui.dll
 0002:000003f8       __imp_?wasMouseDoublePressed@App@vgui@@UAE_NW4MouseCode@2@PAVPanel@2@@Z 100603f8     vgui:vgui.dll
 0002:000003fc       __imp_?isMouseDown@App@vgui@@UAE_NW4MouseCode@2@PAVPanel@2@@Z 100603fc     vgui:vgui.dll
 0002:00000400       __imp_?wasMouseReleased@App@vgui@@UAE_NW4MouseCode@2@PAVPanel@2@@Z 10060400     vgui:vgui.dll
 0002:00000404       __imp_?wasKeyPressed@App@vgui@@UAE_NW4KeyCode@2@PAVPanel@2@@Z 10060404     vgui:vgui.dll
 0002:00000408       __imp_?isKeyDown@App@vgui@@UAE_NW4KeyCode@2@PAVPanel@2@@Z 10060408     vgui:vgui.dll
 0002:0000040c       __imp_?wasKeyTyped@App@vgui@@UAE_NW4KeyCode@2@PAVPanel@2@@Z 1006040c     vgui:vgui.dll
 0002:00000410       __imp_?wasKeyReleased@App@vgui@@UAE_NW4KeyCode@2@PAVPanel@2@@Z 10060410     vgui:vgui.dll
 0002:00000414       __imp_?addTickSignal@App@vgui@@UAEXPAVTickSignal@2@@Z 10060414     vgui:vgui.dll
 0002:00000418       __imp_?setCursorPos@App@vgui@@UAEXHH@Z 10060418     vgui:vgui.dll
 0002:0000041c       __imp_?getCursorPos@App@vgui@@UAEXAAH0@Z 1006041c     vgui:vgui.dll
 0002:00000420       __imp_?setMouseCapture@App@vgui@@UAEXPAVPanel@2@@Z 10060420     vgui:vgui.dll
 0002:00000424       __imp_?setMouseArena@App@vgui@@UAEXHHHH_N@Z 10060424     vgui:vgui.dll
 0002:00000428       __imp_?setMouseArena@App@vgui@@UAEXPAVPanel@2@@Z 10060428     vgui:vgui.dll
 0002:0000042c       __imp_?requestFocus@App@vgui@@UAEXPAVPanel@2@@Z 1006042c     vgui:vgui.dll
 0002:00000430       __imp_?getFocus@App@vgui@@UAEPAVPanel@2@XZ 10060430     vgui:vgui.dll
 0002:00000434       __imp_?repaintAll@App@vgui@@UAEXXZ 10060434     vgui:vgui.dll
 0002:00000438       __imp_?setScheme@App@vgui@@UAEXPAVScheme@2@@Z 10060438     vgui:vgui.dll
 0002:0000043c       __imp_?getScheme@App@vgui@@UAEPAVScheme@2@XZ 1006043c     vgui:vgui.dll
 0002:00000440       __imp_?enableBuildMode@App@vgui@@UAEXXZ 10060440     vgui:vgui.dll
 0002:00000444       __imp_?getTimeMillis@App@vgui@@UAEJXZ 10060444     vgui:vgui.dll
 0002:00000448       __imp_?getKeyCodeChar@App@vgui@@UAEDW4KeyCode@2@_N@Z 10060448     vgui:vgui.dll
 0002:0000044c       __imp_?getKeyCodeText@App@vgui@@UAEXW4KeyCode@2@PADH@Z 1006044c     vgui:vgui.dll
 0002:00000450       __imp_?getClipboardTextCount@App@vgui@@UAEHXZ 10060450     vgui:vgui.dll
 0002:00000454       __imp_?setClipboardText@App@vgui@@UAEXPBDH@Z 10060454     vgui:vgui.dll
 0002:00000458       __imp_?getClipboardText@App@vgui@@UAEHHPADH@Z 10060458     vgui:vgui.dll
 0002:0000045c       __imp_?reset@App@vgui@@UAEXXZ 1006045c     vgui:vgui.dll
 0002:00000460       __imp_?internalSetMouseArena@App@vgui@@UAEXHHHH_N@Z 10060460     vgui:vgui.dll
 0002:00000464       __imp_?setRegistryString@App@vgui@@UAE_NPBD0@Z 10060464     vgui:vgui.dll
 0002:00000468       __imp_?getRegistryString@App@vgui@@UAE_NPBDPADH@Z 10060468     vgui:vgui.dll
 0002:0000046c       __imp_?setRegistryInteger@App@vgui@@UAE_NPBDH@Z 1006046c     vgui:vgui.dll
 0002:00000470       __imp_?getRegistryInteger@App@vgui@@UAE_NPBDAAH@Z 10060470     vgui:vgui.dll
 0002:00000474       __imp_?setCursorOveride@App@vgui@@UAEXPAVCursor@2@@Z 10060474     vgui:vgui.dll
 0002:00000478       __imp_?getCursorOveride@App@vgui@@UAEPAVCursor@2@XZ 10060478     vgui:vgui.dll
 0002:0000047c       __imp_?setMinimumTickMillisInterval@App@vgui@@UAEXH@Z 1006047c     vgui:vgui.dll
 0002:00000480       __imp_?run@App@vgui@@UAEXXZ 10060480     vgui:vgui.dll
 0002:00000484       __imp_?internalCursorMoved@App@vgui@@UAEXHHPAVSurfaceBase@2@@Z 10060484     vgui:vgui.dll
 0002:00000488       __imp_?internalMousePressed@App@vgui@@UAEXW4MouseCode@2@PAVSurfaceBase@2@@Z 10060488     vgui:vgui.dll
 0002:0000048c       __imp_?internalMouseDoublePressed@App@vgui@@UAEXW4MouseCode@2@PAVSurfaceBase@2@@Z 1006048c     vgui:vgui.dll
 0002:00000490       __imp_?internalMouseReleased@App@vgui@@UAEXW4MouseCode@2@PAVSurfaceBase@2@@Z 10060490     vgui:vgui.dll
 0002:00000494       __imp_?internalMouseWheeled@App@vgui@@UAEXHPAVSurfaceBase@2@@Z 10060494     vgui:vgui.dll
 0002:00000498       __imp_?internalKeyPressed@App@vgui@@UAEXW4KeyCode@2@PAVSurfaceBase@2@@Z 10060498     vgui:vgui.dll
 0002:0000049c       __imp_?internalKeyTyped@App@vgui@@UAEXW4KeyCode@2@PAVSurfaceBase@2@@Z 1006049c     vgui:vgui.dll
 0002:000004a0       __imp_?internalKeyReleased@App@vgui@@UAEXW4KeyCode@2@PAVSurfaceBase@2@@Z 100604a0     vgui:vgui.dll
 0002:000004a4       __imp_?init@App@vgui@@EAEXXZ 100604a4     vgui:vgui.dll
 0002:000004a8       __imp_?updateMouseFocus@App@vgui@@EAEXHHPAVSurfaceBase@2@@Z 100604a8     vgui:vgui.dll
 0002:000004ac       __imp_?setMouseFocus@App@vgui@@EAEXPAVPanel@2@@Z 100604ac     vgui:vgui.dll
 0002:000004b0       __imp_?surfaceBaseCreated@App@vgui@@MAEXPAVSurfaceBase@2@@Z 100604b0     vgui:vgui.dll
 0002:000004b4       __imp_?surfaceBaseDeleted@App@vgui@@MAEXPAVSurfaceBase@2@@Z 100604b4     vgui:vgui.dll
 0002:000004b8       __imp_?platTick@App@vgui@@MAEXXZ 100604b8     vgui:vgui.dll
 0002:000004bc       __imp_?internalTick@App@vgui@@MAEXXZ 100604bc     vgui:vgui.dll
 0002:000004c0       __imp_?getName@MiniApp@vgui@@UAEXPADH@Z 100604c0     vgui:vgui.dll
 0002:000004c4       __imp_?setName@MiniApp@vgui@@MAEXPBD@Z 100604c4     vgui:vgui.dll
 0002:000004c8       __imp_?setSize@ScrollPanel@vgui@@MAEXHH@Z 100604c8     vgui:vgui.dll
 0002:000004cc       __imp_?setScrollBarVisible@ScrollPanel@vgui@@UAEX_N0@Z 100604cc     vgui:vgui.dll
 0002:000004d0       __imp_?setScrollBarAutoVisible@ScrollPanel@vgui@@UAEX_N0@Z 100604d0     vgui:vgui.dll
 0002:000004d4       __imp_?getClient@ScrollPanel@vgui@@UAEPAVPanel@2@XZ 100604d4     vgui:vgui.dll
 0002:000004d8       __imp_?getClientClip@ScrollPanel@vgui@@UAEPAVPanel@2@XZ 100604d8     vgui:vgui.dll
 0002:000004dc       __imp_?setScrollValue@ScrollPanel@vgui@@UAEXHH@Z 100604dc     vgui:vgui.dll
 0002:000004e0       __imp_?getScrollValue@ScrollPanel@vgui@@UAEXAAH0@Z 100604e0     vgui:vgui.dll
 0002:000004e4       __imp_?recomputeClientSize@ScrollPanel@vgui@@UAEXXZ 100604e4     vgui:vgui.dll
 0002:000004e8       __imp_?getHorizontalScrollBar@ScrollPanel@vgui@@UAEPAVScrollBar@2@XZ 100604e8     vgui:vgui.dll
 0002:000004ec       __imp_?getVerticalScrollBar@ScrollPanel@vgui@@UAEPAVScrollBar@2@XZ 100604ec     vgui:vgui.dll
 0002:000004f0       __imp_?validate@ScrollPanel@vgui@@UAEXXZ 100604f0     vgui:vgui.dll
 0002:000004f4       __imp_?getBgColor@Panel@vgui@@UAEXAAVColor@2@@Z 100604f4     vgui:vgui.dll
 0002:000004f8       __imp_?setAsMouseCapture@Panel@vgui@@UAEX_N@Z 100604f8     vgui:vgui.dll
 0002:000004fc       __imp_?getValue@ScrollBar@vgui@@UAEHXZ 100604fc     vgui:vgui.dll
 0002:00000500       __imp_?addIntChangeSignal@ScrollBar@vgui@@UAEXPAVIntChangeSignal@2@@Z 10060500     vgui:vgui.dll
 0002:00000504       __imp_?setRange@ScrollBar@vgui@@UAEXHH@Z 10060504     vgui:vgui.dll
 0002:00000508       __imp_?setRangeWindow@ScrollBar@vgui@@UAEXH@Z 10060508     vgui:vgui.dll
 0002:0000050c       __imp_?setRangeWindowEnabled@ScrollBar@vgui@@UAEX_N@Z 1006050c     vgui:vgui.dll
 0002:00000510       __imp_?setSize@ScrollBar@vgui@@UAEXHH@Z 10060510     vgui:vgui.dll
 0002:00000514       __imp_?isVertical@ScrollBar@vgui@@UAE_NXZ 10060514     vgui:vgui.dll
 0002:00000518       __imp_?hasFullRange@ScrollBar@vgui@@UAE_NXZ 10060518     vgui:vgui.dll
 0002:0000051c       __imp_?setButton@ScrollBar@vgui@@UAEXPAVButton@2@H@Z 1006051c     vgui:vgui.dll
 0002:00000520       __imp_?getButton@ScrollBar@vgui@@UAEPAVButton@2@H@Z 10060520     vgui:vgui.dll
 0002:00000524       __imp_?setSlider@ScrollBar@vgui@@UAEXPAVSlider@2@@Z 10060524     vgui:vgui.dll
 0002:00000528       __imp_?getSlider@ScrollBar@vgui@@UAEPAVSlider@2@XZ 10060528     vgui:vgui.dll
 0002:0000052c       __imp_?doButtonPressed@ScrollBar@vgui@@UAEXH@Z 1006052c     vgui:vgui.dll
 0002:00000530       __imp_?setButtonPressedScrollValue@ScrollBar@vgui@@UAEXH@Z 10060530     vgui:vgui.dll
 0002:00000534       __imp_?validate@ScrollBar@vgui@@UAEXXZ 10060534     vgui:vgui.dll
 0002:00000538       __imp_?fireIntChangeSignal@ScrollBar@vgui@@UAEXXZ 10060538     vgui:vgui.dll
 0002:0000053c       __imp_?performLayout@ScrollBar@vgui@@MAEXXZ 1006053c     vgui:vgui.dll
 0002:00000540       __imp_?setValue@Slider@vgui@@UAEXH@Z 10060540     vgui:vgui.dll
 0002:00000544       __imp_?getValue@Slider@vgui@@UAEHXZ 10060544     vgui:vgui.dll
 0002:00000548       __imp_?isVertical@Slider@vgui@@UAE_NXZ 10060548     vgui:vgui.dll
 0002:0000054c       __imp_?addIntChangeSignal@Slider@vgui@@UAEXPAVIntChangeSignal@2@@Z 1006054c     vgui:vgui.dll
 0002:00000550       __imp_?setRange@Slider@vgui@@UAEXHH@Z 10060550     vgui:vgui.dll
 0002:00000554       __imp_?getRange@Slider@vgui@@UAEXAAH0@Z 10060554     vgui:vgui.dll
 0002:00000558       __imp_?setRangeWindow@Slider@vgui@@UAEXH@Z 10060558     vgui:vgui.dll
 0002:0000055c       __imp_?setRangeWindowEnabled@Slider@vgui@@UAEX_N@Z 1006055c     vgui:vgui.dll
 0002:00000560       __imp_?setSize@Slider@vgui@@UAEXHH@Z 10060560     vgui:vgui.dll
 0002:00000564       __imp_?getNobPos@Slider@vgui@@UAEXAAH0@Z 10060564     vgui:vgui.dll
 0002:00000568       __imp_?hasFullRange@Slider@vgui@@UAE_NXZ 10060568     vgui:vgui.dll
 0002:0000056c       __imp_?setButtonOffset@Slider@vgui@@UAEXH@Z 1006056c     vgui:vgui.dll
 0002:00000570       __imp_?recomputeNobPosFromValue@Slider@vgui@@EAEXXZ 10060570     vgui:vgui.dll
 0002:00000574       __imp_?recomputeValueFromNobPos@Slider@vgui@@EAEXXZ 10060574     vgui:vgui.dll
 0002:00000578       __imp_?privateCursorMoved@Slider@vgui@@UAEXHHPAVPanel@2@@Z 10060578     vgui:vgui.dll
 0002:0000057c       __imp_?privateMousePressed@Slider@vgui@@UAEXW4MouseCode@2@PAVPanel@2@@Z 1006057c     vgui:vgui.dll
 0002:00000580       __imp_?privateMouseReleased@Slider@vgui@@UAEXW4MouseCode@2@PAVPanel@2@@Z 10060580     vgui:vgui.dll
 0002:00000584       __imp_?fireIntChangeSignal@Slider@vgui@@MAEXXZ 10060584     vgui:vgui.dll
 0002:00000588       __imp_?paintBackground@Slider@vgui@@MAEXXZ 10060588     vgui:vgui.dll
 0002:0000058c       __imp_?init@Font@vgui@@EAEXPBDPAXHHHMH_N222@Z 1006058c     vgui:vgui.dll
 0002:00000590       __imp_?getCharRGBA@Font@vgui@@UAEXHHHHHPAE@Z 10060590     vgui:vgui.dll
 0002:00000594       __imp_?getCharABCwide@Font@vgui@@UAEXHAAH00@Z 10060594     vgui:vgui.dll
 0002:00000598       __imp_?getTextSize@Font@vgui@@UAEXPBDAAH1@Z 10060598     vgui:vgui.dll
 0002:0000059c       __imp_?getTall@Font@vgui@@UAEHXZ 1006059c     vgui:vgui.dll
 0002:000005a0       __imp_?getId@Font@vgui@@UAEHXZ 100605a0     vgui:vgui.dll
 0002:000005a4       __imp_?init@TextImage@vgui@@EAEXHPBD@Z 100605a4     vgui:vgui.dll
 0002:000005a8       __imp_?getTextSize@TextImage@vgui@@UAEXAAH0@Z 100605a8     vgui:vgui.dll
 0002:000005ac       __imp_?getTextSizeWrapped@TextImage@vgui@@UAEXAAH0@Z 100605ac     vgui:vgui.dll
 0002:000005b0       __imp_?getFont@TextImage@vgui@@UAEPAVFont@2@XZ 100605b0     vgui:vgui.dll
 0002:000005b4       __imp_?setText@TextImage@vgui@@UAEXHPBD@Z 100605b4     vgui:vgui.dll
 0002:000005b8       __imp_?setText@TextImage@vgui@@UAEXPBD@Z 100605b8     vgui:vgui.dll
 0002:000005bc       __imp_?setFont@TextImage@vgui@@UAEXW4SchemeFont@Scheme@2@@Z 100605bc     vgui:vgui.dll
 0002:000005c0       __imp_?setFont@TextImage@vgui@@UAEXPAVFont@2@@Z 100605c0     vgui:vgui.dll
 0002:000005c4       __imp_?setSize@TextImage@vgui@@UAEXHH@Z 100605c4     vgui:vgui.dll
 0002:000005c8       __imp_?paint@TextImage@vgui@@MAEXPAVPanel@2@@Z 100605c8     vgui:vgui.dll
 0002:000005cc       __imp_?performLayout@Layout@vgui@@UAEXPAVPanel@2@@Z 100605cc     vgui:vgui.dll
 0002:000005d0       __imp_?performLayout@StackLayout@vgui@@UAEXPAVPanel@2@@Z 100605d0     vgui:vgui.dll
 0002:000005d4       __imp_?setCellEditingEnabled@TablePanel@vgui@@UAEX_N@Z 100605d4     vgui:vgui.dll
 0002:000005d8       __imp_?setColumnCount@TablePanel@vgui@@UAEXH@Z 100605d8     vgui:vgui.dll
 0002:000005dc       __imp_?setGridVisible@TablePanel@vgui@@UAEX_N0@Z 100605dc     vgui:vgui.dll
 0002:000005e0       __imp_?setGridSize@TablePanel@vgui@@UAEXHH@Z 100605e0     vgui:vgui.dll
 0002:000005e4       __imp_?getColumnCount@TablePanel@vgui@@UAEHXZ 100605e4     vgui:vgui.dll
 0002:000005e8       __imp_?setColumnExtents@TablePanel@vgui@@UAEXHHH@Z 100605e8     vgui:vgui.dll
 0002:000005ec       __imp_?setSelectedCell@TablePanel@vgui@@UAEXHH@Z 100605ec     vgui:vgui.dll
 0002:000005f0       __imp_?getSelectedCell@TablePanel@vgui@@UAEXAAH0@Z 100605f0     vgui:vgui.dll
 0002:000005f4       __imp_?setHeaderPanel@TablePanel@vgui@@UAEXPAVHeaderPanel@2@@Z 100605f4     vgui:vgui.dll
 0002:000005f8       __imp_?setColumnSelectionEnabled@TablePanel@vgui@@UAEX_N@Z 100605f8     vgui:vgui.dll
 0002:000005fc       __imp_?setRowSelectionEnabled@TablePanel@vgui@@UAEX_N@Z 100605fc     vgui:vgui.dll
 0002:00000600       __imp_?setCellSectionEnabled@TablePanel@vgui@@UAEX_N@Z 10060600     vgui:vgui.dll
 0002:00000604       __imp_?setEditableCell@TablePanel@vgui@@UAEXHH@Z 10060604     vgui:vgui.dll
 0002:00000608       __imp_?stopCellEditing@TablePanel@vgui@@UAEXXZ 10060608     vgui:vgui.dll
 0002:0000060c       __imp_?getVirtualSize@TablePanel@vgui@@UAEXAAH0@Z 1006060c     vgui:vgui.dll
 0002:00000610       __imp_?paint@TablePanel@vgui@@MAEXXZ 10060610     vgui:vgui.dll
 0002:00000614       __imp_?isWithinTraverse@TablePanel@vgui@@MAEPAVPanel@2@HH@Z 10060614     vgui:vgui.dll
 0002:00000618       __imp_?privateMousePressed@TablePanel@vgui@@EAEXW4MouseCode@2@PAVPanel@2@@Z 10060618     vgui:vgui.dll
 0002:0000061c       __imp_?privateMouseDoublePressed@TablePanel@vgui@@EAEXW4MouseCode@2@PAVPanel@2@@Z 1006061c     vgui:vgui.dll
 0002:00000620       __imp_?privateKeyTyped@TablePanel@vgui@@EAEXW4KeyCode@2@PAVPanel@2@@Z 10060620     vgui:vgui.dll
 0002:00000624       __imp_?performLayout@HeaderPanel@vgui@@MAEXXZ 10060624     vgui:vgui.dll
 0002:00000628       __imp_?addSectionPanel@HeaderPanel@vgui@@UAEXPAVPanel@2@@Z 10060628     vgui:vgui.dll
 0002:0000062c       __imp_?setSliderPos@HeaderPanel@vgui@@UAEXHH@Z 1006062c     vgui:vgui.dll
 0002:00000630       __imp_?getSectionCount@HeaderPanel@vgui@@UAEHXZ 10060630     vgui:vgui.dll
 0002:00000634       __imp_?getSectionExtents@HeaderPanel@vgui@@UAEXHAAH0@Z 10060634     vgui:vgui.dll
 0002:00000638       __imp_?addChangeSignal@HeaderPanel@vgui@@UAEXPAVChangeSignal@2@@Z 10060638     vgui:vgui.dll
 0002:0000063c       __imp_?fireChangeSignal@HeaderPanel@vgui@@UAEXXZ 1006063c     vgui:vgui.dll
 0002:00000640       __imp_?privateCursorMoved@HeaderPanel@vgui@@UAEXHHPAVPanel@2@@Z 10060640     vgui:vgui.dll
 0002:00000644       __imp_?privateMousePressed@HeaderPanel@vgui@@UAEXW4MouseCode@2@PAVPanel@2@@Z 10060644     vgui:vgui.dll
 0002:00000648       __imp_?privateMouseReleased@HeaderPanel@vgui@@UAEXW4MouseCode@2@PAVPanel@2@@Z 10060648     vgui:vgui.dll
 0002:0000064c       __imp_?setGridSize@TextGrid@vgui@@UAEXHH@Z 1006064c     vgui:vgui.dll
 0002:00000650       __imp_?newLine@TextGrid@vgui@@UAEXXZ 10060650     vgui:vgui.dll
 0002:00000654       __imp_?setXY@TextGrid@vgui@@UAEXHH@Z 10060654     vgui:vgui.dll
 0002:00000658       __imp_?vprintf@TextGrid@vgui@@UAEHPBDPAD@Z 10060658     vgui:vgui.dll
 0002:0000065c       __imp_?printf@TextGrid@vgui@@UAAHPBDZZ 1006065c     vgui:vgui.dll
 0002:00000660       __imp_?paintBackground@TextGrid@vgui@@MAEXXZ 10060660     vgui:vgui.dll
 0002:00000664       __imp_??0Label@vgui@@QAE@PBD@Z 10060664     vgui:vgui.dll
 0002:00000668       __imp_??0ImagePanel@vgui@@QAE@PAVImage@1@@Z 10060668     vgui:vgui.dll
 0002:0000066c       __imp_??0Label@vgui@@QAE@PBDHH@Z 1006066c     vgui:vgui.dll
 0002:00000670       __imp_??0LineBorder@vgui@@QAE@VColor@1@@Z 10060670     vgui:vgui.dll
 0002:00000674       __imp_??0TextPanel@vgui@@QAE@PBDHHHH@Z 10060674     vgui:vgui.dll
 0002:00000678       __imp_?setText@TextEntry@vgui@@UAEXPBDH@Z 10060678     vgui:vgui.dll
 0002:0000067c       __imp_?getText@TextEntry@vgui@@UAEXHPADH@Z 1006067c     vgui:vgui.dll
 0002:00000680       __imp_?resetCursorBlink@TextEntry@vgui@@UAEXXZ 10060680     vgui:vgui.dll
 0002:00000684       __imp_?doGotoLeft@TextEntry@vgui@@UAEXXZ 10060684     vgui:vgui.dll
 0002:00000688       __imp_?doGotoRight@TextEntry@vgui@@UAEXXZ 10060688     vgui:vgui.dll
 0002:0000068c       __imp_?doGotoFirstOfLine@TextEntry@vgui@@UAEXXZ 1006068c     vgui:vgui.dll
 0002:00000690       __imp_?doGotoEndOfLine@TextEntry@vgui@@UAEXXZ 10060690     vgui:vgui.dll
 0002:00000694       __imp_?doInsertChar@TextEntry@vgui@@UAEXD@Z 10060694     vgui:vgui.dll
 0002:00000698       __imp_?doBackspace@TextEntry@vgui@@UAEXXZ 10060698     vgui:vgui.dll
 0002:0000069c       __imp_?doDelete@TextEntry@vgui@@UAEXXZ 1006069c     vgui:vgui.dll
 0002:000006a0       __imp_?doSelectNone@TextEntry@vgui@@UAEXXZ 100606a0     vgui:vgui.dll
 0002:000006a4       __imp_?doCopySelected@TextEntry@vgui@@UAEXXZ 100606a4     vgui:vgui.dll
 0002:000006a8       __imp_?doPaste@TextEntry@vgui@@UAEXXZ 100606a8     vgui:vgui.dll
 0002:000006ac       __imp_?doPasteSelected@TextEntry@vgui@@UAEXXZ 100606ac     vgui:vgui.dll
 0002:000006b0       __imp_?doDeleteSelected@TextEntry@vgui@@UAEXXZ 100606b0     vgui:vgui.dll
 0002:000006b4       __imp_?addActionSignal@TextEntry@vgui@@UAEXPAVActionSignal@2@@Z 100606b4     vgui:vgui.dll
 0002:000006b8       __imp_?setFont@TextEntry@vgui@@UAEXPAVFont@2@@Z 100606b8     vgui:vgui.dll
 0002:000006bc       __imp_?setTextHidden@TextEntry@vgui@@UAEX_N@Z 100606bc     vgui:vgui.dll
 0002:000006c0       __imp_?paintBackground@TextEntry@vgui@@MAEXXZ 100606c0     vgui:vgui.dll
 0002:000006c4       __imp_?setCharAt@TextEntry@vgui@@MAEXDH@Z 100606c4     vgui:vgui.dll
 0002:000006c8       __imp_?fireActionSignal@TextEntry@vgui@@MAEXXZ 100606c8     vgui:vgui.dll
 0002:000006cc       __imp_?getSelectedRange@TextEntry@vgui@@MAE_NAAH0@Z 100606cc     vgui:vgui.dll
 0002:000006d0       __imp_?getSelectedPixelRange@TextEntry@vgui@@MAE_NAAH0@Z 100606d0     vgui:vgui.dll
 0002:000006d4       __imp_?cursorToPixelSpace@TextEntry@vgui@@MAEHH@Z 100606d4     vgui:vgui.dll
 0002:000006d8       __imp_?selectCheck@TextEntry@vgui@@MAEXXZ 100606d8     vgui:vgui.dll
 0002:000006dc       __imp_?cursorMoved@TextEntry@vgui@@MAEXHHPAVPanel@2@@Z 100606dc     vgui:vgui.dll
 0002:000006e0       __imp_?cursorEntered@TextEntry@vgui@@MAEXPAVPanel@2@@Z 100606e0     vgui:vgui.dll
 0002:000006e4       __imp_?cursorExited@TextEntry@vgui@@MAEXPAVPanel@2@@Z 100606e4     vgui:vgui.dll
 0002:000006e8       __imp_?mousePressed@TextEntry@vgui@@MAEXW4MouseCode@2@PAVPanel@2@@Z 100606e8     vgui:vgui.dll
 0002:000006ec       __imp_?mouseDoublePressed@TextEntry@vgui@@MAEXW4MouseCode@2@PAVPanel@2@@Z 100606ec     vgui:vgui.dll
 0002:000006f0       __imp_?mouseReleased@TextEntry@vgui@@MAEXW4MouseCode@2@PAVPanel@2@@Z 100606f0     vgui:vgui.dll
 0002:000006f4       __imp_?mouseWheeled@TextEntry@vgui@@MAEXHPAVPanel@2@@Z 100606f4     vgui:vgui.dll
 0002:000006f8       __imp_?keyPressed@TextEntry@vgui@@MAEXW4KeyCode@2@PAVPanel@2@@Z 100606f8     vgui:vgui.dll
 0002:000006fc       __imp_?keyTyped@TextEntry@vgui@@MAEXW4KeyCode@2@PAVPanel@2@@Z 100606fc     vgui:vgui.dll
 0002:00000700       __imp_?keyReleased@TextEntry@vgui@@MAEXW4KeyCode@2@PAVPanel@2@@Z 10060700     vgui:vgui.dll
 0002:00000704       __imp_?keyFocusTicked@TextEntry@vgui@@MAEXPAVPanel@2@@Z 10060704     vgui:vgui.dll
 0002:00000708       __imp_?paint@EtchedBorder@vgui@@MAEXPAVPanel@2@@Z 10060708     vgui:vgui.dll
 0002:0000070c       __imp_?paint@LoweredBorder@vgui@@MAEXPAVPanel@2@@Z 1006070c     vgui:vgui.dll
 0002:00000710       __imp_??0HeaderPanel@vgui@@QAE@HHHH@Z 10060710     vgui:vgui.dll
 0002:00000714       __imp_??0TablePanel@vgui@@QAE@HHHHH@Z 10060714     vgui:vgui.dll
 0002:00000718       __imp_??0Label@vgui@@QAE@PBDHHHH@Z 10060718     vgui:vgui.dll
 0002:0000071c       __imp_??0ScrollPanel@vgui@@QAE@HHHH@Z 1006071c     vgui:vgui.dll
 0002:00000720       __imp_?seekStart@DataInputStream@vgui@@UAEXAA_N@Z 10060720     vgui:vgui.dll
 0002:00000724       __imp_?seekRelative@DataInputStream@vgui@@UAEXHAA_N@Z 10060724     vgui:vgui.dll
 0002:00000728       __imp_?seekEnd@DataInputStream@vgui@@UAEXAA_N@Z 10060728     vgui:vgui.dll
 0002:0000072c       __imp_?getAvailable@DataInputStream@vgui@@UAEHAA_N@Z 1006072c     vgui:vgui.dll
 0002:00000730       __imp_?readUChar@DataInputStream@vgui@@UAEXPAEHAA_N@Z 10060730     vgui:vgui.dll
 0002:00000734       __imp_?close@DataInputStream@vgui@@UAEXAA_N@Z 10060734     vgui:vgui.dll
 0002:00000738       __imp_?close@DataInputStream@vgui@@UAEXXZ 10060738     vgui:vgui.dll
 0002:0000073c       __imp_?readBool@DataInputStream@vgui@@UAE_NAA_N@Z 1006073c     vgui:vgui.dll
 0002:00000740       __imp_?readChar@DataInputStream@vgui@@UAEDAA_N@Z 10060740     vgui:vgui.dll
 0002:00000744       __imp_?readUChar@DataInputStream@vgui@@UAEEAA_N@Z 10060744     vgui:vgui.dll
 0002:00000748       __imp_?readShort@DataInputStream@vgui@@UAEFAA_N@Z 10060748     vgui:vgui.dll
 0002:0000074c       __imp_?readUShort@DataInputStream@vgui@@UAEGAA_N@Z 1006074c     vgui:vgui.dll
 0002:00000750       __imp_?readInt@DataInputStream@vgui@@UAEHAA_N@Z 10060750     vgui:vgui.dll
 0002:00000754       __imp_?readUInt@DataInputStream@vgui@@UAEIAA_N@Z 10060754     vgui:vgui.dll
 0002:00000758       __imp_?readLong@DataInputStream@vgui@@UAEJAA_N@Z 10060758     vgui:vgui.dll
 0002:0000075c       __imp_?readULong@DataInputStream@vgui@@UAEKAA_N@Z 1006075c     vgui:vgui.dll
 0002:00000760       __imp_?readFloat@DataInputStream@vgui@@UAEMAA_N@Z 10060760     vgui:vgui.dll
 0002:00000764       __imp_?readDouble@DataInputStream@vgui@@UAENAA_N@Z 10060764     vgui:vgui.dll
 0002:00000768       __imp_?readLine@DataInputStream@vgui@@UAEXPADHAA_N@Z 10060768     vgui:vgui.dll
 0002:0000076c       __imp_??0BitmapTGA@vgui@@QAE@PAVInputStream@1@_N@Z 1006076c     vgui:vgui.dll
 0002:00000770       __imp_??0Button@vgui@@QAE@PBDHHHH@Z 10060770     vgui:vgui.dll
 0002:00000774       __imp_??0FileInputStream@vgui@@QAE@PBD_N@Z 10060774     vgui:vgui.dll
 0002:00000778       __imp_??0Slider@vgui@@QAE@HHHH_N@Z 10060778     vgui:vgui.dll
 0002:0000077c       __imp_??0BorderLayout@vgui@@QAE@H@Z 1006077c     vgui:vgui.dll
 0002:00000780       __imp_?performLayout@BorderLayout@vgui@@UAEXPAVPanel@2@@Z 10060780     vgui:vgui.dll
 0002:00000784       __imp_?createLayoutInfo@BorderLayout@vgui@@UAEPAVLayoutInfo@2@W4Alignment@12@@Z 10060784     vgui:vgui.dll
 0002:00000788       __imp_?getPanel@SurfaceBase@vgui@@UAEPAVPanel@2@XZ 10060788     vgui:vgui.dll
 0002:0000078c       __imp_?requestSwap@SurfaceBase@vgui@@UAEXXZ 1006078c     vgui:vgui.dll
 0002:00000790       __imp_?resetModeInfo@SurfaceBase@vgui@@UAEXXZ 10060790     vgui:vgui.dll
 0002:00000794       __imp_?getModeInfoCount@SurfaceBase@vgui@@UAEHXZ 10060794     vgui:vgui.dll
 0002:00000798       __imp_?getModeInfo@SurfaceBase@vgui@@UAE_NHAAH00@Z 10060798     vgui:vgui.dll
 0002:0000079c       __imp_?getApp@SurfaceBase@vgui@@UAEPAVApp@2@XZ 1006079c     vgui:vgui.dll
 0002:000007a0       __imp_?setEmulatedCursorVisible@SurfaceBase@vgui@@UAEX_N@Z 100607a0     vgui:vgui.dll
 0002:000007a4       __imp_?setEmulatedCursorPos@SurfaceBase@vgui@@UAEXHH@Z 100607a4     vgui:vgui.dll
 0002:000007a8       __imp_?addModeInfo@SurfaceBase@vgui@@MAEXHHH@Z 100607a8     vgui:vgui.dll
 0002:000007ac       __imp_??0Font@vgui@@QAE@PBDPAXHHHMH_N222@Z 100607ac     vgui:vgui.dll
 0002:000007b0       __imp_??0Color@vgui@@QAE@XZ 100607b0     vgui:vgui.dll
 0002:000007b4       __imp_??0Image@vgui@@QAE@XZ 100607b4     vgui:vgui.dll
 0002:000007b8       __imp_??0TextImage@vgui@@QAE@PBD@Z 100607b8     vgui:vgui.dll
 0002:000007bc       __imp_??1SurfaceBase@vgui@@IAE@XZ 100607bc     vgui:vgui.dll
 0002:000007c0       __imp_?setTitle@Surface@vgui@@UAEXPBD@Z 100607c0     vgui:vgui.dll
 0002:000007c4       __imp_?setFullscreenMode@Surface@vgui@@UAE_NHHH@Z 100607c4     vgui:vgui.dll
 0002:000007c8       __imp_?setWindowedMode@Surface@vgui@@UAEXXZ 100607c8     vgui:vgui.dll
 0002:000007cc       __imp_?setAsTopMost@Surface@vgui@@UAEX_N@Z 100607cc     vgui:vgui.dll
 0002:000007d0       __imp_?getModeInfoCount@Surface@vgui@@UAEHXZ 100607d0     vgui:vgui.dll
 0002:000007d4       __imp_?createPopup@Surface@vgui@@UAEXPAVPanel@2@@Z 100607d4     vgui:vgui.dll
 0002:000007d8       __imp_?hasFocus@Surface@vgui@@UAE_NXZ 100607d8     vgui:vgui.dll
 0002:000007dc       __imp_?isWithin@Surface@vgui@@UAE_NHH@Z 100607dc     vgui:vgui.dll
 0002:000007e0       __imp_?createNewTextureID@Surface@vgui@@MAEHXZ 100607e0     vgui:vgui.dll
 0002:000007e4       __imp_?drawSetColor@Surface@vgui@@MAEXHHHH@Z 100607e4     vgui:vgui.dll
 0002:000007e8       __imp_?drawFilledRect@Surface@vgui@@MAEXHHHH@Z 100607e8     vgui:vgui.dll
 0002:000007ec       __imp_?drawOutlinedRect@Surface@vgui@@MAEXHHHH@Z 100607ec     vgui:vgui.dll
 0002:000007f0       __imp_?drawSetTextFont@Surface@vgui@@MAEXPAVFont@2@@Z 100607f0     vgui:vgui.dll
 0002:000007f4       __imp_?drawSetTextColor@Surface@vgui@@MAEXHHHH@Z 100607f4     vgui:vgui.dll
 0002:000007f8       __imp_?drawSetTextPos@Surface@vgui@@MAEXHH@Z 100607f8     vgui:vgui.dll
 0002:000007fc       __imp_?drawPrintText@Surface@vgui@@MAEXPBDH@Z 100607fc     vgui:vgui.dll
 0002:00000800       __imp_?drawSetTextureRGBA@Surface@vgui@@MAEXHPBDHH@Z 10060800     vgui:vgui.dll
 0002:00000804       __imp_?drawSetTexture@Surface@vgui@@MAEXH@Z 10060804     vgui:vgui.dll
 0002:00000808       __imp_?drawTexturedRect@Surface@vgui@@MAEXHHHH@Z 10060808     vgui:vgui.dll
 0002:0000080c       __imp_?invalidate@Surface@vgui@@MAEXPAVPanel@2@@Z 1006080c     vgui:vgui.dll
 0002:00000810       __imp_?createPlat@Surface@vgui@@MAE_NXZ 10060810     vgui:vgui.dll
 0002:00000814       __imp_?recreateContext@Surface@vgui@@MAE_NXZ 10060814     vgui:vgui.dll
 0002:00000818       __imp_?enableMouseCapture@Surface@vgui@@MAEX_N@Z 10060818     vgui:vgui.dll
 0002:0000081c       __imp_?setCursor@Surface@vgui@@MAEXPAVCursor@2@@Z 1006081c     vgui:vgui.dll
 0002:00000820       __imp_?swapBuffers@Surface@vgui@@MAEXXZ 10060820     vgui:vgui.dll
 0002:00000824       __imp_?pushMakeCurrent@Surface@vgui@@MAEXPAVPanel@2@_N@Z 10060824     vgui:vgui.dll
 0002:00000828       __imp_?popMakeCurrent@Surface@vgui@@MAEXPAVPanel@2@@Z 10060828     vgui:vgui.dll
 0002:0000082c       __imp_?applyChanges@Surface@vgui@@MAEXXZ 1006082c     vgui:vgui.dll
 0002:00000830       __imp_?paintBackground@MenuSeparator@vgui@@MAEXXZ 10060830     vgui:vgui.dll
 0002:00000834       __imp_?getInstance@App@vgui@@SAPAV12@XZ 10060834     vgui:vgui.dll
 0002:00000838       __imp_?setEnabled@BuildGroup@vgui@@UAEX_N@Z 10060838     vgui:vgui.dll
 0002:0000083c       __imp_?isEnabled@BuildGroup@vgui@@UAE_NXZ 1006083c     vgui:vgui.dll
 0002:00000840       __imp_?addCurrentPanelChangeSignal@BuildGroup@vgui@@UAEXPAVChangeSignal@2@@Z 10060840     vgui:vgui.dll
 0002:00000844       __imp_?getCurrentPanel@BuildGroup@vgui@@UAEPAVPanel@2@XZ 10060844     vgui:vgui.dll
 0002:00000848       __imp_?copyPropertiesToClipboard@BuildGroup@vgui@@UAEXXZ 10060848     vgui:vgui.dll
 0002:0000084c       __imp_?applySnap@BuildGroup@vgui@@EAEXPAVPanel@2@@Z 1006084c     vgui:vgui.dll
 0002:00000850       __imp_?fireCurrentPanelChangeSignal@BuildGroup@vgui@@EAEXXZ 10060850     vgui:vgui.dll
 0002:00000854       __imp_?panelAdded@BuildGroup@vgui@@MAEXPAVPanel@2@PBD@Z 10060854     vgui:vgui.dll
 0002:00000858       __imp_?cursorMoved@BuildGroup@vgui@@MAEXHHPAVPanel@2@@Z 10060858     vgui:vgui.dll
 0002:0000085c       __imp_?mousePressed@BuildGroup@vgui@@MAEXW4MouseCode@2@PAVPanel@2@@Z 1006085c     vgui:vgui.dll
 0002:00000860       __imp_?mouseReleased@BuildGroup@vgui@@MAEXW4MouseCode@2@PAVPanel@2@@Z 10060860     vgui:vgui.dll
 0002:00000864       __imp_?mouseDoublePressed@BuildGroup@vgui@@MAEXW4MouseCode@2@PAVPanel@2@@Z 10060864     vgui:vgui.dll
 0002:00000868       __imp_?keyTyped@BuildGroup@vgui@@MAEXW4KeyCode@2@PAVPanel@2@@Z 10060868     vgui:vgui.dll
 0002:0000086c       __imp_?getCursor@BuildGroup@vgui@@MAEPAVCursor@2@PAVPanel@2@@Z 1006086c     vgui:vgui.dll
 0002:00000870       __imp_?setValue@ScrollBar@vgui@@UAEXH@Z 10060870     vgui:vgui.dll
 0002:00000874       __imp_?getFgColor@Panel@vgui@@UAEXAAVColor@2@@Z 10060874     vgui:vgui.dll
 0002:00000878       __imp_?setFgColor@Panel@vgui@@UAEXVColor@2@@Z 10060878     vgui:vgui.dll
 0002:0000087c       __imp_?setBgColor@Panel@vgui@@UAEXVColor@2@@Z 1006087c     vgui:vgui.dll
 0002:00000880       __imp_?getBgColor@Panel@vgui@@UAEXAAH000@Z 10060880     vgui:vgui.dll
 0002:00000884       __imp_?getFgColor@Panel@vgui@@UAEXAAH000@Z 10060884     vgui:vgui.dll
 0002:00000888       __imp_?setBgColor@Panel@vgui@@UAEXHHHH@Z 10060888     vgui:vgui.dll
 0002:0000088c       __imp_?setFgColor@Panel@vgui@@UAEXHHHH@Z 1006088c     vgui:vgui.dll
 0002:00000890       __imp_?setBgColor@Panel@vgui@@UAEXW4SchemeColor@Scheme@2@@Z 10060890     vgui:vgui.dll
 0002:00000894       __imp_?setFgColor@Panel@vgui@@UAEXW4SchemeColor@Scheme@2@@Z 10060894     vgui:vgui.dll
 0002:00000898       __imp_?applyPersistanceText@Panel@vgui@@UAEXPBD@Z 10060898     vgui:vgui.dll
 0002:0000089c       __imp_?getPersistanceText@Panel@vgui@@UAEXPADH@Z 1006089c     vgui:vgui.dll
 0002:000008a0       __imp_?createPropertyPanel@Panel@vgui@@UAEPAV12@XZ 100608a0     vgui:vgui.dll
 0002:000008a4       __imp_?repaintParent@Panel@vgui@@UAEXXZ 100608a4     vgui:vgui.dll
 0002:000008a8       __imp_?removeAllChildren@Panel@vgui@@UAEXXZ 100608a8     vgui:vgui.dll
 0002:000008ac       __imp_?isBuildGroupEnabled@Panel@vgui@@UAE_NXZ 100608ac     vgui:vgui.dll
 0002:000008b0       __imp_?setBuildGroup@Panel@vgui@@UAEXPAVBuildGroup@2@PBD@Z 100608b0     vgui:vgui.dll
 0002:000008b4       __imp_?setEnabled@Panel@vgui@@UAEX_N@Z 100608b4     vgui:vgui.dll
 0002:000008b8       __imp_?isEnabled@Panel@vgui@@UAE_NXZ 100608b8     vgui:vgui.dll
 0002:000008bc       __imp_?getSurfaceBase@Panel@vgui@@UAEPAVSurfaceBase@2@XZ 100608bc     vgui:vgui.dll
 0002:000008c0       __imp_?getPreferredSize@Panel@vgui@@UAEXAAH0@Z 100608c0     vgui:vgui.dll
 0002:000008c4       __imp_?setPreferredSize@Panel@vgui@@UAEXHH@Z 100608c4     vgui:vgui.dll
 0002:000008c8       __imp_?getPaintSize@Panel@vgui@@UAEXAAH0@Z 100608c8     vgui:vgui.dll
 0002:000008cc       __imp_?getInset@Panel@vgui@@UAEXAAH000@Z 100608cc     vgui:vgui.dll
 0002:000008d0       __imp_?setPaintEnabled@Panel@vgui@@UAEX_N@Z 100608d0     vgui:vgui.dll
 0002:000008d4       __imp_?setPaintBackgroundEnabled@Panel@vgui@@UAEX_N@Z 100608d4     vgui:vgui.dll
 0002:000008d8       __imp_?setPaintBorderEnabled@Panel@vgui@@UAEX_N@Z 100608d8     vgui:vgui.dll
 0002:000008dc       __imp_?setBorder@Panel@vgui@@UAEXPAVBorder@2@@Z 100608dc     vgui:vgui.dll
 0002:000008e0       __imp_?setAutoFocusNavEnabled@Panel@vgui@@UAEX_N@Z 100608e0     vgui:vgui.dll
 0002:000008e4       __imp_?isAutoFocusNavEnabled@Panel@vgui@@UAE_NXZ 100608e4     vgui:vgui.dll
 0002:000008e8       __imp_?addFocusChangeSignal@Panel@vgui@@UAEXPAVFocusChangeSignal@2@@Z 100608e8     vgui:vgui.dll
 0002:000008ec       __imp_?requestFocusNext@Panel@vgui@@UAEXXZ 100608ec     vgui:vgui.dll
 0002:000008f0       __imp_?requestFocusPrev@Panel@vgui@@UAEXXZ 100608f0     vgui:vgui.dll
 0002:000008f4       __imp_?setFocusNavGroup@Panel@vgui@@UAEXPAVFocusNavGroup@2@@Z 100608f4     vgui:vgui.dll
 0002:000008f8       __imp_?invalidateLayout@Panel@vgui@@UAEX_N@Z 100608f8     vgui:vgui.dll
 0002:000008fc       __imp_?setLayout@Panel@vgui@@UAEXPAVLayout@2@@Z 100608fc     vgui:vgui.dll
 0002:00000900       __imp_?getChild@Panel@vgui@@UAEPAV12@H@Z 10060900     vgui:vgui.dll
 0002:00000904       __imp_?getChildCount@Panel@vgui@@UAEHXZ 10060904     vgui:vgui.dll
 0002:00000908       __imp_?hasFocus@Panel@vgui@@UAE_NXZ 10060908     vgui:vgui.dll
 0002:0000090c       __imp_?requestFocus@Panel@vgui@@UAEXXZ 1006090c     vgui:vgui.dll
 0002:00000910       __imp_?getMinimumSize@Panel@vgui@@UAEXAAH0@Z 10060910     vgui:vgui.dll
 0002:00000914       __imp_?setMinimumSize@Panel@vgui@@UAEXHH@Z 10060914     vgui:vgui.dll
 0002:00000918       __imp_?getCursor@Panel@vgui@@UAEPAVCursor@2@XZ 10060918     vgui:vgui.dll
 0002:0000091c       __imp_?setCursor@Panel@vgui@@UAEXW4SchemeCursor@Scheme@2@@Z 1006091c     vgui:vgui.dll
 0002:00000920       __imp_?setCursor@Panel@vgui@@UAEXPAVCursor@2@@Z 10060920     vgui:vgui.dll
 0002:00000924       __imp_?screenToLocal@Panel@vgui@@UAEXAAH0@Z 10060924     vgui:vgui.dll
 0002:00000928       __imp_?localToScreen@Panel@vgui@@UAEXAAH0@Z 10060928     vgui:vgui.dll
 0002:0000092c       __imp_?isWithinTraverse@Panel@vgui@@UAEPAV12@HH@Z 1006092c     vgui:vgui.dll
 0002:00000930       __imp_?isWithin@Panel@vgui@@UAE_NHH@Z 10060930     vgui:vgui.dll
 0002:00000934       __imp_?removeRepaintSignal@Panel@vgui@@UAEXPAVRepaintSignal@2@@Z 10060934     vgui:vgui.dll
 0002:00000938       __imp_?addRepaintSignal@Panel@vgui@@UAEXPAVRepaintSignal@2@@Z 10060938     vgui:vgui.dll
 0002:0000093c       __imp_?removeInputSignal@Panel@vgui@@UAEXPAVInputSignal@2@@Z 1006093c     vgui:vgui.dll
 0002:00000940       __imp_?addInputSignal@Panel@vgui@@UAEXPAVInputSignal@2@@Z 10060940     vgui:vgui.dll
 0002:00000944       __imp_?wasKeyReleased@Panel@vgui@@UAE_NW4KeyCode@2@@Z 10060944     vgui:vgui.dll
 0002:00000948       __imp_?wasKeyTyped@Panel@vgui@@UAE_NW4KeyCode@2@@Z 10060948     vgui:vgui.dll
 0002:0000094c       __imp_?isKeyDown@Panel@vgui@@UAE_NW4KeyCode@2@@Z 1006094c     vgui:vgui.dll
 0002:00000950       __imp_?wasKeyPressed@Panel@vgui@@UAE_NW4KeyCode@2@@Z 10060950     vgui:vgui.dll
 0002:00000954       __imp_?wasMouseReleased@Panel@vgui@@UAE_NW4MouseCode@2@@Z 10060954     vgui:vgui.dll
 0002:00000958       __imp_?isMouseDown@Panel@vgui@@UAE_NW4MouseCode@2@@Z 10060958     vgui:vgui.dll
 0002:0000095c       __imp_?wasMouseDoublePressed@Panel@vgui@@UAE_NW4MouseCode@2@@Z 1006095c     vgui:vgui.dll
 0002:00000960       __imp_?wasMousePressed@Panel@vgui@@UAE_NW4MouseCode@2@@Z 10060960     vgui:vgui.dll
 0002:00000964       __imp_?removeChild@Panel@vgui@@UAEXPAV12@@Z 10060964     vgui:vgui.dll
 0002:00000968       __imp_?insertChildAt@Panel@vgui@@UAEXPAV12@H@Z 10060968     vgui:vgui.dll
 0002:0000096c       __imp_?addChild@Panel@vgui@@UAEXPAV12@@Z 1006096c     vgui:vgui.dll
 0002:00000970       __imp_?setParent@Panel@vgui@@UAEXPAV12@@Z 10060970     vgui:vgui.dll
 0002:00000974       __imp_?getClipRect@Panel@vgui@@UAEXAAH000@Z 10060974     vgui:vgui.dll
 0002:00000978       __imp_?getAbsExtents@Panel@vgui@@UAEXAAH000@Z 10060978     vgui:vgui.dll
 0002:0000097c       __imp_?repaintAll@Panel@vgui@@UAEXXZ 1006097c     vgui:vgui.dll
 0002:00000980       __imp_?repaint@Panel@vgui@@UAEXXZ 10060980     vgui:vgui.dll
 0002:00000984       __imp_?isVisibleUp@Panel@vgui@@UAE_NXZ 10060984     vgui:vgui.dll
 0002:00000988       __imp_?isVisible@Panel@vgui@@UAE_NXZ 10060988     vgui:vgui.dll
 0002:0000098c       __imp_?setVisible@Panel@vgui@@UAEX_N@Z 1006098c     vgui:vgui.dll
 0002:00000990       __imp_?getParent@Panel@vgui@@UAEPAV12@XZ 10060990     vgui:vgui.dll
 0002:00000994       __imp_?getTall@Panel@vgui@@UAEHXZ 10060994     vgui:vgui.dll
 0002:00000998       __imp_?getWide@Panel@vgui@@UAEHXZ 10060998     vgui:vgui.dll
 0002:0000099c       __imp_?getBounds@Panel@vgui@@UAEXAAH000@Z 1006099c     vgui:vgui.dll
 0002:000009a0       __imp_?setBounds@Panel@vgui@@UAEXHHHH@Z 100609a0     vgui:vgui.dll
 0002:000009a4       __imp_?getSize@Panel@vgui@@UAEXAAH0@Z 100609a4     vgui:vgui.dll
 0002:000009a8       __imp_?setSize@Panel@vgui@@UAEXHH@Z 100609a8     vgui:vgui.dll
 0002:000009ac       __imp_?getPos@Panel@vgui@@UAEXAAH0@Z 100609ac     vgui:vgui.dll
 0002:000009b0       __imp_?setPos@Panel@vgui@@UAEXHH@Z 100609b0     vgui:vgui.dll
 0002:000009b4       __imp_??0Panel@vgui@@QAE@HHHH@Z 100609b4     vgui:vgui.dll
 0002:000009b8       __imp_??0Panel@vgui@@QAE@XZ 100609b8     vgui:vgui.dll
 0002:000009bc       __imp_??AColor@vgui@@UAEHH@Z 100609bc     vgui:vgui.dll
 0002:000009c0       __imp_?getColor@Color@vgui@@UAEXAAW4SchemeColor@Scheme@2@@Z 100609c0     vgui:vgui.dll
 0002:000009c4       __imp_?getColor@Color@vgui@@UAEXAAH000@Z 100609c4     vgui:vgui.dll
 0002:000009c8       __imp_?setColor@Color@vgui@@UAEXW4SchemeColor@Scheme@2@@Z 100609c8     vgui:vgui.dll
 0002:000009cc       __imp_?setColor@Color@vgui@@UAEXHHHH@Z 100609cc     vgui:vgui.dll
 0002:000009d0       __imp_?init@Color@vgui@@EAEXXZ 100609d0     vgui:vgui.dll
 0002:000009d4       __imp_??0Color@vgui@@QAE@HHHH@Z 100609d4     vgui:vgui.dll
 0002:000009d8       __imp_?getCursor@Scheme@vgui@@UAEPAVCursor@2@W4SchemeCursor@12@@Z 100609d8     vgui:vgui.dll
 0002:000009dc       __imp_?setCursor@Scheme@vgui@@UAEXW4SchemeCursor@12@PAVCursor@2@@Z 100609dc     vgui:vgui.dll
 0002:000009e0       __imp_?getFont@Scheme@vgui@@UAEPAVFont@2@W4SchemeFont@12@@Z 100609e0     vgui:vgui.dll
 0002:000009e4       __imp_?setFont@Scheme@vgui@@UAEXW4SchemeFont@12@PAVFont@2@@Z 100609e4     vgui:vgui.dll
 0002:000009e8       __imp_?getColor@Scheme@vgui@@UAEXW4SchemeColor@12@AAH111@Z 100609e8     vgui:vgui.dll
 0002:000009ec       __imp_?setColor@Scheme@vgui@@UAEXW4SchemeColor@12@HHHH@Z 100609ec     vgui:vgui.dll
 0002:000009f0       __imp_?recomputeScroll@ScrollPanel@vgui@@UAEXXZ 100609f0     vgui:vgui.dll
 0002:000009f4       \177vgui_NULL_THUNK_DATA   100609f4     vgui:vgui.dll
 0002:000009f8       ___xc_a                    100609f8     LIBCMT:crt0init.obj
 0002:00000a1c       ___xc_z                    10060a1c     LIBCMT:crt0init.obj
 0002:00000a20       ___xi_a                    10060a20     LIBCMT:crt0init.obj
 0002:00000a38       ___xi_z                    10060a38     LIBCMT:crt0init.obj
 0002:00000a3c       ___xp_a                    10060a3c     LIBCMT:crt0init.obj
 0002:00000a4c       ___xp_z                    10060a4c     LIBCMT:crt0init.obj
 0002:00000a50       ___xt_a                    10060a50     LIBCMT:crt0init.obj
 0002:00000a54       ___xt_z                    10060a54     LIBCMT:crt0init.obj
 0002:00000a64       ??_7Scheme@vgui@@6B@       10060a64     ammo.obj
 0002:00000a80       ??_7Color@vgui@@6B@        10060a80     ammo.obj
 0002:00000a9c       ??_7Panel@vgui@@6B@        10060a9c     ammo.obj
 0002:00000c9c       ??_7Label@vgui@@6B@        10060c9c     ammo.obj
 0002:00000ec8       ??_C@_00CNPNBAHC@?$AA@     10060ec8     ammo.obj
 0002:00000ed4       ??_7Image@vgui@@6B@        10060ed4     ammo.obj
 0002:00000f3c       ??_7Border@vgui@@6B@       10060f3c     ammo.obj
 0002:00000fac       ??_7LineBorder@vgui@@6B@   10060fac     ammo.obj
 0002:0000101c       ??_7ImagePanel@vgui@@6B@   1006101c     ammo.obj
 0002:00001224       ??_7Bitmap@vgui@@6B@       10061224     ammo.obj
 0002:0000128c       ??_7BitmapTGA@vgui@@6B@    1006128c     ammo.obj
 0002:000012f8       ??_7InputSignal@vgui@@6B@  100612f8     ammo.obj
 0002:0000132c       ??_7Button@vgui@@6B@       1006132c     ammo.obj
 0002:00001594       ??_7Frame@vgui@@6B@        10061594     ammo.obj
 0002:000017dc       ??_7TextPanel@vgui@@6B@    100617dc     ammo.obj
 0002:000019ec       ??_7ActionSignal@vgui@@6B@ 100619ec     ammo.obj
 0002:000019f4       ??_7InputStream@vgui@@6B@  100619f4     ammo.obj
 0002:00001a14       ??_7FileInputStream@vgui@@6B@ 10061a14     ammo.obj
 0002:00001a3c       ??_7DesktopIcon@vgui@@6B@  10061a3c     ammo.obj
 0002:00001c4c       ??_7Cursor@vgui@@6B@       10061c4c     ammo.obj
 0002:00001c64       ??_7App@vgui@@6B@          10061c64     ammo.obj
 0002:00001d44       ??_7MiniApp@vgui@@6B@      10061d44     ammo.obj
 0002:00001d54       ??_7ScrollPanel@vgui@@6B@  10061d54     ammo.obj
 0002:00001f84       ??_7ScrollBar@vgui@@6B@    10061f84     ammo.obj
 0002:000021c4       ??_7Slider@vgui@@6B@       100621c4     ammo.obj
 0002:00002408       ??_7Font@vgui@@6B@         10062408     ammo.obj
 0002:00002420       ??_C@_0P@LBFCELJB@sprites?1?$CFs?4txt?$AA@ 10062420     ammo.obj
 0002:00002430       ??_C@_09NBNKIDFG@crosshair?$AA@ 10062430     ammo.obj
 0002:0000243c       ??_C@_0P@HEMMIFBG@sprites?1?$CFs?4spr?$AA@ 1006243c     ammo.obj
 0002:0000244c       ??_C@_07KHNCKFFH@autoaim?$AA@ 1006244c     ammo.obj
 0002:00002454       ??_C@_04HKCCIOCO@zoom?$AA@ 10062454     ammo.obj
 0002:0000245c       ??_C@_0N@FNDHLGPO@zoom_autoaim?$AA@ 1006245c     ammo.obj
 0002:0000246c       ??_C@_06GEPNGEJI@weapon?$AA@ 1006246c     ammo.obj
 0002:00002474       ??_C@_08JALFICBG@weapon_s?$AA@ 10062474     ammo.obj
 0002:00002480       ??_C@_04PGKJFGNK@ammo?$AA@ 10062480     ammo.obj
 0002:00002488       ??_C@_05ILIAMGON@ammo2?$AA@ 10062488     ammo.obj
 0002:00002490       ??_C@_09PEGKEGNI@CurWeapon?$AA@ 10062490     ammo.obj
 0002:0000249c       ??_C@_0L@JMLCHIOL@WeaponList?$AA@ 1006249c     ammo.obj
 0002:000024a8       ??_C@_0L@EANOMKOP@AmmoPickup?$AA@ 100624a8     ammo.obj
 0002:000024b4       ??_C@_0L@FGOFFEAA@WeapPickup?$AA@ 100624b4     ammo.obj
 0002:000024c0       ??_C@_0L@NIFLCEON@ItemPickup?$AA@ 100624c0     ammo.obj
 0002:000024cc       ??_C@_0L@IFFGJKPB@HideWeapon?$AA@ 100624cc     ammo.obj
 0002:000024d8       ??_C@_05BDDOEAPG@AmmoX?$AA@ 100624d8     ammo.obj
 0002:000024e0       ??_C@_05GJKJJLBE@slot1?$AA@ 100624e0     ammo.obj
 0002:000024e8       ??_C@_05ECIEMINH@slot2?$AA@ 100624e8     ammo.obj
 0002:000024f0       ??_C@_05FLJPPJJG@slot3?$AA@ 100624f0     ammo.obj
 0002:000024f8       ??_C@_05BENOGPFB@slot4?$AA@ 100624f8     ammo.obj
 0002:00002500       ??_C@_05NMFFOBA@slot5?$AA@ 10062500     ammo.obj
 0002:00002508       ??_C@_05CGOIANND@slot6?$AA@ 10062508     ammo.obj
 0002:00002510       ??_C@_05DPPDDMJC@slot7?$AA@ 10062510     ammo.obj
 0002:00002518       ??_C@_05LIGLCAFN@slot8?$AA@ 10062518     ammo.obj
 0002:00002520       ??_C@_05KBHABBBM@slot9?$AA@ 10062520     ammo.obj
 0002:00002528       ??_C@_06MFPFELBF@slot10?$AA@ 10062528     ammo.obj
 0002:00002530       ??_C@_0N@INMGFMHB@cancelselect?$AA@ 10062530     ammo.obj
 0002:00002540       ??_C@_07GIMAAJGF@invnext?$AA@ 10062540     ammo.obj
 0002:00002548       ??_C@_07FMBGBNAB@invprev?$AA@ 10062548     ammo.obj
 0002:00002550       ??_C@_01BMBHCPLG@5?$AA@    10062550     ammo.obj
 0002:00002554       ??_C@_0BF@FCIGCOBI@hud_drawhistory_time?$AA@ 10062554     ammo.obj
 0002:0000256c       ??_C@_01GBGANLPD@0?$AA@    1006256c     ammo.obj
 0002:00002570       ??_C@_0P@HAOPMPEA@hud_fastswitch?$AA@ 10062570     ammo.obj
 0002:00002580       ??_C@_07EPJMIDHL@bucket1?$AA@ 10062580     ammo.obj
 0002:00002588       ??_C@_09DFNMPCAJ@selection?$AA@ 10062588     ammo.obj
 0002:00002594       ??_C@_0BG@FBAPKLEJ@common?1wpn_select?4wav?$AA@ 10062594     ammo.obj
 0002:000025ac       ??_C@_0BF@JMGAEGF@common?1wpn_hudon?4wav?$AA@ 100625ac     ammo.obj
 0002:000025c4       ??_C@_0BK@JHOFLAAJ@common?1wpn_moveselect?4wav?$AA@ 100625c4     ammo.obj
 0002:000025e0       ??_C@_0BG@MNEIFLMJ@common?1wpn_hudoff?4wav?$AA@ 100625e0     ammo.obj
 0002:000025f8       ??_C@_06CHNIFGOF@escape?$AA@ 100625f8     ammo.obj
 0002:00002600       __real@00000000            10062600     ammo.obj
 0002:00002604       __real@3f800000            10062604     ammo.obj
 0002:00002608       __real@4034000000000000    10062608     ammo.obj
 0002:00002610       __real@42c80000            10062610     ammo.obj
 0002:00002614       ??_C@_0L@OJGBEBOP@SecAmmoVal?$AA@ 10062614     ammo_secondary.obj
 0002:00002620       ??_C@_0M@IBNNKOAA@SecAmmoIcon?$AA@ 10062620     ammo_secondary.obj
 0002:0000262c       __real@42a00000            1006262c     ammohistory.obj
 0002:00002630       __real@437f0000            10062630     ammohistory.obj
 0002:00002634       ??_C@_07OFDFNCDP@Battery?$AA@ 10062634     battery.obj
 0002:0000263c       ??_C@_0L@BBDOIKEM@suit_empty?$AA@ 1006263c     battery.obj
 0002:00002648       ??_C@_09FDHCBOKO@suit_full?$AA@ 10062648     battery.obj
 0002:00002658       __real@3f847ae147ae147b    10062658     battery.obj
 0002:00002660       __real@43000000            10062660     battery.obj
 0002:00002668       ??_7CHudBase@@6B@          10062668     cdll_int.obj
 0002:00002688       ??_7CHudSpectator@@6B@     10062688     cdll_int.obj
 0002:000026a8       ??_7CHudAmmo@@6B@          100626a8     cdll_int.obj
 0002:000026c8       ??_7CHudAmmoSecondary@@6B@ 100626c8     cdll_int.obj
 0002:000026e8       ??_7CHudHealth@@6B@        100626e8     cdll_int.obj
 0002:00002708       ??_7CHudGeiger@@6B@        10062708     cdll_int.obj
 0002:00002728       ??_7CHudTrain@@6B@         10062728     cdll_int.obj
 0002:00002748       ??_7CHudStatusBar@@6B@     10062748     cdll_int.obj
 0002:00002768       ??_7CHudDeathNotice@@6B@   10062768     cdll_int.obj
 0002:00002788       ??_7CHudMenu@@6B@          10062788     cdll_int.obj
 0002:000027a8       ??_7CHudSayText@@6B@       100627a8     cdll_int.obj
 0002:000027c8       ??_7CHudBattery@@6B@       100627c8     cdll_int.obj
 0002:000027e8       ??_7CHudFlashlight@@6B@    100627e8     cdll_int.obj
 0002:00002808       ??_7CHudTextMessage@@6B@   10062808     cdll_int.obj
 0002:00002828       ??_7CHudMessage@@6B@       10062828     cdll_int.obj
 0002:00002848       ??_7CHudStatusIcons@@6B@   10062848     cdll_int.obj
 0002:00002864       ??_C@_02DKCKIIND@?$CFs?$AA@ 10062864     com_weapons.obj
 0002:00002868       ??_C@_04HPNHAEOP@func?$AA@ 10062868     com_weapons.obj
 0002:00002870       __real@3ef0000000000000    10062870     com_weapons.obj
 0002:00002880       __xmm@41f00000000000000000000000000000 10062880     com_weapons.obj
 0002:00002890       ??_C@_08DMGIIAG@DeathMsg?$AA@ 10062890     death.obj
 0002:0000289c       ??_C@_01DHDKHMHF@6?$AA@    1006289c     death.obj
 0002:000028a0       ??_C@_0BF@IGDIMMCO@hud_deathnotice_time?$AA@ 100628a0     death.obj
 0002:000028b8       ??_C@_07KMNBGIPL@d_skull?$AA@ 100628b8     death.obj
 0002:000028c0       ??_C@_02HCEDAEIK@d_?$AA@   100628c0     death.obj
 0002:000028c4       ??_C@_0L@DJMPGNEL@d_teammate?$AA@ 100628c4     death.obj
 0002:000028d0       ??_C@_0L@EIFJPPDG@?5killed?5a?5?$AA@ 100628d0     death.obj
 0002:000028dc       ??_C@_01EEMJAFIK@?6?$AA@   100628dc     death.obj
 0002:000028e0       ??_C@_07JHMODOJM@d_world?$AA@ 100628e0     death.obj
 0002:000028e8       ??_C@_05CMIAJFAG@?5died?$AA@ 100628e8     death.obj
 0002:000028f0       ??_C@_0N@GAJOKECJ@?5killed?5self?$AA@ 100628f0     death.obj
 0002:00002900       ??_C@_0BG@HEJMPEDM@?5killed?5his?5teammate?5?$AA@ 10062900     death.obj
 0002:00002918       ??_C@_08PNPOMJCL@?5killed?5?$AA@ 10062918     death.obj
 0002:00002924       ??_C@_06BIDGLIKJ@?5with?5?$AA@ 10062924     death.obj
 0002:0000292c       ??_C@_04HGALPFFB@egon?$AA@ 1006292c     death.obj
 0002:00002934       ??_C@_0M@KIJAOLEC@d_gluon?5gun?$AA@ 10062934     death.obj
 0002:00002940       ??_C@_05PBNKJDNB@gauss?$AA@ 10062940     death.obj
 0002:00002948       ??_C@_0N@HPEKGPJE@d_tau?5cannon?$AA@ 10062948     death.obj
 0002:00002958       __real@3f000000            10062958     death.obj
 0002:0000295c       __real@42000000            1006295c     death.obj
 0002:00002960       __real@43f00000            10062960     death.obj
 0002:00002964       ??_C@_0CF@ICKHGGMC@Unknown?5demo?5buffer?5type?0?5skippi@ 10062964     demo.obj
 0002:00002994       ??_7TextImage@vgui@@6B@    10062994     entity.obj
 0002:00002a18       ??_7Layout@vgui@@6B@       10062a18     entity.obj
 0002:00002a20       ??_7StackLayout@vgui@@6B@  10062a20     entity.obj
 0002:00002a2c       ??_7CCommandMenu@@6B@      10062a2c     entity.obj
 0002:00002c28       ??_C@_0P@FKBIPHPD@opengg_light_r?$AA@ 10062c28     entity.obj
 0002:00002c38       ??_C@_0P@GNKNBBOH@opengg_light_g?$AA@ 10062c38     entity.obj
 0002:00002c48       ??_C@_0P@BANKOFKC@opengg_light_b?$AA@ 10062c48     entity.obj
 0002:00002c58       ??_C@_0BG@KJJGBBLK@opengg_only_plr_light?$AA@ 10062c58     entity.obj
 0002:00002c70       ??_C@_0BE@PJFIHGPA@opengg_light_radius?$AA@ 10062c70     entity.obj
 0002:00002c84       ??_C@_0BA@OPEAPCNH@opengg_showmenu?$AA@ 10062c84     entity.obj
 0002:00002c94       ??_C@_04MEMAJGDJ@name?$AA@ 10062c94     entity.obj
 0002:00002c9c       ??_C@_0O@PENEMBHF@OpenGG64?5user?$AA@ 10062c9c     entity.obj
 0002:00002cac       ??_C@_03BANJEMDJ@say?$AA@  10062cac     entity.obj
 0002:00002cb0       ??_C@_01HIHLOKLC@1?$AA@    10062cb0     entity.obj
 0002:00002cb4       ??_C@_0BB@GPOENFDL@opengg_lightning?$AA@ 10062cb4     entity.obj
 0002:00002cc8       ??_C@_0BC@MNDLIAMM@opengg_alphamodel?$AA@ 10062cc8     entity.obj
 0002:00002cdc       ??_C@_0BD@BOCHCACK@opengg_gravityhack?$AA@ 10062cdc     entity.obj
 0002:00002cf0       ??_C@_0BE@DKBCBOIB@opengg_frictionhack?$AA@ 10062cf0     entity.obj
 0002:00002d04       ??_C@_03CPCFKGMH@256?$AA@  10062d04     entity.obj
 0002:00002d08       ??_C@_0BG@OEFBHNDM@opengg_light_teamplay?$AA@ 10062d08     entity.obj
 0002:00002d20       ??_C@_03EAIPFAE@255?$AA@   10062d20     entity.obj
 0002:00002d24       ??_C@_0BB@LCFMJEPC@opengg_invisible?$AA@ 10062d24     entity.obj
 0002:00002d38       ??_C@_0BC@NPJOBKD@opengg_chasecam_x?$AA@ 10062d38     entity.obj
 0002:00002d4c       ??_C@_0BC@BEOCNAOC@opengg_chasecam_y?$AA@ 10062d4c     entity.obj
 0002:00002d60       ??_C@_0BC@DPMPIDCB@opengg_chasecam_z?$AA@ 10062d60     entity.obj
 0002:00002d74       ??_C@_0BB@EGGMEGDG@opengg_sethealth?$AA@ 10062d74     entity.obj
 0002:00002d88       ??_C@_0L@OGFLGCEK@opengg_esp?$AA@ 10062d88     entity.obj
 0002:00002d94       ??_C@_0O@IBPKNABD@opengg_aimbot?$AA@ 10062d94     entity.obj
 0002:00002da4       ??_C@_0BC@ODBHBBDG@opengg_aim_silent?$AA@ 10062da4     entity.obj
 0002:00002db8       ??_C@_0N@PIKPNLMI@opengg_entid?$AA@ 10062db8     entity.obj
 0002:00002dc8       ??_C@_0BC@OJBLAKFO@opengg_autostrafe?$AA@ 10062dc8     entity.obj
 0002:00002ddc       ??_C@_02MLODCJFF@32?$AA@   10062ddc     entity.obj
 0002:00002de0       ??_C@_0BC@JHGICCDA@opengg_aim_height?$AA@ 10062de0     entity.obj
 0002:00002df4       ??_C@_0BH@ENFEPDDN@opengg_smooth_movement?$AA@ 10062df4     entity.obj
 0002:00002e0c       ??_C@_0BC@HNOBDGDL@opengg_nextattack?$AA@ 10062e0c     entity.obj
 0002:00002e20       ??_C@_0O@PMOKDEKD@opengg_view_x?$AA@ 10062e20     entity.obj
 0002:00002e30       ??_C@_0O@OFPBAFOC@opengg_view_y?$AA@ 10062e30     entity.obj
 0002:00002e40       ??_C@_0O@MONMFGCB@opengg_view_z?$AA@ 10062e40     entity.obj
 0002:00002e50       ??_C@_0BF@CGLELDFF@opengg_fakespectator?$AA@ 10062e50     entity.obj
 0002:00002e68       ??_C@_0BH@HHLBHBED@opengg_remove_hitboxes?$AA@ 10062e68     entity.obj
 0002:00002e80       ??_C@_0BE@JBNMPOGL@opengg_fallvelocity?$AA@ 10062e80     entity.obj
 0002:00002e94       ??_C@_0P@GPIOLPKM@opengg_physics?$AA@ 10062e94     entity.obj
 0002:00002ea4       ??_C@_0N@HEHDHMID@opengg_infos?$AA@ 10062ea4     entity.obj
 0002:00002eb4       ??_C@_0BF@GNGABIPE@opengg_momental_ddos?$AA@ 10062eb4     entity.obj
 0002:00002ecc       ??_C@_0BE@MICJGKMC@opengg_names_string?$AA@ 10062ecc     entity.obj
 0002:00002ee0       ??_C@_0BE@INLJBJHM@opengg_request_ddos?$AA@ 10062ee0     entity.obj
 0002:00002ef4       ??_C@_0P@FJHPDLCB@opengg_ddosip1?$AA@ 10062ef4     entity.obj
 0002:00002f04       ??_C@_0P@HCFCGIOC@opengg_ddosip2?$AA@ 10062f04     entity.obj
 0002:00002f14       ??_C@_0P@GLEJFJKD@opengg_ddosip3?$AA@ 10062f14     entity.obj
 0002:00002f24       ??_C@_0P@CEAIMPGE@opengg_ddosip4?$AA@ 10062f24     entity.obj
 0002:00002f34       ??_C@_0P@DNBDPOCF@opengg_ddosip5?$AA@ 10062f34     entity.obj
 0002:00002f44       ??_C@_0BA@BADFFCDE@opengg_ddosport?$AA@ 10062f44     entity.obj
 0002:00002f54       ??_C@_0BC@EPCKLBJA@opengg_serverinfo?$AA@ 10062f54     entity.obj
 0002:00002f68       ??_C@_04CGFJFPFD@none?$AA@ 10062f68     entity.obj
 0002:00002f70       ??_C@_0BB@HCEJPOFF@opengg_playmusic?$AA@ 10062f70     entity.obj
 0002:00002f84       ??_C@_0BC@CFFLHLGF@opengg_fullbright?$AA@ 10062f84     entity.obj
 0002:00002f98       ??_C@_0BA@JMAMAKIL@opengg_spinhack?$AA@ 10062f98     entity.obj
 0002:00002fa8       ??_C@_0BC@MICIDOGO@opengg_spin_range?$AA@ 10062fa8     entity.obj
 0002:00002fbc       ??_C@_08CBBFJFMD@location?$AA@ 10062fbc     entity.obj
 0002:00002fc8       ??_C@_0BJ@BFHEAGAF@opengg_strafer_autowalks?$AA@ 10062fc8     entity.obj
 0002:00002fe4       ??_C@_0BF@OAADOGCE@opengg_strafe_silent?$AA@ 10062fe4     entity.obj
 0002:00002ffc       ??_C@_0BA@IBAEGNHK@opengg_autoduck?$AA@ 10062ffc     entity.obj
 0002:0000300c       ??_C@_0BA@KEHLOIHP@opengg_chatspam?$AA@ 1006300c     entity.obj
 0002:0000301c       ??_C@_0BA@GFLPFBJ@opengg_fakeping?$AA@ 1006301c     entity.obj
 0002:0000302c       ??_C@_0BF@OHNMFPJF@opengg_secureamxexec?$AA@ 1006302c     entity.obj
 0002:00003044       ??_C@_0BA@DOJKPPLL@opengg_tablered?$AA@ 10063044     entity.obj
 0002:00003054       ??_C@_0BC@KGDGFGFJ@opengg_tablegreen?$AA@ 10063054     entity.obj
 0002:00003068       ??_C@_0BB@EEALHOFG@opengg_tableblue?$AA@ 10063068     entity.obj
 0002:0000307c       ??_C@_03GLMKKOKP@150?$AA@  1006307c     entity.obj
 0002:00003080       ??_C@_0BC@EHDILEJG@opengg_tablealpha?$AA@ 10063080     entity.obj
 0002:00003094       ??_C@_0BD@PHEAOPPD@opengg_visitgithub?$AA@ 10063094     entity.obj
 0002:000030a8       ??_C@_0BC@IEEAEEGJ@opengg_drawhitbox?$AA@ 100630a8     entity.obj
 0002:000030bc       ??_C@_0BH@LDFELNGM@opengg_drawcontactzone?$AA@ 100630bc     entity.obj
 0002:000030d4       ??_C@_0BH@HKBAHPGA@opengg_hitbox_only_plr?$AA@ 100630d4     entity.obj
 0002:000030ec       ??_C@_03GNABGMEE@100?$AA@  100630ec     entity.obj
 0002:000030f0       ??_C@_02GJEFMFID@hp?$AA@   100630f0     entity.obj
 0002:000030f8       ??_C@_0IO@EPPOPAKB@?6?$DN?$DN?$DN?$DN?$DN?$DN?$DN?$DN?$DN?$DN?$DN?$DN?$DN?$DN?$DN?$DN?$DN?$DN?$DN?$DN?$DN?$DNOpenGG64?5@ 100630f8     entity.obj
 0002:00003188       ??_C@_0FA@FLGKKOOD@?6All?5commands?5starts?5with?5opengg@ 10063188     entity.obj
 0002:000031d8       ??_C@_0BJ@JGKJBFBF@?6?$DN?$DN?$DN?$DN?$DN?$DN?$DN?$DN?$DN?$DN?$DN?$DN?$DN?$DN?$DN?$DN?$DN?$DN?$DN?$DN?$DN?$DN?6?$AA@ 100631d8     entity.obj
 0002:000031f4       ??_C@_0BC@EKLBPOF@Server?5?5?5?5?5?5info?6?$AA@ 100631f4     entity.obj
 0002:00003208       ??_C@_08EHKIGBEA@hostname?$AA@ 10063208     entity.obj
 0002:00003214       ??_C@_0BB@NNGIDLFI@Server?5name?3?5?$CFd?6?$AA@ 10063214     entity.obj
 0002:00003228       ??_C@_0M@NAINEIIC@sv_maxspeed?$AA@ 10063228     entity.obj
 0002:00003234       ??_C@_0O@IJMKBGIJ@MaxSpeed?3?5?$CFd?6?$AA@ 10063234     entity.obj
 0002:00003248       __real@3f50624dd2f1a9fc    10063248     entity.obj
 0002:00003250       __real@3fb999999999999a    10063250     entity.obj
 0002:00003258       __real@3fe0000000000000    10063258     entity.obj
 0002:00003260       __real@3fe6666666666666    10063260     entity.obj
 0002:00003268       __real@3feccccccccccccd    10063268     entity.obj
 0002:00003270       __real@40000000            10063270     entity.obj
 0002:00003278       __real@4010000000000000    10063278     entity.obj
 0002:00003280       __real@4016000000000000    10063280     entity.obj
 0002:00003288       __real@4020000000000000    10063288     entity.obj
 0002:00003290       __real@4024000000000000    10063290     entity.obj
 0002:00003298       __real@403e000000000000    10063298     entity.obj
 0002:000032a0       __real@40400000            100632a0     entity.obj
 0002:000032a4       __real@41000000            100632a4     entity.obj
 0002:000032a8       __real@41200000            100632a8     entity.obj
 0002:000032ac       __real@c0000000            100632ac     entity.obj
 0002:000032b0       __xmm@80000000000000008000000000000000 100632b0     entity.obj
 0002:000032c0       __xmm@80000000800000008000000080000000 100632c0     entity.obj
 0002:000032d0       __real@41400000            100632d0     ev_common.obj
 0002:000032d4       __real@41c80000            100632d4     ev_common.obj
 0002:000032d8       ??_C@_0L@PALCELJK@Flashlight?$AA@ 100632d8     flashlight.obj
 0002:000032e4       ??_C@_08JFEKNMJ@FlashBat?$AA@ 100632e4     flashlight.obj
 0002:000032f0       ??_C@_0M@MHLCMJDD@flash_empty?$AA@ 100632f0     flashlight.obj
 0002:000032fc       ??_C@_0L@JJCIJAO@flash_full?$AA@ 100632fc     flashlight.obj
 0002:00003308       ??_C@_0L@LNMINKED@flash_beam?$AA@ 10063308     flashlight.obj
 0002:00003318       __real@3fc999999999999a    10063318     flashlight.obj
 0002:00003320       __real@3ff0000000000000    10063320     flashlight.obj
 0002:00003328       __real@4059000000000000    10063328     flashlight.obj
 0002:00003334       ??_7CGameStudioModelRenderer@@6B@ 10063334     GameStudioModelRenderer.obj
 0002:00003398       ??_C@_06NKMADNKG@Geiger?$AA@ 10063398     geiger.obj
 0002:000033a0       ??_C@_0BE@FKNPHJHA@player?1geiger?$CFd?4wav?$AA@ 100633a0     geiger.obj
 0002:000033b4       __real@3ecccccd            100633b4     geiger.obj
 0002:000033b8       __real@3f19999a            100633b8     geiger.obj
 0002:000033bc       __real@3f333333            100633bc     geiger.obj
 0002:000033c0       __real@3f47ae14            100633c0     geiger.obj
 0002:000033c4       __real@3f4ccccd            100633c4     geiger.obj
 0002:000033c8       __real@3f59999a            100633c8     geiger.obj
 0002:000033cc       __real@3f666666            100633cc     geiger.obj
 0002:000033d0       __real@3f733333            100633d0     geiger.obj
 0002:000033d8       __real@3fd0000000000000    100633d8     geiger.obj
 0002:000033e0       ??_C@_06GGDALCBD@Health?$AA@ 100633e0     health.obj
 0002:000033e8       ??_C@_06KGFFMMMJ@Damage?$AA@ 100633e8     health.obj
 0002:000033f0       ??_C@_07LPODHMEF@dmg_bio?$AA@ 100633f0     health.obj
 0002:000033f8       ??_C@_05HCKPILGO@cross?$AA@ 100633f8     health.obj
 0002:00003400       ??_C@_0BE@OILPIOEO@sprites?1?$CFd_pain?4spr?$AA@ 10063400     health.obj
 0002:00003418       __real@3fd3333333333333    10063418     health.obj
 0002:00003420       __real@3fd999999999999a    10063420     health.obj
 0002:00003428       __real@4000000000000000    10063428     health.obj
 0002:00003430       __real@406fe00000000000    10063430     health.obj
 0002:00003438       __real@4070000000000000    10063438     health.obj
 0002:00003440       __real@42480000            10063440     health.obj
 0002:00003448       ??_7IVoiceStatusHelper@@6B@ 10063448     hud.obj
 0002:00003464       ??_7TablePanel@vgui@@6B@   10063464     hud.obj
 0002:000036bc       ??_7HeaderPanel@vgui@@6B@  100636bc     hud.obj
 0002:000038e4       ??_7TextGrid@vgui@@6B@     100638e4     hud.obj
 0002:00003af8       ??_7IntChangeSignal@vgui@@6B@ 10063af8     hud.obj
 0002:00003b04       ??_7Slider2@vgui@@6B@      10063b04     hud.obj
 0002:00003d4c       ??_7ScrollBar2@vgui@@6B@   10063d4c     hud.obj
 0002:00003f8c       ??_7CHLVoiceStatusHelper@@6B@ 10063f8c     hud.obj
 0002:00003fa0       ??_C@_04GIGGPADC@Logo?$AA@ 10063fa0     hud.obj
 0002:00003fa8       ??_C@_08PEHACIKG@ResetHUD?$AA@ 10063fa8     hud.obj
 0002:00003fb4       ??_C@_08JJGOBBMF@GameMode?$AA@ 10063fb4     hud.obj
 0002:00003fc0       ??_C@_07PEONMAPN@InitHUD?$AA@ 10063fc0     hud.obj
 0002:00003fc8       ??_C@_08IMMBLBLF@ViewMode?$AA@ 10063fc8     hud.obj
 0002:00003fd4       ??_C@_06NJNDMID@SetFOV?$AA@ 10063fd4     hud.obj
 0002:00003fdc       ??_C@_07KCBJBGLB@Concuss?$AA@ 10063fdc     hud.obj
 0002:00003fe4       ??_C@_0N@JIBPHNJL@?$CLcommandmenu?$AA@ 10063fe4     hud.obj
 0002:00003ff4       ??_C@_0N@DIPKKCEG@?9commandmenu?$AA@ 10063ff4     hud.obj
 0002:00004004       ??_C@_0BG@OILKJFBH@ForceCloseCommandMenu?$AA@ 10064004     hud.obj
 0002:0000401c       ??_C@_07BELCMIIP@special?$AA@ 1006401c     hud.obj
 0002:00004024       ??_C@_0O@HNPIGJHN@togglebrowser?$AA@ 10064024     hud.obj
 0002:00004034       ??_C@_08EMNINLMN@ValClass?$AA@ 10064034     hud.obj
 0002:00004040       ??_C@_09FOBMMBJB@TeamNames?$AA@ 10064040     hud.obj
 0002:0000404c       ??_C@_05DGCGGMBF@Feign?$AA@ 1006404c     hud.obj
 0002:00004054       ??_C@_07MIOHHHKI@Detpack?$AA@ 10064054     hud.obj
 0002:0000405c       ??_C@_04KFGJNABM@MOTD?$AA@ 1006405c     hud.obj
 0002:00004064       ??_C@_07KNOBJCBL@BuildSt?$AA@ 10064064     hud.obj
 0002:0000406c       ??_C@_08HEDJKFEE@RandomPC?$AA@ 1006406c     hud.obj
 0002:00004078       ??_C@_0L@FFDIDHBB@ServerName?$AA@ 10064078     hud.obj
 0002:00004084       ??_C@_09CBJIIAKN@ScoreInfo?$AA@ 10064084     hud.obj
 0002:00004090       ??_C@_09DEGMELBN@TeamScore?$AA@ 10064090     hud.obj
 0002:0000409c       ??_C@_08BHMNHEND@TeamInfo?$AA@ 1006409c     hud.obj
 0002:000040a8       ??_C@_09BCJOCADI@Spectator?$AA@ 100640a8     hud.obj
 0002:000040b4       ??_C@_09CPIHBJAO@AllowSpec?$AA@ 100640b4     hud.obj
 0002:000040c0       ??_C@_08NOMGHFLN@VGUIMenu?$AA@ 100640c0     hud.obj
 0002:000040cc       ??_C@_0BC@MNNNKHJ@hud_classautokill?$AA@ 100640cc     hud.obj
 0002:000040e0       ??_C@_0P@LAMKKGMB@hud_takesshots?$AA@ 100640e0     hud.obj
 0002:000040f0       ??_C@_03EJIPIALM@1?42?$AA@ 100640f0     hud.obj
 0002:000040f4       ??_C@_0BH@EHIOFMDB@zoom_sensitivity_ratio?$AA@ 100640f4     hud.obj
 0002:0000410c       ??_C@_02PEECMOAB@90?$AA@   1006410c     hud.obj
 0002:00004110       ??_C@_0M@LPOJOBFH@default_fov?$AA@ 10064110     hud.obj
 0002:0000411c       ??_C@_0BB@IOFCFALI@hud_capturemouse?$AA@ 1006411c     hud.obj
 0002:00004130       ??_C@_08BMDDHCHB@hud_draw?$AA@ 10064130     hud.obj
 0002:0000413c       ??_C@_05COECHLGF@cl_lw?$AA@ 1006413c     hud.obj
 0002:00004144       ??_C@_0BA@ICAOBHNB@sprites?1hud?4txt?$AA@ 10064144     hud.obj
 0002:00004154       ??_C@_08OOPIGCLD@number_0?$AA@ 10064154     hud.obj
 0002:00004160       ??_C@_0M@GLFMHAAH@dmg_concuss?$AA@ 10064160     hud_msg.obj
 0002:0000416c       ??_C@_09ILCFAPJK@snapshot?6?$AA@ 1006416c     hud_redraw.obj
 0002:00004178       ??_C@_0BE@CMKCIFOB@sprites?1?$CFd_logo?4spr?$AA@ 10064178     hud_redraw.obj
 0002:0000418c       ??_C@_02DPKJAMEF@?$CFd?$AA@ 1006418c     hud_redraw.obj
 0002:00004190       __real@41a00000            10064190     hud_redraw.obj
 0002:00004194       __real@42b40000            10064194     hud_redraw.obj
 0002:00004198       ??_C@_09HALKJNGK@got?5list?6?$AA@ 10064198     hud_servers.obj
 0002:000041a4       ??_C@_02IKAHHCAI@?$CFi?$AA@ 100641a4     hud_servers.obj
 0002:000041a8       ??_C@_07LHEPONKL@address?$AA@ 100641a8     hud_servers.obj
 0002:000041b0       ??_C@_04OONEELOO@ping?$AA@ 100641b0     hud_servers.obj
 0002:000041b8       ??_C@_0BH@POMFIJOE@half?9life?4east?4won?4net?$AA@ 100641b8     hud_servers.obj
 0002:000041d0       ??_C@_0M@PIDBIKCE@woncomm?4lst?$AA@ 100641d0     hud_servers.obj
 0002:000041dc       ??_C@_05NIIEOPOF@?9comm?$AA@ 100641dc     hud_servers.obj
 0002:000041e4       ??_C@_06INNNFHKM@Master?$AA@ 100641e4     hud_servers.obj
 0002:000041ec       ??_C@_01HCONENDN@?$HL?$AA@ 100641ec     hud_servers.obj
 0002:000041f0       ??_C@_01CELHOKLL@?$HN?$AA@ 100641f0     hud_servers.obj
 0002:000041f4       ??_C@_01JLIPDDHJ@?3?$AA@   100641f4     hud_servers.obj
 0002:000041f8       ??_C@_05LCABBMOG@?$CFs?3?$CFi?$AA@ 100641f8     hud_servers.obj
 0002:00004200       ??_C@_0DG@OAALHIGH@SendRequest?3?5?5Unable?5to?5read?5mas@ 10064200     hud_servers.obj
 0002:00004238       __real@4014000000000000    10064238     hud_servers.obj
 0002:00004240       __real@408f400000000000    10064240     hud_servers.obj
 0002:00004248       ??_C@_0CO@GBFHPFON@usage?3?5?5spec_mode?5?$DMMain?5Mode?$DO?5?$FL?$DM@ 10064248     hud_spectator.obj
 0002:00004278       ??_C@_0BM@PBPJNGEE@drc_spray?5?$CF?42f?5?$CF?42f?5?$CF?42f?5?$CFi?$AA@ 10064278     hud_spectator.obj
 0002:00004294       ??_C@_0BA@CCNJAPBO@?$CDSpec_Help_Text?$AA@ 10064294     hud_spectator.obj
 0002:000042a4       ??_C@_02HAOIJKIC@?$CFc?$AA@ 100642a4     hud_spectator.obj
 0002:000042a8       ??_C@_0BJ@PAGNGJCG@usage?3?5?5spec_menu?5?$DM0?$HM1?$DO?6?$AA@ 100642a8     hud_spectator.obj
 0002:000042c4       ??_C@_09HLJGIAPF@spec_mode?$AA@ 100642c4     hud_spectator.obj
 0002:000042d0       ??_C@_0L@PDIFGNLE@spec_decal?$AA@ 100642d0     hud_spectator.obj
 0002:000042dc       ??_C@_09OFGNFIEN@spec_help?$AA@ 100642dc     hud_spectator.obj
 0002:000042e8       ??_C@_09FDHOPHBG@spec_menu?$AA@ 100642e8     hud_spectator.obj
 0002:000042f4       ??_C@_0N@HLDCAAPM@togglescores?$AA@ 100642f4     hud_spectator.obj
 0002:00004304       ??_C@_0P@FEANDMPB@spec_drawnames?$AA@ 10064304     hud_spectator.obj
 0002:00004314       ??_C@_0O@GOPFKL@spec_drawcone?$AA@ 10064314     hud_spectator.obj
 0002:00004324       ??_C@_0BA@LCDGCKOM@spec_drawstatus?$AA@ 10064324     hud_spectator.obj
 0002:00004334       ??_C@_0BC@DGEJKFNE@spec_autodirector?$AA@ 10064334     hud_spectator.obj
 0002:00004348       ??_C@_08JCCDOKLI@spec_pip?$AA@ 10064348     hud_spectator.obj
 0002:00004354       ??_C@_0DD@MECJOOGH@ERROR?$CB?5Couldn?8t?5register?5all?5spe@ 10064354     hud_spectator.obj
 0002:00004388       ??_C@_0DB@OHOEAMHJ@UTIL_FindEntityInMap?3?5EOF?5withou@ 10064388     hud_spectator.obj
 0002:000043bc       ??_C@_0CC@LNLNNALJ@UTIL_FindEntityInMap?3?5expected?5?$HL@ 100643bc     hud_spectator.obj
 0002:000043e0       ??_C@_0DB@LCCPKBCM@UTIL_FindEntityInMap?3?5closing?5br@ 100643e0     hud_spectator.obj
 0002:00004414       ??_C@_09CNJINBGN@classname?$AA@ 10064414     hud_spectator.obj
 0002:00004420       ??_C@_05FECBCJJD@angle?$AA@ 10064420     hud_spectator.obj
 0002:00004428       ??_C@_06GNEAMJOC@angles?$AA@ 10064428     hud_spectator.obj
 0002:00004430       ??_C@_06NHCMNMEH@origin?$AA@ 10064430     hud_spectator.obj
 0002:00004438       ??_C@_0P@FJOMPPCK@trigger_camera?$AA@ 10064438     hud_spectator.obj
 0002:00004448       ??_C@_0BC@IHPKIKNE@info_player_start?$AA@ 10064448     hud_spectator.obj
 0002:0000445c       ??_C@_0BH@IGAFCIL@info_player_deathmatch?$AA@ 1006445c     hud_spectator.obj
 0002:00004474       ??_C@_0BB@HKBBLLCA@info_player_coop?$AA@ 10064474     hud_spectator.obj
 0002:00004488       ??_C@_0BE@OHGMCOHF@sprites?1iplayer?4spr?$AA@ 10064488     hud_spectator.obj
 0002:0000449c       ??_C@_0BI@GEBELBH@sprites?1iplayerblue?4spr?$AA@ 1006449c     hud_spectator.obj
 0002:000044b4       ??_C@_0BH@EOGINPGP@sprites?1iplayerred?4spr?$AA@ 100644b4     hud_spectator.obj
 0002:000044cc       ??_C@_0BI@DCNJECMO@sprites?1iplayerdead?4spr?$AA@ 100644cc     hud_spectator.obj
 0002:000044e4       ??_C@_0BB@HJGECOFP@sprites?1tile?4spr?$AA@ 100644e4     hud_spectator.obj
 0002:000044f8       ??_C@_0BG@LKPONKLB@sprites?1laserbeam?4spr?$AA@ 100644f8     hud_spectator.obj
 0002:00004510       ??_C@_0BD@LOJIPFHH@sprites?1camera?4spr?$AA@ 10064510     hud_spectator.obj
 0002:00004524       ??_C@_0BH@IKIHGJOH@sprites?1crosshairs?4spr?$AA@ 10064524     hud_spectator.obj
 0002:0000453c       ??_C@_0M@LGHPNHI@HUD_MESSAGE?$AA@ 1006453c     hud_spectator.obj
 0002:00004548       ??_C@_0DF@LIDEKMMD@CHudSpectator?3?3DirectorMessage?3?5@ 10064548     hud_spectator.obj
 0002:00004580       ??_C@_0O@GNCHHKOI@follownext?5?$CFi?$AA@ 10064580     hud_spectator.obj
 0002:00004590       ??_C@_0BG@MNJFKGFL@No?5observer?5targets?4?6?$AA@ 10064590     hud_spectator.obj
 0002:000045a8       ??_C@_0BJ@COIHBDFG@Invalid?5spectator?5mode?4?6?$AA@ 100645a8     hud_spectator.obj
 0002:000045c4       ??_C@_0N@BGPNICFE@?$CDSpec_Mode?$CFd?$AA@ 100645c4     hud_spectator.obj
 0002:000045d4       ??_C@_04CDPLFOEF@?$CFc?$CFs?$AA@ 100645d4     hud_spectator.obj
 0002:000045dc       ??_C@_0BB@JNJCKILF@overviews?1?$CFs?4txt?$AA@ 100645dc     hud_spectator.obj
 0002:000045f0       ??_C@_0DP@DDEJNCCD@Couldn?8t?5open?5file?5?$CFs?4?5Using?5def@ 100645f0     hud_spectator.obj
 0002:00004630       ??_C@_06FJKEMHGD@global?$AA@ 10064630     hud_spectator.obj
 0002:00004638       ??_C@_0CP@MEBBDFEG@Error?5parsing?5overview?5file?5?$CFs?4?5@ 10064638     hud_spectator.obj
 0002:00004668       ??_C@_07JGGHALPO@rotated?$AA@ 10064668     hud_spectator.obj
 0002:00004670       ??_C@_05DLABHDKJ@inset?$AA@ 10064670     hud_spectator.obj
 0002:00004678       ??_C@_0CN@KGPODENE@Error?5parsing?5overview?5file?5?$CFs?4?5@ 10064678     hud_spectator.obj
 0002:000046a8       ??_C@_05NAHLDCCJ@layer?$AA@ 100646a8     hud_spectator.obj
 0002:000046b0       ??_C@_0DF@LJNEDBEA@Error?5parsing?5overview?5file?5?$CFs?4?5@ 100646b0     hud_spectator.obj
 0002:000046e8       ??_C@_05NGOMGBBD@image?$AA@ 100646e8     hud_spectator.obj
 0002:000046f0       ??_C@_06LNLHEAAG@height?$AA@ 100646f0     hud_spectator.obj
 0002:000046f8       ??_C@_0N@CHHJEJMP@ignoremsg?5?$CFi?$AA@ 100646f8     hud_spectator.obj
 0002:00004708       __real@3faaaaab            10064708     hud_spectator.obj
 0002:0000470c       __real@40800000            1006470c     hud_spectator.obj
 0002:00004710       __real@44200000            10064710     hud_spectator.obj
 0002:00004714       __real@45800000            10064714     hud_spectator.obj
 0002:00004718       __real@46000000            10064718     hud_spectator.obj
 0002:0000471c       ??_C@_0M@PFFOCDDE@cam_command?$AA@ 1006471c     in_camera.obj
 0002:00004728       ??_C@_0M@MIHOGJKP@?$CLcampitchup?$AA@ 10064728     in_camera.obj
 0002:00004734       ??_C@_0M@CHEDMMEP@?9campitchup?$AA@ 10064734     in_camera.obj
 0002:00004740       ??_C@_0O@OCMLHAKD@?$CLcampitchdown?$AA@ 10064740     in_camera.obj
 0002:00004750       ??_C@_0O@BKAJDLBF@?9campitchdown?$AA@ 10064750     in_camera.obj
 0002:00004760       ??_C@_0M@GIHMNJGM@?$CLcamyawleft?$AA@ 10064760     in_camera.obj
 0002:0000476c       ??_C@_0M@IHEBHMIM@?9camyawleft?$AA@ 1006476c     in_camera.obj
 0002:00004778       ??_C@_0N@FOJDFOMD@?$CLcamyawright?$AA@ 10064778     in_camera.obj
 0002:00004788       ??_C@_0N@POHGIBBO@?9camyawright?$AA@ 10064788     in_camera.obj
 0002:00004798       ??_C@_06PACPPHLG@?$CLcamin?$AA@ 10064798     in_camera.obj
 0002:000047a0       ??_C@_06JDPPMCIM@?9camin?$AA@ 100647a0     in_camera.obj
 0002:000047a8       ??_C@_07FMLJJGPB@?$CLcamout?$AA@ 100647a8     in_camera.obj
 0002:000047b0       ??_C@_07JKNGJPHG@?9camout?$AA@ 100647b0     in_camera.obj
 0002:000047b8       ??_C@_0M@BIELKGOF@thirdperson?$AA@ 100647b8     in_camera.obj
 0002:000047c4       ??_C@_0M@INGIFFDB@firstperson?$AA@ 100647c4     in_camera.obj
 0002:000047d0       ??_C@_0O@LLENFNHC@?$CLcammousemove?$AA@ 100647d0     in_camera.obj
 0002:000047e0       ??_C@_0O@EDIPBGME@?9cammousemove?$AA@ 100647e0     in_camera.obj
 0002:000047f0       ??_C@_0N@OABLOPOE@?$CLcamdistance?$AA@ 100647f0     in_camera.obj
 0002:00004800       ??_C@_0N@EAPODADJ@?9camdistance?$AA@ 10064800     in_camera.obj
 0002:00004810       ??_C@_06PDBNMNJI@snapto?$AA@ 10064810     in_camera.obj
 0002:00004818       ??_C@_0L@NDMPLLOE@cam_snapto?$AA@ 10064818     in_camera.obj
 0002:00004824       ??_C@_0N@POMDDEAP@cam_idealyaw?$AA@ 10064824     in_camera.obj
 0002:00004834       ??_C@_0P@EEFDDHII@cam_idealpitch?$AA@ 10064834     in_camera.obj
 0002:00004844       ??_C@_02JLHCEMDI@64?$AA@   10064844     in_camera.obj
 0002:00004848       ??_C@_0O@IBNPLBFH@cam_idealdist?$AA@ 10064848     in_camera.obj
 0002:00004858       ??_C@_0M@OBJKFKGG@cam_contain?$AA@ 10064858     in_camera.obj
 0002:00004864       ??_C@_04IIFCHHKN@90?40?$AA@ 10064864     in_camera.obj
 0002:0000486c       ??_C@_0L@OHFDIAJF@c_maxpitch?$AA@ 1006486c     in_camera.obj
 0002:00004878       ??_C@_03MDAFIFFL@0?40?$AA@ 10064878     in_camera.obj
 0002:0000487c       ??_C@_0L@DALIDCNE@c_minpitch?$AA@ 1006487c     in_camera.obj
 0002:00004888       ??_C@_05ENPKBNII@135?40?$AA@ 10064888     in_camera.obj
 0002:00004890       ??_C@_08CPCJEMLO@c_maxyaw?$AA@ 10064890     in_camera.obj
 0002:0000489c       ??_C@_06MPDODLAJ@?9135?40?$AA@ 1006489c     in_camera.obj
 0002:000048a4       ??_C@_08CMNKKMPB@c_minyaw?$AA@ 100648a4     in_camera.obj
 0002:000048b0       ??_C@_05LLBAOFME@200?40?$AA@ 100648b0     in_camera.obj
 0002:000048b8       ??_C@_0O@JMJDPFPD@c_maxdistance?$AA@ 100648b8     in_camera.obj
 0002:000048c8       ??_C@_04MCOCGPAM@30?40?$AA@ 100648c8     in_camera.obj
 0002:000048d0       ??_C@_0O@MOAOFBJ@c_mindistance?$AA@ 100648d0     in_camera.obj
 0002:000048e0       __real@4004000000000000    100648e0     in_camera.obj
 0002:000048e8       __real@4076800000000000    100648e8     in_camera.obj
 0002:000048f0       __real@41f00000            100648f0     in_camera.obj
 0002:000048f4       __real@43340000            100648f4     in_camera.obj
 0002:000048f8       __real@43b40000            100648f8     in_camera.obj
 0002:00004900       __xmm@7fffffffffffffff7fffffffffffffff 10064900     in_camera.obj
 0002:00004910       ??_C@_08BFGGGCKN@in_graph?$AA@ 10064910     input.obj
 0002:0000491c       ??_C@_08LHKFKIJF@in_mlook?$AA@ 1006491c     input.obj
 0002:00004928       ??_C@_08KKKAJICN@in_jlook?$AA@ 10064928     input.obj
 0002:00004934       ??_C@_0CO@JIBCJLJF@Three?5keys?5down?5for?5a?5button?5?8?$CFc@ 10064934     input.obj
 0002:00004964       ??_C@_07CKGNAPCP@?$CLmoveup?$AA@ 10064964     input.obj
 0002:0000496c       ??_C@_07OMACAGKI@?9moveup?$AA@ 1006496c     input.obj
 0002:00004974       ??_C@_09HNJJMOJG@?$CLmovedown?$AA@ 10064974     input.obj
 0002:00004980       ??_C@_09HAIHLONB@?9movedown?$AA@ 10064980     input.obj
 0002:0000498c       ??_C@_05HEGFDNLE@?$CLleft?$AA@ 1006498c     input.obj
 0002:00004994       ??_C@_05KCDMNOKJ@?9left?$AA@ 10064994     input.obj
 0002:0000499c       ??_C@_06NGIHBNMB@?$CLright?$AA@ 1006499c     input.obj
 0002:000049a4       ??_C@_06LFFHCIPL@?9right?$AA@ 100649a4     input.obj
 0002:000049ac       ??_C@_08KKEOHAPB@?$CLforward?$AA@ 100649ac     input.obj
 0002:000049b8       ??_C@_08NJFEAJHL@?9forward?$AA@ 100649b8     input.obj
 0002:000049c4       ??_C@_05IPKGNIPH@?$CLback?$AA@ 100649c4     input.obj
 0002:000049cc       ??_C@_05FJPPDLOK@?9back?$AA@ 100649cc     input.obj
 0002:000049d4       ??_C@_07BDFIGFL@?$CLlookup?$AA@ 100649d4     input.obj
 0002:000049dc       ??_C@_07MHFKIPNM@?9lookup?$AA@ 100649dc     input.obj
 0002:000049e4       ??_C@_09KCKOGCLI@?$CLlookdown?$AA@ 100649e4     input.obj
 0002:000049f0       ??_C@_09KPLABCPP@?9lookdown?$AA@ 100649f0     input.obj
 0002:000049fc       ??_C@_07CHKKNAEO@?$CLstrafe?$AA@ 100649fc     input.obj
 0002:00004a04       ??_C@_07OBMFNJMJ@?9strafe?$AA@ 10064a04     input.obj
 0002:00004a0c       ??_C@_09IPJNFGKP@?$CLmoveleft?$AA@ 10064a0c     input.obj
 0002:00004a18       ??_C@_09ICIDCGOI@?9moveleft?$AA@ 10064a18     input.obj
 0002:00004a24       ??_C@_0L@FMBJCMEG@?$CLmoveright?$AA@ 10064a24     input.obj
 0002:00004a30       ??_C@_0L@LEKMOGAF@?9moveright?$AA@ 10064a30     input.obj
 0002:00004a3c       ??_C@_06JIDIHCBO@?$CLspeed?$AA@ 10064a3c     input.obj
 0002:00004a44       ??_C@_06PLOIEHCE@?9speed?$AA@ 10064a44     input.obj
 0002:00004a4c       ??_C@_07MAODEHGM@?$CLattack?$AA@ 10064a4c     input.obj
 0002:00004a54       ??_C@_07GIMEOOL@?9attack?$AA@ 10064a54     input.obj
 0002:00004a5c       ??_C@_08KJLEJKEF@?$CLattack2?$AA@ 10064a5c     input.obj
 0002:00004a68       ??_C@_08NKKOODMP@?9attack2?$AA@ 10064a68     input.obj
 0002:00004a74       ??_C@_04JNBAAPLC@?$CLuse?$AA@ 10064a74     input.obj
 0002:00004a7c       ??_C@_04BCFAPKBC@?9use?$AA@ 10064a7c     input.obj
 0002:00004a84       ??_C@_05MDAFLFGO@?$CLjump?$AA@ 10064a84     input.obj
 0002:00004a8c       ??_C@_05BFFMFGHD@?9jump?$AA@ 10064a8c     input.obj
 0002:00004a94       ??_C@_07LKMFNFAN@impulse?$AA@ 10064a94     input.obj
 0002:00004a9c       ??_C@_06DHBPPBBG@?$CLklook?$AA@ 10064a9c     input.obj
 0002:00004aa4       ??_C@_06FEMPMECM@?9klook?$AA@ 10064aa4     input.obj
 0002:00004aac       ??_C@_06OBEGBCAL@?$CLmlook?$AA@ 10064aac     input.obj
 0002:00004ab4       ??_C@_06ICJGCHDB@?9mlook?$AA@ 10064ab4     input.obj
 0002:00004abc       ??_C@_06PMEDCCLD@?$CLjlook?$AA@ 10064abc     input.obj
 0002:00004ac4       ??_C@_06JPJDBHIJ@?9jlook?$AA@ 10064ac4     input.obj
 0002:00004acc       ??_C@_05NPJNONJP@?$CLduck?$AA@ 10064acc     input.obj
 0002:00004ad4       ??_C@_05JMEAOIC@?9duck?$AA@ 10064ad4     input.obj
 0002:00004adc       ??_C@_07GKAMHDNA@?$CLreload?$AA@ 10064adc     input.obj
 0002:00004ae4       ??_C@_07KMGDHKFH@?9reload?$AA@ 10064ae4     input.obj
 0002:00004aec       ??_C@_05GDFBHKNB@?$CLalt1?$AA@ 10064aec     input.obj
 0002:00004af4       ??_C@_05LFAIJJMM@?9alt1?$AA@ 10064af4     input.obj
 0002:00004afc       ??_C@_06NALHPLJM@?$CLscore?$AA@ 10064afc     input.obj
 0002:00004b04       ??_C@_06LDGHMOKG@?9score?$AA@ 10064b04     input.obj
 0002:00004b0c       ??_C@_0M@KOIMPMNL@?$CLshowscores?$AA@ 10064b0c     input.obj
 0002:00004b18       ??_C@_0M@EBLBFJDL@?9showscores?$AA@ 10064b18     input.obj
 0002:00004b24       ??_C@_06EDIFNIDD@?$CLgraph?$AA@ 10064b24     input.obj
 0002:00004b2c       ??_C@_06CAFFONAJ@?9graph?$AA@ 10064b2c     input.obj
 0002:00004b34       ??_C@_06KKODEEFD@?$CLbreak?$AA@ 10064b34     input.obj
 0002:00004b3c       ??_C@_06MJDDHBGJ@?9break?$AA@ 10064b3c     input.obj
 0002:00004b44       ??_C@_0L@PJGKGJFB@lookstrafe?$AA@ 10064b44     input.obj
 0002:00004b50       ??_C@_0L@JLGKDAJC@lookspring?$AA@ 10064b50     input.obj
 0002:00004b5c       ??_C@_04GIPAFBHP@0?467?$AA@ 10064b5c     input.obj
 0002:00004b64       ??_C@_0BB@FCKNHEAF@cl_anglespeedkey?$AA@ 10064b64     input.obj
 0002:00004b78       ??_C@_03HOHGKJJN@210?$AA@  10064b78     input.obj
 0002:00004b7c       ??_C@_0M@JHKIFKKF@cl_yawspeed?$AA@ 10064b7c     input.obj
 0002:00004b88       ??_C@_03BEHODIB@225?$AA@   10064b88     input.obj
 0002:00004b8c       ??_C@_0O@KLONPPKB@cl_pitchspeed?$AA@ 10064b8c     input.obj
 0002:00004b9c       ??_C@_03MEIMHAKB@320?$AA@  10064b9c     input.obj
 0002:00004ba0       ??_C@_0L@ELHKEFF@cl_upspeed?$AA@ 10064ba0     input.obj
 0002:00004bac       ??_C@_03FKNPJMHG@400?$AA@  10064bac     input.obj
 0002:00004bb0       ??_C@_0BA@NOBHMJJP@cl_forwardspeed?$AA@ 10064bb0     input.obj
 0002:00004bc0       ??_C@_0N@PLGCMGJC@cl_backspeed?$AA@ 10064bc0     input.obj
 0002:00004bd0       ??_C@_0N@NCCMPMBI@cl_sidespeed?$AA@ 10064bd0     input.obj
 0002:00004be0       ??_C@_03OICINGJI@0?43?$AA@ 10064be0     input.obj
 0002:00004be4       ??_C@_0BA@JDGEPJLO@cl_movespeedkey?$AA@ 10064be4     input.obj
 0002:00004bf4       ??_C@_02CEECBPHP@89?$AA@   10064bf4     input.obj
 0002:00004bf8       ??_C@_0L@EELGACDO@cl_pitchup?$AA@ 10064bf8     input.obj
 0002:00004c04       ??_C@_0N@FAPBPPOA@cl_pitchdown?$AA@ 10064c04     input.obj
 0002:00004c14       ??_C@_04FOELEPEP@0?405?$AA@ 10064c14     input.obj
 0002:00004c1c       ??_C@_0O@MBIEBEEJ@cl_vsmoothing?$AA@ 10064c1c     input.obj
 0002:00004c2c       ??_C@_05OACFFLK@0?4022?$AA@ 10064c2c     input.obj
 0002:00004c34       ??_C@_07JIEGLHEC@m_pitch?$AA@ 10064c34     input.obj
 0002:00004c3c       ??_C@_05HPEILLPC@m_yaw?$AA@ 10064c3c     input.obj
 0002:00004c44       ??_C@_09CGJLBBDA@m_forward?$AA@ 10064c44     input.obj
 0002:00004c50       ??_C@_03LNMAPFD@0?48?$AA@  10064c50     input.obj
 0002:00004c54       ??_C@_06NKCCGJAO@m_side?$AA@ 10064c54     input.obj
 0002:00004c5c       __real@41800000            10064c5c     input.obj
 0002:00004c60       __real@42200000            10064c60     input.obj
 0002:00004c64       __real@44000000            10064c64     input.obj
 0002:00004c68       __real@4479c000            10064c68     input.obj
 0002:00004c6c       __real@44800000            10064c6c     input.obj
 0002:00004c70       __real@4e6e6b28            10064c70     input.obj
 0002:00004c74       __real@c2480000            10064c74     input.obj
 0002:00004c78       ??_C@_08GPADOFHN@?9nomouse?$AA@ 10064c78     inputw32.obj
 0002:00004c84       ??_C@_0N@BIOPFBFN@?9noforcemspd?$AA@ 10064c84     inputw32.obj
 0002:00004c94       ??_C@_0P@GAKEABIP@?9noforcemaccel?$AA@ 10064c94     inputw32.obj
 0002:00004ca4       ??_C@_0P@PJACOMAN@?9noforcemparms?$AA@ 10064ca4     inputw32.obj
 0002:00004cb4       ??_C@_06MIIKPKO@?9nojoy?$AA@ 10064cb4     inputw32.obj
 0002:00004cbc       ??_C@_0CL@KIPOHMFD@joystick?5not?5found?5?9?9?5driver?5not@ 10064cbc     inputw32.obj
 0002:00004ce8       ??_C@_0DA@NMIAJCGD@joystick?5not?5found?5?9?9?5no?5valid?5j@ 10064ce8     inputw32.obj
 0002:00004d18       ??_C@_0DL@MIDHCADG@joystick?5not?5found?5?9?9?5invalid?5jo@ 10064d18     inputw32.obj
 0002:00004d54       ??_C@_0BB@NOIPDHAF@joystick?5found?6?6?$AA@ 10064d54     inputw32.obj
 0002:00004d68       ??_C@_08KLNCIBHI@joystick?$AA@ 10064d68     inputw32.obj
 0002:00004d74       ??_C@_0BB@EEABALLD@?6?$CFs?5configured?6?6?$AA@ 10064d74     inputw32.obj
 0002:00004d88       ??_C@_08BEMLPELN@m_filter?$AA@ 10064d88     inputw32.obj
 0002:00004d94       ??_C@_01EKENIIDA@3?$AA@    10064d94     inputw32.obj
 0002:00004d98       ??_C@_0M@JFLMCFNC@sensitivity?$AA@ 10064d98     inputw32.obj
 0002:00004da4       ??_C@_07HHDIGCDL@joyname?$AA@ 10064da4     inputw32.obj
 0002:00004dac       ??_C@_0M@JMIKEFLE@joyadvanced?$AA@ 10064dac     inputw32.obj
 0002:00004db8       ??_C@_0M@OCELEFGN@joyadvaxisx?$AA@ 10064db8     inputw32.obj
 0002:00004dc4       ??_C@_0M@PLFAHECM@joyadvaxisy?$AA@ 10064dc4     inputw32.obj
 0002:00004dd0       ??_C@_0M@NAHNCHOP@joyadvaxisz?$AA@ 10064dd0     inputw32.obj
 0002:00004ddc       ??_C@_0M@BIKEKNOH@joyadvaxisr?$AA@ 10064ddc     inputw32.obj
 0002:00004de8       ??_C@_0M@FHOFDLCA@joyadvaxisu?$AA@ 10064de8     inputw32.obj
 0002:00004df4       ??_C@_0M@HMMIGIOD@joyadvaxisv?$AA@ 10064df4     inputw32.obj
 0002:00004e00       ??_C@_04FPIJCFHI@0?415?$AA@ 10064e00     inputw32.obj
 0002:00004e08       ??_C@_0BE@FHPOKP@joyforwardthreshold?$AA@ 10064e08     inputw32.obj
 0002:00004e1c       ??_C@_0BB@INOMEBOO@joysidethreshold?$AA@ 10064e1c     inputw32.obj
 0002:00004e30       ??_C@_0BC@BJJOFKID@joypitchthreshold?$AA@ 10064e30     inputw32.obj
 0002:00004e44       ??_C@_0BA@PNLJJDKB@joyyawthreshold?$AA@ 10064e44     inputw32.obj
 0002:00004e54       ??_C@_04KFIOCBIK@?91?40?$AA@ 10064e54     inputw32.obj
 0002:00004e5c       ??_C@_0BG@MALNOMPG@joyforwardsensitivity?$AA@ 10064e5c     inputw32.obj
 0002:00004e74       ??_C@_0BD@HCABLBBE@joysidesensitivity?$AA@ 10064e74     inputw32.obj
 0002:00004e88       ??_C@_03HLLJOCDO@1?40?$AA@ 10064e88     inputw32.obj
 0002:00004e8c       ??_C@_0BE@CIDHPJGA@joypitchsensitivity?$AA@ 10064e8c     inputw32.obj
 0002:00004ea0       ??_C@_0BC@GNDNCBHD@joyyawsensitivity?$AA@ 10064ea0     inputw32.obj
 0002:00004eb4       ??_C@_0L@DOAMHEKE@joywwhack1?$AA@ 10064eb4     inputw32.obj
 0002:00004ec0       ??_C@_0L@BFCBCHGH@joywwhack2?$AA@ 10064ec0     inputw32.obj
 0002:00004ecc       ??_C@_0BB@JFMGBHMD@force_centerview?$AA@ 10064ecc     inputw32.obj
 0002:00004ee0       ??_C@_0BC@HGINHNFJ@joyadvancedupdate?$AA@ 10064ee0     inputw32.obj
 0002:00004ef8       __real@3f00000000000000    10064ef8     inputw32.obj
 0002:00004f00       __real@3ff4cccccccccccd    10064f00     inputw32.obj
 0002:00004f08       __real@4066800000000000    10064f08     inputw32.obj
 0002:00004f10       __real@4072c00000000000    10064f10     inputw32.obj
 0002:00004f18       __real@4089000000000000    10064f18     inputw32.obj
 0002:00004f20       __real@40cb580000000000    10064f20     inputw32.obj
 0002:00004f28       __real@40e0000000000000    10064f28     inputw32.obj
 0002:00004f30       __real@465ac000            10064f30     inputw32.obj
 0002:00004f34       ??_C@_08IGGENMMJ@ShowMenu?$AA@ 10064f34     menu.obj
 0002:00004f40       ??_C@_0P@GNDNMPMB@menuselect?5?$CFd?6?$AA@ 10064f40     menu.obj
 0002:00004f50       ??_C@_06IFGIOHDE@Custom?$AA@ 10064f50     message.obj
 0002:00004f58       ??_C@_07JNEKKACO@HudText?$AA@ 10064f58     message.obj
 0002:00004f60       ??_C@_09HEMANCP@GameTitle?$AA@ 10064f60     message.obj
 0002:00004f6c       ??_C@_0L@KBJOOMBK@title_half?$AA@ 10064f6c     message.obj
 0002:00004f78       ??_C@_0L@LHBALECA@title_life?$AA@ 10064f78     message.obj
 0002:00004f84       ??_C@_09HPEMDGDO@GAMETITLE?$AA@ 10064f84     message.obj
 0002:00004f90       __real@3f1a36e2eb1c432d    10064f90     message.obj
 0002:00004f98       __real@bf800000            10064f98     message.obj
 0002:00004fa0       __real@3f76800000000000    10064fa0     parsemsg.obj
 0002:00004fa8       __real@3fc0000000000000    10064fa8     parsemsg.obj
 0002:00004fb0       __real@3ff6800000000000    10064fb0     parsemsg.obj
 0002:00004fb8       __real@43800000            10064fb8     pm_debug.obj
 0002:00004fc0       __real@3f91df46a2529d39    10064fc0     pm_math.obj
 0002:00004fc8       __real@400921fb54442d18    10064fc8     pm_math.obj
 0002:00004fd0       __real@4066c16c16c16c17    10064fd0     pm_math.obj
 0002:00004fd8       __real@43870000            10064fd8     pm_math.obj
 0002:00004fdc       __real@c3340000            10064fdc     pm_math.obj
 0002:00004fe0       ??_C@_0BE@CMDBNMCL@sound?1materials?4txt?$AA@ 10064fe0     pm_shared.obj
 0002:00004ff4       ??_C@_0BE@PDHCPK@player?1pl_step1?4wav?$AA@ 10064ff4     pm_shared.obj
 0002:00005008       ??_C@_0BE@ENDLNDPB@player?1pl_step3?4wav?$AA@ 10065008     pm_shared.obj
 0002:0000501c       ??_C@_0BE@IGGHAAFE@player?1pl_step2?4wav?$AA@ 1006501c     pm_shared.obj
 0002:00005030       ??_C@_0BE@FADOODEJ@player?1pl_step4?4wav?$AA@ 10065030     pm_shared.obj
 0002:00005044       ??_C@_0BF@PCNBHMKJ@player?1pl_metal1?4wav?$AA@ 10065044     pm_shared.obj
 0002:0000505c       ??_C@_0BF@LPBJNNKC@player?1pl_metal3?4wav?$AA@ 1006505c     pm_shared.obj
 0002:00005074       ??_C@_0BF@HEEFAOAH@player?1pl_metal2?4wav?$AA@ 10065074     pm_shared.obj
 0002:0000508c       ??_C@_0BF@KCBMONBK@player?1pl_metal4?4wav?$AA@ 1006508c     pm_shared.obj
 0002:000050a4       ??_C@_0BE@BKDPFBGM@player?1pl_dirt1?4wav?$AA@ 100650a4     pm_shared.obj
 0002:000050b8       ??_C@_0BE@FHPHPAGH@player?1pl_dirt3?4wav?$AA@ 100650b8     pm_shared.obj
 0002:000050cc       ??_C@_0BE@JMKLCDMC@player?1pl_dirt2?4wav?$AA@ 100650cc     pm_shared.obj
 0002:000050e0       ??_C@_0BE@EKPCMANP@player?1pl_dirt4?4wav?$AA@ 100650e0     pm_shared.obj
 0002:000050f4       ??_C@_0BE@OANKNBLM@player?1pl_duct1?4wav?$AA@ 100650f4     pm_shared.obj
 0002:00005108       ??_C@_0BE@KNBCHALH@player?1pl_duct3?4wav?$AA@ 10065108     pm_shared.obj
 0002:0000511c       ??_C@_0BE@GGEOKDBC@player?1pl_duct2?4wav?$AA@ 1006511c     pm_shared.obj
 0002:00005130       ??_C@_0BE@LABHEAAP@player?1pl_duct4?4wav?$AA@ 10065130     pm_shared.obj
 0002:00005144       ??_C@_0BF@JCJIMDBO@player?1pl_grate1?4wav?$AA@ 10065144     pm_shared.obj
 0002:0000515c       ??_C@_0BF@NPFAGCBF@player?1pl_grate3?4wav?$AA@ 1006515c     pm_shared.obj
 0002:00005174       ??_C@_0BF@BEAMLBLA@player?1pl_grate2?4wav?$AA@ 10065174     pm_shared.obj
 0002:0000518c       ??_C@_0BF@MCFFFCKN@player?1pl_grate4?4wav?$AA@ 1006518c     pm_shared.obj
 0002:000051a4       ??_C@_0BE@JFAJGEOH@player?1pl_tile1?4wav?$AA@ 100651a4     pm_shared.obj
 0002:000051b8       ??_C@_0BE@NIMBMFOM@player?1pl_tile3?4wav?$AA@ 100651b8     pm_shared.obj
 0002:000051cc       ??_C@_0BE@BDJNBGEJ@player?1pl_tile2?4wav?$AA@ 100651cc     pm_shared.obj
 0002:000051e0       ??_C@_0BE@MFMEPFFE@player?1pl_tile4?4wav?$AA@ 100651e0     pm_shared.obj
 0002:000051f4       ??_C@_0BE@OJICGPB@player?1pl_tile5?4wav?$AA@ 100651f4     pm_shared.obj
 0002:00005208       ??_C@_0BF@BGAAHGEH@player?1pl_slosh1?4wav?$AA@ 10065208     pm_shared.obj
 0002:00005220       ??_C@_0BF@FLMINHEM@player?1pl_slosh3?4wav?$AA@ 10065220     pm_shared.obj
 0002:00005238       ??_C@_0BF@JAJEAEOJ@player?1pl_slosh2?4wav?$AA@ 10065238     pm_shared.obj
 0002:00005250       ??_C@_0BF@EGMNOHPE@player?1pl_slosh4?4wav?$AA@ 10065250     pm_shared.obj
 0002:00005268       ??_C@_0BE@BGADGGEJ@player?1pl_wade1?4wav?$AA@ 10065268     pm_shared.obj
 0002:0000527c       ??_C@_0BE@JAJHBEOH@player?1pl_wade2?4wav?$AA@ 1006527c     pm_shared.obj
 0002:00005290       ??_C@_0BE@FLMLMHEC@player?1pl_wade3?4wav?$AA@ 10065290     pm_shared.obj
 0002:000052a4       ??_C@_0BE@EGMOPHPK@player?1pl_wade4?4wav?$AA@ 100652a4     pm_shared.obj
 0002:000052b8       ??_C@_0BG@FBOMDLIH@player?1pl_ladder1?4wav?$AA@ 100652b8     pm_shared.obj
 0002:000052d0       ??_C@_0BG@BMCEJKIM@player?1pl_ladder3?4wav?$AA@ 100652d0     pm_shared.obj
 0002:000052e8       ??_C@_0BG@NHHIEJCJ@player?1pl_ladder2?4wav?$AA@ 100652e8     pm_shared.obj
 0002:00005300       ??_C@_0BG@BCBKKDE@player?1pl_ladder4?4wav?$AA@ 10065300     pm_shared.obj
 0002:00005318       ??_C@_0CB@CNILIGKA@Too?5many?5entities?5were?5touched?$CB?6@ 10065318     pm_shared.obj
 0002:0000533c       ??_C@_0BL@ODOJHMIN@PM?5?5Got?5a?5NaN?5velocity?5?$CFi?6?$AA@ 1006533c     pm_shared.obj
 0002:00005358       ??_C@_0BM@IKDFNEMI@PM?5?5Got?5a?5NaN?5origin?5on?5?$CFi?6?$AA@ 10065358     pm_shared.obj
 0002:00005374       ??_C@_0CD@BDBMHNGO@PM?5?5Got?5a?5velocity?5too?5high?5on?5?$CF@ 10065374     pm_shared.obj
 0002:00005398       ??_C@_0CC@OFBNMFAF@PM?5?5Got?5a?5velocity?5too?5low?5on?5?$CFi@ 10065398     pm_shared.obj
 0002:000053bc       ??_C@_03DIGMJINO@tfc?$AA@  100653bc     pm_shared.obj
 0002:000053c0       ??_C@_03HJOOJOPI@slj?$AA@  100653c0     pm_shared.obj
 0002:000053c4       ??_C@_0BI@PLJFMNJG@player?1pl_fallpain3?4wav?$AA@ 100653c4     pm_shared.obj
 0002:000053dc       ??_C@_0DC@MKOCNFCM@Bogus?5pmove?5player?5movetype?5?$CFi?5o@ 100653dc     pm_shared.obj
 0002:00005410       __real@3dcccccd            10065410     pm_shared.obj
 0002:00005414       __real@3e000000            10065414     pm_shared.obj
 0002:00005418       __real@3f8a9fbe76c8b439    10065418     pm_shared.obj
 0002:00005420       __real@3fa999999999999a    10065420     pm_shared.obj
 0002:00005428       __real@3fb99999a0000000    10065428     pm_shared.obj
 0002:00005430       __real@3fd54fdf3b645a1d    10065430     pm_shared.obj
 0002:00005438       __real@3fd9999a            10065438     pm_shared.obj
 0002:00005440       __real@3fe3333333333333    10065440     pm_shared.obj
 0002:00005448       __real@3fe4cccccccccccd    10065448     pm_shared.obj
 0002:00005450       __real@3fe999999999999a    10065450     pm_shared.obj
 0002:00005458       __real@3ff8000000000000    10065458     pm_shared.obj
 0002:00005460       __real@3ff999999999999a    10065460     pm_shared.obj
 0002:00005468       __real@4049000000000000    10065468     pm_shared.obj
 0002:00005470       __real@40f1940000000000    10065470     pm_shared.obj
 0002:00005478       __real@40f5e00000000000    10065478     pm_shared.obj
 0002:00005480       __real@41900000            10065480     pm_shared.obj
 0002:00005484       __real@41e00000            10065484     pm_shared.obj
 0002:00005488       __real@42080000            10065488     pm_shared.obj
 0002:0000548c       __real@42700000            1006548c     pm_shared.obj
 0002:00005490       __real@42800000            10065490     pm_shared.obj
 0002:00005494       __real@42900000            10065494     pm_shared.obj
 0002:00005498       __real@42f00000            10065498     pm_shared.obj
 0002:0000549c       __real@43480000            1006549c     pm_shared.obj
 0002:000054a0       __real@43520000            100654a0     pm_shared.obj
 0002:000054a4       __real@435c0000            100654a4     pm_shared.obj
 0002:000054a8       __real@43910000            100654a8     pm_shared.obj
 0002:000054ac       __real@43af0000            100654ac     pm_shared.obj
 0002:000054b0       __real@44110000            100654b0     pm_shared.obj
 0002:000054b4       __real@44610000            100654b4     pm_shared.obj
 0002:000054b8       __real@461c4000            100654b8     pm_shared.obj
 0002:000054bc       __real@be000000            100654bc     pm_shared.obj
 0002:000054c0       __real@bfb999999999999a    100654c0     pm_shared.obj
 0002:000054c8       __real@c0c00000            100654c8     pm_shared.obj
 0002:000054cc       __real@c1000000            100654cc     pm_shared.obj
 0002:000054d0       ??_C@_07JAECCEML@SayText?$AA@ 100654d0     saytext.obj
 0002:000054d8       ??_C@_0M@GCMOLOHF@hud_saytext?$AA@ 100654d8     saytext.obj
 0002:000054e4       ??_C@_0BB@OPEEGHEM@hud_saytext_time?$AA@ 100654e4     saytext.obj
 0002:000054f8       ??_C@_0O@JPPDMPEP@misc?1talk?4wav?$AA@ 100654f8     saytext.obj
 0002:00005508       ??_C@_01CLKCMJKC@?5?$AA@   10065508     saytext.obj
 0002:0000550c       ??_C@_0L@BOOHPCFL@StatusIcon?$AA@ 1006550c     status_icons.obj
 0002:00005518       ??_C@_07JBPBHDIL@grenade?$AA@ 10065518     status_icons.obj
 0002:00005520       ??_C@_0BC@KNPBAIFK@weapons?1timer?4wav?$AA@ 10065520     status_icons.obj
 0002:00005534       ??_C@_0L@KLILBJK@StatusText?$AA@ 10065534     statusbar.obj
 0002:00005540       ??_C@_0M@GOKLPADN@StatusValue?$AA@ 10065540     statusbar.obj
 0002:0000554c       ??_C@_0N@NACMNLCC@hud_centerid?$AA@ 1006554c     statusbar.obj
 0002:0000555c       ??_C@_06LBCGBHOC@?$CK?$CK?$CK?$CK?$CK?$CK?$AA@ 1006555c     statusbar.obj
 0002:00005564       __real@42100000            10065564     statusbar.obj
 0002:00005568       __real@3eb0c6f7a0b5ed8d    10065568     studio_util.obj
 0002:00005570       __real@3ff921fb54442d18    10065570     studio_util.obj
 0002:0000557c       ??_7CStudioModelRenderer@@6B@ 1006557c     StudioModelRenderer.obj
 0002:000055e0       ??_C@_0M@NHHOJIBJ@cl_himodels?$AA@ 100655e0     StudioModelRenderer.obj
 0002:000055ec       ??_C@_09DNECJBKD@developer?$AA@ 100655ec     StudioModelRenderer.obj
 0002:000055f8       ??_C@_0P@JAKGJBEE@r_drawentities?$AA@ 100655f8     StudioModelRenderer.obj
 0002:00005608       ??_C@_0CG@IONOOFDE@OpenGG64?5By?5RezWaki?5v5?40?5?9?5NO?5SH@ 10065608     StudioModelRenderer.obj
 0002:00005630       ??_C@_0M@KOFNDIEA@loading?5?$CFs?6?$AA@ 10065630     StudioModelRenderer.obj
 0002:0000563c       ??_C@_0BB@MOIMGGEF@opengg_radarhack?$AA@ 1006563c     StudioModelRenderer.obj
 0002:00005650       ??_C@_08MEMKKOFD@amx_exec?$AA@ 10065650     StudioModelRenderer.obj
 0002:0000565c       ??_C@_0BG@GLEECIIP@ClientHacker?3?5Enabled?$AA@ 1006565c     StudioModelRenderer.obj
 0002:00005674       ??_C@_0CM@POIFBPHC@https?3?1?1github?4com?1rezwaki?$DPtab?$DNr@ 10065674     StudioModelRenderer.obj
 0002:000056a0       ??_C@_04PMOCAHAA@open?$AA@ 100656a0     StudioModelRenderer.obj
 0002:000056a8       ??_C@_08KIGFKCCA@echo?5?4?4?4?$AA@ 100656a8     StudioModelRenderer.obj
 0002:000056b4       ??_C@_0BC@BIMIOBMO@Your?5location?9X?3?5?$AA@ 100656b4     StudioModelRenderer.obj
 0002:000056c8       ??_C@_0BC@KAHEIGKL@Your?5location?9Y?3?5?$AA@ 100656c8     StudioModelRenderer.obj
 0002:000056dc       ??_C@_0BC@LCMBCJEF@Your?5location?9Z?3?5?$AA@ 100656dc     StudioModelRenderer.obj
 0002:000056f0       ??_C@_0M@ECGMMMKA@Bip01?5Spine?$AA@ 100656f0     StudioModelRenderer.obj
 0002:000056fc       ??_C@_0BM@JLFDLDEI@Too?5many?5attachments?5on?5?$CFs?6?$AA@ 100656fc     StudioModelRenderer.obj
 0002:00005718       __real@0000000000000000    10065718     StudioModelRenderer.obj
 0002:00005720       __real@3e00000000000000    10065720     StudioModelRenderer.obj
 0002:00005728       __real@3e800000            10065728     StudioModelRenderer.obj
 0002:00005730       __real@3f70000000000000    10065730     StudioModelRenderer.obj
 0002:00005738       __real@3f90000000000000    10065738     StudioModelRenderer.obj
 0002:00005740       __real@3fce1e1e1e1e1e1e    10065740     StudioModelRenderer.obj
 0002:00005748       __real@3ff004189374bc6a    10065748     StudioModelRenderer.obj
 0002:00005750       __real@4008000000000000    10065750     StudioModelRenderer.obj
 0002:00005758       __real@40a00000            10065758     StudioModelRenderer.obj
 0002:0000575c       __real@bc23d70a            1006575c     StudioModelRenderer.obj
 0002:00005760       __real@bf847ae147ae147b    10065760     StudioModelRenderer.obj
 0002:00005768       __real@c2f00000            10065768     StudioModelRenderer.obj
 0002:0000576c       ??_C@_07GMGJNMMC@TextMsg?$AA@ 1006576c     text_message.obj
 0002:00005774       ??_C@_05GFNCIBPC@Train?$AA@ 10065774     train.obj
 0002:0000577c       ??_C@_0BF@NIILEJAO@sprites?1?$CFd_train?4spr?$AA@ 1006577c     train.obj
 0002:00005798       ??_7CDefaultInputSignal@vgui@@6B@ 10065798     vgui_checkbutton2.obj
 0002:000057c8       ??_7CMenuHandler_StringCommand@@6B@ 100657c8     vgui_ClassMenu.obj
 0002:000057d0       ??_7CMenuHandler_StringCommandClassSelect@@6B@ 100657d0     vgui_ClassMenu.obj
 0002:000057d8       ??_7CMenuHandler_TextWindow@@6B@ 100657d8     vgui_ClassMenu.obj
 0002:000057e0       ??_7CHandler_MenuButtonOver@@6B@ 100657e0     vgui_ClassMenu.obj
 0002:00005814       ??_7ClassButton@@6B@       10065814     vgui_ClassMenu.obj
 0002:00005a84       ??_7CTransparentPanel@@6B@ 10065a84     vgui_ClassMenu.obj
 0002:00005c84       ??_7CClassMenuPanel@@6B@   10065c84     vgui_ClassMenu.obj
 0002:00005e9c       ??_C@_0L@DICIJODC@Title?5Font?$AA@ 10065e9c     vgui_ClassMenu.obj
 0002:00005ea8       ??_C@_0O@LAHMHNHE@Briefing?5Text?$AA@ 10065ea8     vgui_ClassMenu.obj
 0002:00005eb8       ??_C@_0BH@PDMOPGGD@?$CDTitle_SelectYourClass?$AA@ 10065eb8     vgui_ClassMenu.obj
 0002:00005ed0       ??_C@_09MHDMPGFO@?$CDTitle_?$CFs?$AA@ 10065ed0     vgui_ClassMenu.obj
 0002:00005edc       ??_C@_05CJJFJPLJ@?$CFsred?$AA@ 10065edc     vgui_ClassMenu.obj
 0002:00005ee4       ??_C@_06KKBCBABK@?$CFsblue?$AA@ 10065ee4     vgui_ClassMenu.obj
 0002:00005eec       ??_C@_0BL@HAKMLCJM@?$CDTitle_CurrentlyOnYourTeam?$AA@ 10065eec     vgui_ClassMenu.obj
 0002:00005f08       ??_C@_0BF@JPAOPDCP@classes?1short_?$CFs?4txt?$AA@ 10065f08     vgui_ClassMenu.obj
 0002:00005f20       ??_C@_0CB@IBOLKFJM@Class?5Description?5not?5available?4@ 10065f20     vgui_ClassMenu.obj
 0002:00005f44       ??_C@_0N@LGOCEOKL@?$CDMenu_Cancel?$AA@ 10065f44     vgui_ClassMenu.obj
 0002:00005f54       __real@41c00000            10065f54     vgui_ClassMenu.obj
 0002:00005f58       __real@42280000            10065f58     vgui_ClassMenu.obj
 0002:00005f5c       __real@42f80000            10065f5c     vgui_ClassMenu.obj
 0002:00005f60       __real@43160000            10065f60     vgui_ClassMenu.obj
 0002:00005f64       __real@43300000            10065f64     vgui_ClassMenu.obj
 0002:00005f68       __real@439c0000            10065f68     vgui_ClassMenu.obj
 0002:00005f6c       __real@43d40000            10065f6c     vgui_ClassMenu.obj
 0002:00005f74       ??_7TextEntry@vgui@@6BPanel@1@@ 10065f74     vgui_ConsolePanel.obj
 0002:000061d4       ??_7TextEntry@vgui@@6BInputSignal@1@@ 100661d4     vgui_ConsolePanel.obj
 0002:00006204       ??_7EtchedBorder@vgui@@6B@ 10066204     vgui_ConsolePanel.obj
 0002:00006274       ??_7LoweredBorder@vgui@@6B@ 10066274     vgui_ConsolePanel.obj
 0002:000062e0       ??_7DataInputStream@vgui@@6B01@@ 100662e0     vgui_ControlConfigPanel.obj
 0002:00006314       ??_7DataInputStream@vgui@@6BInputStream@1@@ 10066314     vgui_ControlConfigPanel.obj
 0002:00006330       ??_8DataInputStream@vgui@@7B@ 10066330     vgui_ControlConfigPanel.obj
 0002:00006338       ??_C@_07CLAOEGIP@arrowup?$AA@ 10066338     vgui_CustomObjects.obj
 0002:00006340       ??_C@_07OCKLLABH@arrowdn?$AA@ 10066340     vgui_CustomObjects.obj
 0002:00006348       ??_C@_07FMJFBLHE@arrowlt?$AA@ 10066348     vgui_CustomObjects.obj
 0002:00006350       ??_C@_07EKCNJFAO@arrowrt?$AA@ 10066350     vgui_CustomObjects.obj
 0002:0000635c       ??_7CImageLabel@@6B@       1006635c     vgui_CustomObjects.obj
 0002:00006594       ??_7CommandButton@@6B@     10066594     vgui_CustomObjects.obj
 0002:00006800       ??_7CHandler_CommandButtonHighlight@@6B@ 10066800     vgui_CustomObjects.obj
 0002:00006834       ??_7CTFScrollButton@@6B@   10066834     vgui_CustomObjects.obj
 0002:00006aa4       ??_7CTFSlider@@6B@         10066aa4     vgui_CustomObjects.obj
 0002:00006cec       ??_7CTFScrollPanel@@6B@    10066cec     vgui_CustomObjects.obj
 0002:00006f14       ??_C@_0BA@DDIPIFDF@gfx?1vgui?1?$CFs?4tga?$AA@ 10066f14     vgui_CustomObjects.obj
 0002:00006f24       ??_C@_06GNDPMCHI@?$CF?$CFd_?$CFs?$AA@ 10066f24     vgui_CustomObjects.obj
 0002:00006f2c       ??_C@_08CKPDEOGP@?5?5?$CFc?5?5?$CFs?$AA@ 10066f2c     vgui_CustomObjects.obj
 0002:00006f38       ??_C@_07PANNFAGO@?5?5?5?5?5?$CFs?$AA@ 10066f38     vgui_CustomObjects.obj
 0002:00006f40       ??_C@_05GFOLEBJA@?$CFs?1?$CFs?$AA@ 10066f40     vgui_CustomObjects.obj
 0002:00006f48       ??_C@_04BJJEOANI@kill?$AA@ 10066f48     vgui_CustomObjects.obj
 0002:00006f54       ??_7CGrid@vgui@@6B@        10066f54     vgui_grid.obj
 0002:00007158       ??_7BorderLayout@vgui@@6B@ 10067158     vgui_int.obj
 0002:00007164       ??_7SurfaceBase@vgui@@6B@  10067164     vgui_int.obj
 0002:000071f0       ??_7ListBoxSignal@CListBox@vgui@@6B@ 100671f0     vgui_listbox.obj
 0002:000071fc       ??_7CListBox@vgui@@6B@     100671fc     vgui_listbox.obj
 0002:00007400       ??_7MemoryInputStream@@6B@ 10067400     vgui_loadtga.obj
 0002:00007424       ??_7CMessageWindowPanel@@6B@ 10067424     vgui_MOTDWindow.obj
 0002:00007634       ??_C@_08DBHFKDBL@?$CDMenu_OK?$AA@ 10067634     vgui_MOTDWindow.obj
 0002:00007640       __real@42400000            10067640     vgui_MOTDWindow.obj
 0002:00007644       __real@42e00000            10067644     vgui_MOTDWindow.obj
 0002:00007648       __real@43200000            10067648     vgui_MOTDWindow.obj
 0002:00007650       ??_7CSchemeManager@@6B@    10067650     vgui_SchemeManager.obj
 0002:00007654       ??_C@_0M@IAKBDGPH@bitmapfonts?$AA@ 10067654     vgui_SchemeManager.obj
 0002:00007660       ??_C@_06PFFBCHML@?$CFs?$CFd?$CFs?$AA@ 10067660     vgui_SchemeManager.obj
 0002:00007668       ??_C@_0M@FMGEODLN@?$CFd?5?$CFd?5?$CFd?5?$CFd?$AA@ 10067668     vgui_SchemeManager.obj
 0002:00007674       ??_C@_0BA@NPHMGIH@_textscheme?4txt?$AA@ 10067674     vgui_SchemeManager.obj
 0002:00007684       ??_C@_0CB@GGEPFBNC@Unable?5to?5find?5?$CK_textscheme?4txt?6@ 10067684     vgui_SchemeManager.obj
 0002:000076a8       ??_C@_01NEMOKFLO@?$DN?$AA@ 100676a8     vgui_SchemeManager.obj
 0002:000076b0       ??_C@_0EP@LAOHCAIO@error?5parsing?5font?5scheme?5text?5f@ 100676b0     vgui_SchemeManager.obj
 0002:00007700       ??_C@_0FA@BKGKKHOG@error?5parsing?5font?5scheme?5text?5f@ 10067700     vgui_SchemeManager.obj
 0002:00007750       ??_C@_0L@LOMAMFDF@SchemeName?$AA@ 10067750     vgui_SchemeManager.obj
 0002:0000775c       ??_C@_05MPFIAJAP@Arial?$AA@ 1006775c     vgui_SchemeManager.obj
 0002:00007764       ??_C@_0DG@BMKAKEMK@font?5scheme?5text?5file?5MUST?5start@ 10067764     vgui_SchemeManager.obj
 0002:0000779c       ??_C@_08MKFDOKHL@FontName?$AA@ 1006779c     vgui_SchemeManager.obj
 0002:000077a8       ??_C@_08IOPOCEFC@FontSize?$AA@ 100677a8     vgui_SchemeManager.obj
 0002:000077b4       ??_C@_0L@LHNNLCCC@FontWeight?$AA@ 100677b4     vgui_SchemeManager.obj
 0002:000077c0       ??_C@_07IGOCNOBL@FgColor?$AA@ 100677c0     vgui_SchemeManager.obj
 0002:000077c8       ??_C@_07CKINAOB@BgColor?$AA@ 100677c8     vgui_SchemeManager.obj
 0002:000077d0       ??_C@_0N@NHNDLBOK@FgColorArmed?$AA@ 100677d0     vgui_SchemeManager.obj
 0002:000077e0       ??_C@_0N@BHGKNLHM@BgColorArmed?$AA@ 100677e0     vgui_SchemeManager.obj
 0002:000077f0       ??_C@_0BB@ENHEPPJD@FgColorMousedown?$AA@ 100677f0     vgui_SchemeManager.obj
 0002:00007804       ??_C@_0BB@DOHMNIFM@BgColorMousedown?$AA@ 10067804     vgui_SchemeManager.obj
 0002:00007818       ??_C@_0M@DGENNPFN@BorderColor?$AA@ 10067818     vgui_SchemeManager.obj
 0002:00007824       ??_C@_0P@MMBLOJE@Default?5Scheme?$AA@ 10067824     vgui_SchemeManager.obj
 0002:00007834       ??_C@_0BJ@FCNJMAOM@gfx?2vgui?2fonts?2?$CFd_?$CFs?4tga?$AA@ 10067834     vgui_SchemeManager.obj
 0002:00007850       ??_C@_0BJ@DNELGNNL@Missing?5bitmap?5font?3?5?$CFs?6?$AA@ 10067850     vgui_SchemeManager.obj
 0002:0000786c       ??_C@_06CIMOFCLF@?$CDSCORE?$AA@ 1006786c     vgui_ScorePanel.obj
 0002:00007874       ??_C@_07MMBGLEHF@?$CDDEATHS?$AA@ 10067874     vgui_ScorePanel.obj
 0002:0000787c       ??_C@_08FLKGJLAK@?$CDLATENCY?$AA@ 1006787c     vgui_ScorePanel.obj
 0002:00007888       ??_C@_06IFHMLIJM@?$CDVOICE?$AA@ 10067888     vgui_ScorePanel.obj
 0002:00007894       ??_7CMenuHandler_StringCommandWatch@@6B@ 10067894     vgui_ScorePanel.obj
 0002:00007898       ??_C@_0L@OAFOAAIE@jointeam?51?$AA@ 10067898     vgui_ScorePanel.obj
 0002:000078a4       ??_C@_0L@MLHDFDEH@jointeam?52?$AA@ 100678a4     vgui_ScorePanel.obj
 0002:000078b0       ??_C@_0L@NCGIGCAG@jointeam?53?$AA@ 100678b0     vgui_ScorePanel.obj
 0002:000078bc       ??_C@_0L@JNCJPEMB@jointeam?54?$AA@ 100678bc     vgui_ScorePanel.obj
 0002:000078cc       ??_7CTextImage2@@6B@       100678cc     vgui_ScorePanel.obj
 0002:00007934       ??_7CLabelHeader@@6B@      10067934     vgui_ScorePanel.obj
 0002:00007b6c       ??_7HitTestPanel@ScorePanel@@6B@ 10067b6c     vgui_ScorePanel.obj
 0002:00007d6c       ??_7ScorePanel@@6BPanel@vgui@@@ 10067d6c     vgui_ScorePanel.obj
 0002:00007f6c       ??_7ScorePanel@@6BCDefaultInputSignal@vgui@@@ 10067f6c     vgui_ScorePanel.obj
 0002:00007f98       ??_C@_0BG@LOFLGKJN@Scoreboard?5Title?5Text?$AA@ 10067f98     vgui_ScorePanel.obj
 0002:00007fb0       ??_C@_0BG@ONEEJNIJ@Scoreboard?5Small?5Text?$AA@ 10067fb0     vgui_ScorePanel.obj
 0002:00007fc8       ??_C@_01FJMABOPO@x?$AA@    10067fc8     vgui_ScorePanel.obj
 0002:00007fcc       ??_C@_09NAEAGLCJ@DDoSer?5on?$AA@ 10067fcc     vgui_ScorePanel.obj
 0002:00007fd8       ??_C@_0BH@JNKMJANN@opengg_momental_ddos?51?$AA@ 10067fd8     vgui_ScorePanel.obj
 0002:00007ff0       ??_C@_0L@HPNGEFJO@DDoSer?5off?$AA@ 10067ff0     vgui_ScorePanel.obj
 0002:00007ffc       ??_C@_0BH@IELHKBJM@opengg_momental_ddos?50?$AA@ 10067ffc     vgui_ScorePanel.obj
 0002:00008014       ??_C@_0N@KOLDIJJA@Lightning?5on?$AA@ 10068014     vgui_ScorePanel.obj
 0002:00008024       ??_C@_0BD@DEBLOHNF@opengg_lightning?51?$AA@ 10068024     vgui_ScorePanel.obj
 0002:00008038       ??_C@_0O@MNBFLNFE@Lightning?5off?$AA@ 10068038     vgui_ScorePanel.obj
 0002:00008048       ??_C@_0BD@CNAANGJE@opengg_lightning?50?$AA@ 10068048     vgui_ScorePanel.obj
 0002:0000805c       ??_C@_0BA@IKHKMEBC@Software?5ESP?5on?$AA@ 1006805c     vgui_ScorePanel.obj
 0002:0000806c       ??_C@_0N@FHDKAAPC@opengg_esp?51?$AA@ 1006806c     vgui_ScorePanel.obj
 0002:0000807c       ??_C@_0BB@MOIHJGBF@Software?5ESP?5off?$AA@ 1006807c     vgui_ScorePanel.obj
 0002:00008090       ??_C@_0N@EOCBDBLD@opengg_esp?50?$AA@ 10068090     vgui_ScorePanel.obj
 0002:000080a0       ??_C@_0BA@JJLPJPAJ@Author?8s?5GitHub?$AA@ 100680a0     vgui_ScorePanel.obj
 0002:000080b0       ??_C@_0BF@PBDEPLIF@opengg_visitgithub?51?$AA@ 100680b0     vgui_ScorePanel.obj
 0002:000080c8       ??_C@_0BF@OPKAMFNK@OpenGG64?5v5?45?5REMADE?$AA@ 100680c8     vgui_ScorePanel.obj
 0002:000080e0       ??_C@_0BA@DEDAPLEA@Scoreboard?5Text?$AA@ 100680e0     vgui_ScorePanel.obj
 0002:000080f0       ??_C@_0M@FDPPHCAA@?$CDSpectators?$AA@ 100680f0     vgui_ScorePanel.obj
 0002:000080fc       ??_C@_07FALHMAOB@?$CDPlayer?$AA@ 100680fc     vgui_ScorePanel.obj
 0002:00008104       ??_C@_07PKHCDLOI@?$CI?$CFd?5?$CFs?$CJ?$AA@ 10068104     vgui_ScorePanel.obj
 0002:0000810c       ??_C@_0P@LCNEBEMF@?$CDPlayer_plural?$AA@ 1006810c     vgui_ScorePanel.obj
 0002:0000811c       ??_C@_04OELPMFKG@?$CFs?5?5?$AA@ 1006811c     vgui_ScorePanel.obj
 0002:00008124       ??_C@_08EKENHMLF@?$CDUnmuted?$AA@ 10068124     vgui_ScorePanel.obj
 0002:00008130       ??_C@_08LIHLIFOM@?$CFc?$CK?$CK?5?$CFs?6?$AA@ 10068130     vgui_ScorePanel.obj
 0002:0000813c       ??_C@_06LFOCOFCO@?$CDMuted?$AA@ 1006813c     vgui_ScorePanel.obj
 0002:00008144       ??_C@_0BM@DPODEJE@?$CDNo_longer_hear_that_player?$AA@ 10068144     vgui_ScorePanel.obj
 0002:00008160       ??_C@_0M@JBBOLLOM@?$CFc?$CK?$CK?5?$CFs?5?$CFs?6?$AA@ 10068160     vgui_ScorePanel.obj
 0002:0000816c       __real@41500000            1006816c     vgui_ScorePanel.obj
 0002:00008170       __real@41700000            10068170     vgui_ScorePanel.obj
 0002:00008174       __real@41b00000            10068174     vgui_ScorePanel.obj
 0002:0000817c       ??_7ServerBrowser@@6B@     1006817c     vgui_ServerBrowser.obj
 0002:0000837c       ??_7CBrowser_InputSignal@?A0xa8871522@@6B@ 1006837c     vgui_ServerBrowser.obj
 0002:000083ac       ??_7ServerBrowserTablePanel@?A0xa8871522@@6B@ 100683ac     vgui_ServerBrowser.obj
 0002:000085fc       ??_C@_0P@NECGBNGC@togglebrowser?6?$AA@ 100685fc     vgui_ServerBrowser.obj
 0002:0000860c       ??_C@_0M@LNGHCJI@connect?5?$CFs?6?$AA@ 1006860c     vgui_ServerBrowser.obj
 0002:00008618       ??_C@_03HBNNNHNM@map?$AA@  10068618     vgui_ServerBrowser.obj
 0002:0000861c       ??_C@_07LKPDDKMO@current?$AA@ 1006861c     vgui_ServerBrowser.obj
 0002:00008624       ??_C@_03LJAEFNNE@max?$AA@  10068624     vgui_ServerBrowser.obj
 0002:00008628       ??_C@_0CC@OALBPANI@Waiting?5for?5servers?5to?5respond?4?4@ 10068628     vgui_ServerBrowser.obj
 0002:0000864c       ??_C@_0CJ@HBJDFEIP@Press?5?8Refresh?8?5to?5search?5for?5se@ 1006864c     vgui_ServerBrowser.obj
 0002:0000867c       ??_7ConnectHandler@?A0xa8871522@@6B@ 1006867c     vgui_ServerBrowser.obj
 0002:00008684       ??_7RefreshHandler@?A0xa8871522@@6B@ 10068684     vgui_ServerBrowser.obj
 0002:0000868c       ??_7StopHandler@?A0xa8871522@@6B@ 1006868c     vgui_ServerBrowser.obj
 0002:00008694       ??_7CancelHandler@?A0xa8871522@@6B@ 10068694     vgui_ServerBrowser.obj
 0002:0000869c       ??_7LabelSortInputHandler@@6B@ 1006869c     vgui_ServerBrowser.obj
 0002:000086cc       ??_7CSBLabel@@6B@          100686cc     vgui_ServerBrowser.obj
 0002:000088f8       ??_C@_07EODJIPPN@Address?$AA@ 100688f8     vgui_ServerBrowser.obj
 0002:00008900       ??_C@_06LGMEBDBC@Server?$AA@ 10068900     vgui_ServerBrowser.obj
 0002:00008908       ??_C@_03NBOPHIOC@Map?$AA@  10068908     vgui_ServerBrowser.obj
 0002:0000890c       ??_C@_07EDIFFIJI@Current?$AA@ 1006890c     vgui_ServerBrowser.obj
 0002:00008914       ??_C@_07GHNKDAHJ@Latency?$AA@ 10068914     vgui_ServerBrowser.obj
 0002:0000891c       ??_C@_07FJPHLACI@Connect?$AA@ 1006891c     vgui_ServerBrowser.obj
 0002:00008924       ??_C@_07POIENIBA@Refresh?$AA@ 10068924     vgui_ServerBrowser.obj
 0002:0000892c       ??_C@_04MOIHHPNJ@Stop?$AA@ 1006892c     vgui_ServerBrowser.obj
 0002:00008934       ??_C@_05LGELBCGM@Close?$AA@ 10068934     vgui_ServerBrowser.obj
 0002:0000893c       __real@43c80000            1006893c     vgui_ServerBrowser.obj
 0002:00008940       __real@43fa0000            10068940     vgui_ServerBrowser.obj
 0002:00008944       __real@440e8000            10068944     vgui_ServerBrowser.obj
 0002:0000894c       ??_7ColorButton@@6B@       1006894c     vgui_SpectatorPanel.obj
 0002:00008bbc       ??_7SpectatorPanel@@6B@    10068bbc     vgui_SpectatorPanel.obj
 0002:00008dc0       ??_7CSpectatorHandler_Command@@6B@ 10068dc0     vgui_SpectatorPanel.obj
 0002:00008dc4       ??_C@_0CJ@LCKONIJL@Unknown?5SpectatorPanel?5ActionSin@ 10068dc4     vgui_SpectatorPanel.obj
 0002:00008df0       ??_C@_0P@INLBHAJN@Team?5Info?5Text?$AA@ 10068df0     vgui_SpectatorPanel.obj
 0002:00008e00       ??_C@_0L@JPILACHD@Extra?5Info?$AA@ 10068e00     vgui_SpectatorPanel.obj
 0002:00008e0c       ??_C@_05NAPFDJNG@timer?$AA@ 10068e0c     vgui_SpectatorPanel.obj
 0002:00008e14       ??_C@_06BDPMPKBB@banner?$AA@ 10068e14     vgui_SpectatorPanel.obj
 0002:00008e1c       ??_C@_05IPNNCKNB@00?300?$AA@ 10068e1c     vgui_SpectatorPanel.obj
 0002:00008e24       ??_C@_03NDEAONJP@?5?5?5?$AA@ 10068e24     vgui_SpectatorPanel.obj
 0002:00008e28       ??_C@_0P@CAHLMJEK@?$CDSPECT_OPTIONS?$AA@ 10068e28     vgui_SpectatorPanel.obj
 0002:00008e38       ??_C@_0N@FBNKJAMH@?$CDCAM_OPTIONS?$AA@ 10068e38     vgui_SpectatorPanel.obj
 0002:00008e48       ??_C@_01MNNFJEPP@?$DM?$AA@ 10068e48     vgui_SpectatorPanel.obj
 0002:00008e4c       ??_C@_01PPODPGHN@?$DO?$AA@ 10068e4c     vgui_SpectatorPanel.obj
 0002:00008e50       ??_C@_0BB@KAJBLLNM@Spectator?5Bottom?$AA@ 10068e50     vgui_SpectatorPanel.obj
 0002:00008e64       ??_C@_0L@MLABHCOM@?$CDSpec_Duck?$AA@ 10068e64     vgui_SpectatorPanel.obj
 0002:00008e70       ??_C@_0BC@FECMNOGO@?$CDOBS_CHASE_LOCKED?$AA@ 10068e70     vgui_SpectatorPanel.obj
 0002:00008e84       ??_C@_0BA@JPDMMLNH@?$CDOBS_CHASE_FREE?$AA@ 10068e84     vgui_SpectatorPanel.obj
 0002:00008e94       ??_C@_0N@CPCDHPKA@?$CDOBS_ROAMING?$AA@ 10068e94     vgui_SpectatorPanel.obj
 0002:00008ea4       ??_C@_0M@OPIIJDCJ@?$CDOBS_IN_EYE?$AA@ 10068ea4     vgui_SpectatorPanel.obj
 0002:00008eb0       ??_C@_0O@CJKIDLDH@?$CDOBS_MAP_FREE?$AA@ 10068eb0     vgui_SpectatorPanel.obj
 0002:00008ec0       ??_C@_0P@NIMOOAHB@?$CDOBS_MAP_CHASE?$AA@ 10068ec0     vgui_SpectatorPanel.obj
 0002:00008ed0       ??_C@_09OONHNKNN@?$CDOBS_NONE?$AA@ 10068ed0     vgui_SpectatorPanel.obj
 0002:00008edc       __real@40c00000            10068edc     vgui_SpectatorPanel.obj
 0002:00008ee0       __real@41600000            10068ee0     vgui_SpectatorPanel.obj
 0002:00008ee4       __real@421c0000            10068ee4     vgui_SpectatorPanel.obj
 0002:00008ee8       __real@42c00000            10068ee8     vgui_SpectatorPanel.obj
 0002:00008eec       __real@42fc0000            10068eec     vgui_SpectatorPanel.obj
 0002:00008ef0       __real@431d0000            10068ef0     vgui_SpectatorPanel.obj
 0002:00008ef4       __real@43240000            10068ef4     vgui_SpectatorPanel.obj
 0002:00008ef8       __real@43700000            10068ef8     vgui_SpectatorPanel.obj
 0002:00008efc       ??_C@_05KMKDDKPM@SCOUT?$AA@ 10068efc     vgui_TeamFortressViewport.obj
 0002:00008f04       ??_C@_06CFMOPNNA@SNIPER?$AA@ 10068f04     vgui_TeamFortressViewport.obj
 0002:00008f0c       ??_C@_07DOBOICPH@SOLDIER?$AA@ 10068f0c     vgui_TeamFortressViewport.obj
 0002:00008f14       ??_C@_07DOIAGFOJ@DEMOMAN?$AA@ 10068f14     vgui_TeamFortressViewport.obj
 0002:00008f1c       ??_C@_05NNIBPFDE@MEDIC?$AA@ 10068f1c     vgui_TeamFortressViewport.obj
 0002:00008f24       ??_C@_05CAMIKPEE@HWGUY?$AA@ 10068f24     vgui_TeamFortressViewport.obj
 0002:00008f2c       ??_C@_04KPBCCOBF@PYRO?$AA@ 10068f2c     vgui_TeamFortressViewport.obj
 0002:00008f34       ??_C@_03MGEIAC@SPY?$AA@    10068f34     vgui_TeamFortressViewport.obj
 0002:00008f38       ??_C@_08KNMKFDEP@ENGINEER?$AA@ 10068f38     vgui_TeamFortressViewport.obj
 0002:00008f44       ??_C@_08MENEKNPP@CIVILIAN?$AA@ 10068f44     vgui_TeamFortressViewport.obj
 0002:00008f50       ??_C@_09JIGANFHA@?$CDCivilian?$AA@ 10068f50     vgui_TeamFortressViewport.obj
 0002:00008f5c       ??_C@_06LCGCIFFI@?$CDScout?$AA@ 10068f5c     vgui_TeamFortressViewport.obj
 0002:00008f64       ??_C@_07GBOPHPDM@?$CDSniper?$AA@ 10068f64     vgui_TeamFortressViewport.obj
 0002:00008f6c       ??_C@_08CGCCJIE@?$CDSoldier?$AA@ 10068f6c     vgui_TeamFortressViewport.obj
 0002:00008f78       ??_C@_08CPMMOJK@?$CDDemoman?$AA@ 10068f78     vgui_TeamFortressViewport.obj
 0002:00008f84       ??_C@_06MDEAEKJA@?$CDMedic?$AA@ 10068f84     vgui_TeamFortressViewport.obj
 0002:00008f8c       ??_C@_06FPPKJANK@?$CDHWGuy?$AA@ 10068f8c     vgui_TeamFortressViewport.obj
 0002:00008f94       ??_C@_05FEDBMCEP@?$CDPyro?$AA@ 10068f94     vgui_TeamFortressViewport.obj
 0002:00008f9c       ??_C@_04MMAIFHJF@?$CDSpy?$AA@ 10068f9c     vgui_TeamFortressViewport.obj
 0002:00008fa4       ??_C@_09PBHOCLMA@?$CDEngineer?$AA@ 10068fa4     vgui_TeamFortressViewport.obj
 0002:00008fb0       ??_C@_07JLFIFBMN@?$CDRandom?$AA@ 10068fb0     vgui_TeamFortressViewport.obj
 0002:00008fb8       ??_C@_08LLHIJDNI@civilian?$AA@ 10068fb8     vgui_TeamFortressViewport.obj
 0002:00008fc4       ??_C@_05GHDFNNLC@scout?$AA@ 10068fc4     vgui_TeamFortressViewport.obj
 0002:00008fcc       ??_C@_06CBOFCDAC@sniper?$AA@ 10068fcc     vgui_TeamFortressViewport.obj
 0002:00008fd4       ??_C@_07MDEDDOHD@soldier?$AA@ 10068fd4     vgui_TeamFortressViewport.obj
 0002:00008fdc       ??_C@_07MDNNNJGN@demoman?$AA@ 10068fdc     vgui_TeamFortressViewport.obj
 0002:00008fe4       ??_C@_05BGBHBCHK@medic?$AA@ 10068fe4     vgui_TeamFortressViewport.obj
 0002:00008fec       ??_C@_05OLFOEIAK@hwguy?$AA@ 10068fec     vgui_TeamFortressViewport.obj
 0002:00008ff4       ??_C@_04GDCIMMGN@pyro?$AA@ 10068ff4     vgui_TeamFortressViewport.obj
 0002:00008ffc       ??_C@_03NDNIFHO@spy?$AA@   10068ffc     vgui_TeamFortressViewport.obj
 0002:00009000       ??_C@_08NCGGGNGI@engineer?$AA@ 10069000     vgui_TeamFortressViewport.obj
 0002:0000900c       ??_C@_08FLABEFKF@randompc?$AA@ 1006900c     vgui_TeamFortressViewport.obj
 0002:0000901c       ??_7Surface@vgui@@6B@      1006901c     vgui_TeamFortressViewport.obj
 0002:000090b4       ??_7MenuSeparator@vgui@@6B@ 100690b4     vgui_TeamFortressViewport.obj
 0002:000092e4       ??_7BuildGroup@vgui@@6B@   100692e4     vgui_TeamFortressViewport.obj
 0002:00009324       ??_7SpectButton@@6B@       10069324     vgui_TeamFortressViewport.obj
 0002:00009594       ??_7TeamFortressViewport@@6B@ 10069594     vgui_TeamFortressViewport.obj
 0002:00009794       ??_7CMenuHandler_PopupSubMenuInput@@6B@ 10069794     vgui_TeamFortressViewport.obj
 0002:000097c4       ??_7CMenuHandler_ToggleCvar@@6B@ 100697c4     vgui_TeamFortressViewport.obj
 0002:000097cc       ??_7TeamButton@@6B@        100697cc     vgui_TeamFortressViewport.obj
 0002:00009a3c       ??_7FeignButton@@6B@       10069a3c     vgui_TeamFortressViewport.obj
 0002:00009cac       ??_7SpectateButton@@6B@    10069cac     vgui_TeamFortressViewport.obj
 0002:00009f1c       ??_7DisguiseButton@@6B@    10069f1c     vgui_TeamFortressViewport.obj
 0002:0000a18c       ??_7DetpackButton@@6B@     1006a18c     vgui_TeamFortressViewport.obj
 0002:0000a3fc       ??_7BuildButton@@6B@       1006a3fc     vgui_TeamFortressViewport.obj
 0002:0000a66c       ??_7MapButton@@6B@         1006a66c     vgui_TeamFortressViewport.obj
 0002:0000a8d4       ??_C@_0M@DKNJHPLK@maps?1?$CFs?4bsp?$AA@ 1006a8d4     vgui_TeamFortressViewport.obj
 0002:0000a8e4       ??_7TeamOnlyCommandButton@@6B@ 1006a8e4     vgui_TeamFortressViewport.obj
 0002:0000ab54       ??_7ToggleCommandButton@@6BCommandButton@@@ 1006ab54     vgui_TeamFortressViewport.obj
 0002:0000adc0       ??_7ToggleCommandButton@@6BInputSignal@vgui@@@ 1006adc0     vgui_TeamFortressViewport.obj
 0002:0000adec       ??_C@_07FJOBMBFC@checked?$AA@ 1006adec     vgui_TeamFortressViewport.obj
 0002:0000adf4       ??_C@_09FLIIGCKH@unchecked?$AA@ 1006adf4     vgui_TeamFortressViewport.obj
 0002:0000ae04       ??_7SpectToggleButton@@6BCommandButton@@@ 1006ae04     vgui_TeamFortressViewport.obj
 0002:0000b070       ??_7SpectToggleButton@@6BInputSignal@vgui@@@ 1006b070     vgui_TeamFortressViewport.obj
 0002:0000b09c       ??_C@_05OMEEDKDH@arrow?$AA@ 1006b09c     vgui_TeamFortressViewport.obj
 0002:0000b0a8       ??_7CViewPortInputHandler@@6B@ 1006b0a8     vgui_TeamFortressViewport.obj
 0002:0000b0d4       ??_C@_0BH@HJNENHNI@ForceCloseCommandMenu?6?$AA@ 1006b0d4     vgui_TeamFortressViewport.obj
 0002:0000b0ec       ??_C@_0BE@JNLNJHKA@Primary?5Button?5Text?$AA@ 1006b0ec     vgui_TeamFortressViewport.obj
 0002:0000b100       ??_C@_0BB@CJIMKAIN@CommandMenu?5Text?$AA@ 1006b100     vgui_TeamFortressViewport.obj
 0002:0000b114       ??_C@_0BA@DAIGDHPC@commandmenu?4txt?$AA@ 1006b114     vgui_TeamFortressViewport.obj
 0002:0000b124       ??_C@_0BC@MHMDDKOH@spectatormenu?4txt?$AA@ 1006b124     vgui_TeamFortressViewport.obj
 0002:0000b138       ??_C@_0BB@PBMDFHLG@spectcammenu?4txt?$AA@ 1006b138     vgui_TeamFortressViewport.obj
 0002:0000b14c       ??_C@_0BD@NIAKIDGN@Unable?5to?5open?5?$CFs?6?$AA@ 1006b14c     vgui_TeamFortressViewport.obj
 0002:0000b160       ??_C@_0BI@LEOLMPCK@?$CDDetpackSet_For5Seconds?$AA@ 1006b160     vgui_TeamFortressViewport.obj
 0002:0000b178       ??_C@_0BJ@EECLHNKO@?$CDDetpackSet_For20Seconds?$AA@ 1006b178     vgui_TeamFortressViewport.obj
 0002:0000b194       ??_C@_0BJ@KGPHGGNH@?$CDDetpackSet_For50Seconds?$AA@ 1006b194     vgui_TeamFortressViewport.obj
 0002:0000b1b0       ??_C@_0L@PCFCHBOL@file?5start?$AA@ 1006b1b0     vgui_TeamFortressViewport.obj
 0002:0000b1bc       ??_C@_0BO@PDOMINIF@Error?5in?5?$CFs?5file?5after?5?8?$CFs?8?4?6?$AA@ 1006b1bc     vgui_TeamFortressViewport.obj
 0002:0000b1dc       ??_C@_06EOPOAAHK@CUSTOM?$AA@ 1006b1dc     vgui_TeamFortressViewport.obj
 0002:0000b1e4       ??_C@_03HMCGBKKA@MAP?$AA@  1006b1e4     vgui_TeamFortressViewport.obj
 0002:0000b1e8       ??_C@_04GMALBPFJ@TEAM?$AA@ 1006b1e8     vgui_TeamFortressViewport.obj
 0002:0000b1f0       ??_C@_06FDJJHOKF@TOGGLE?$AA@ 1006b1f0     vgui_TeamFortressViewport.obj
 0002:0000b1f8       ??_C@_0CA@PPOOFFNI@Too?5many?5menus?5in?5?$CFs?5past?5?8?$CFs?8?6?$AA@ 1006b1f8     vgui_TeamFortressViewport.obj
 0002:0000b218       ??_C@_05DIALNFFA@?$CFs?5?$CFd?$AA@ 1006b218     vgui_TeamFortressViewport.obj
 0002:0000b220       ??_C@_0M@LLGIJGLF@?$CBCHANGETEAM?$AA@ 1006b220     vgui_TeamFortressViewport.obj
 0002:0000b22c       ??_C@_0M@PAILLMDG@jointeam?5?$CFd?$AA@ 1006b22c     vgui_TeamFortressViewport.obj
 0002:0000b238       ??_C@_08EIAEBCFJ@teamname?$AA@ 1006b238     vgui_TeamFortressViewport.obj
 0002:0000b244       ??_C@_0BB@LCEIBJDA@?$CDTeam_AutoAssign?$AA@ 1006b244     vgui_TeamFortressViewport.obj
 0002:0000b258       ??_C@_0L@IEDCMFIA@jointeam?55?$AA@ 1006b258     vgui_TeamFortressViewport.obj
 0002:0000b264       ??_C@_0P@CGNJKBOI@?$CDMenu_Spectate?$AA@ 1006b264     vgui_TeamFortressViewport.obj
 0002:0000b274       ??_C@_08OPNMBCGA@spectate?$AA@ 1006b274     vgui_TeamFortressViewport.obj
 0002:0000b280       ??_C@_0N@CPFNPPCK@?$CBCHANGECLASS?$AA@ 1006b280     vgui_TeamFortressViewport.obj
 0002:0000b290       ??_C@_0N@DIPGKGN@?$CBMAPBRIEFING?$AA@ 1006b290     vgui_TeamFortressViewport.obj
 0002:0000b2a0       ??_C@_0L@FHEGMDBN@?$CBCLASSDESC?$AA@ 1006b2a0     vgui_TeamFortressViewport.obj
 0002:0000b2ac       ??_C@_0M@CLDHAONL@?$CBSERVERINFO?$AA@ 1006b2ac     vgui_TeamFortressViewport.obj
 0002:0000b2b8       ??_C@_04BLABGGLH@?$CBSPY?$AA@ 1006b2b8     vgui_TeamFortressViewport.obj
 0002:0000b2c0       ??_C@_06LPHIMCJI@?$CBFEIGN?$AA@ 1006b2c0     vgui_TeamFortressViewport.obj
 0002:0000b2c8       ??_C@_05DBIKGJCD@feign?$AA@ 1006b2c8     vgui_TeamFortressViewport.obj
 0002:0000b2d0       ??_C@_0N@KNBJJDJI@?$CBFEIGNSILENT?$AA@ 1006b2d0     vgui_TeamFortressViewport.obj
 0002:0000b2e0       ??_C@_06MAKENNEI@sfeign?$AA@ 1006b2e0     vgui_TeamFortressViewport.obj
 0002:0000b2e8       ??_C@_0L@KMEGGMMB@?$CBFEIGNSTOP?$AA@ 1006b2e8     vgui_TeamFortressViewport.obj
 0002:0000b2f4       ??_C@_0P@CILIAFIK@?$CBDISGUISEENEMY?$AA@ 1006b2f4     vgui_TeamFortressViewport.obj
 0002:0000b304       ??_C@_0P@HDBPOKJO@disguise_enemy?$AA@ 1006b304     vgui_TeamFortressViewport.obj
 0002:0000b314       ??_C@_0BC@LJEKLHHM@?$CBDISGUISEFRIENDLY?$AA@ 1006b314     vgui_TeamFortressViewport.obj
 0002:0000b328       ??_C@_0BC@DOMKKIJP@disguise_friendly?$AA@ 1006b328     vgui_TeamFortressViewport.obj
 0002:0000b33c       ??_C@_09PMDNMBPB@?$CBDISGUISE?$AA@ 1006b33c     vgui_TeamFortressViewport.obj
 0002:0000b348       ??_C@_08KEHMGJED@Disguise?$AA@ 1006b348     vgui_TeamFortressViewport.obj
 0002:0000b354       ??_C@_0M@BIEEIAKK@disguise?5?$CFd?$AA@ 1006b354     vgui_TeamFortressViewport.obj
 0002:0000b360       ??_C@_0O@CHJBLBOI@?$CBDETPACKSTART?$AA@ 1006b360     vgui_TeamFortressViewport.obj
 0002:0000b370       ??_C@_0L@OKJHEIMC@detstart?55?$AA@ 1006b370     vgui_TeamFortressViewport.obj
 0002:0000b37c       ??_C@_0M@KPIJBEKC@detstart?520?$AA@ 1006b37c     vgui_TeamFortressViewport.obj
 0002:0000b388       ??_C@_0M@KKMGACCH@detstart?550?$AA@ 1006b388     vgui_TeamFortressViewport.obj
 0002:0000b394       ??_C@_0N@MHFOJIBE@?$CBDETPACKSTOP?$AA@ 1006b394     vgui_TeamFortressViewport.obj
 0002:0000b3a4       ??_C@_07LBNKPKHN@detstop?$AA@ 1006b3a4     vgui_TeamFortressViewport.obj
 0002:0000b3ac       ??_C@_06LCLDBAGH@?$CBBUILD?$AA@ 1006b3ac     vgui_TeamFortressViewport.obj
 0002:0000b3b4       ??_C@_0N@FGEJGJIB@?$CBBUILDSENTRY?$AA@ 1006b3b4     vgui_TeamFortressViewport.obj
 0002:0000b3c4       ??_C@_07KEADMOMH@build?52?$AA@ 1006b3c4     vgui_TeamFortressViewport.obj
 0002:0000b3cc       ??_C@_0BA@IAAIJIFH@?$CBBUILDDISPENSER?$AA@ 1006b3cc     vgui_TeamFortressViewport.obj
 0002:0000b3dc       ??_C@_07IPCOJNAE@build?51?$AA@ 1006b3dc     vgui_TeamFortressViewport.obj
 0002:0000b3e4       ??_C@_0BB@GMAGAFEL@?$CBROTATESENTRY180?$AA@ 1006b3e4     vgui_TeamFortressViewport.obj
 0002:0000b3f8       ??_C@_0BA@KCBAJEHA@rotatesentry180?$AA@ 1006b3f8     vgui_TeamFortressViewport.obj
 0002:0000b408       ??_C@_0O@EIJHKBAN@?$CBROTATESENTRY?$AA@ 1006b408     vgui_TeamFortressViewport.obj
 0002:0000b418       ??_C@_0N@NLBBCFML@rotatesentry?$AA@ 1006b418     vgui_TeamFortressViewport.obj
 0002:0000b428       ??_C@_0BE@HHKPCHFL@?$CBDISMANTLEDISPENSER?$AA@ 1006b428     vgui_TeamFortressViewport.obj
 0002:0000b43c       ??_C@_0M@MNOEJKFH@dismantle?51?$AA@ 1006b43c     vgui_TeamFortressViewport.obj
 0002:0000b448       ??_C@_0BB@FEIBOHDC@?$CBDISMANTLESENTRY?$AA@ 1006b448     vgui_TeamFortressViewport.obj
 0002:0000b45c       ??_C@_0M@OGMJMJJE@dismantle?52?$AA@ 1006b45c     vgui_TeamFortressViewport.obj
 0002:0000b468       ??_C@_0BD@LODCEOBC@?$CBDETONATEDISPENSER?$AA@ 1006b468     vgui_TeamFortressViewport.obj
 0002:0000b47c       ??_C@_0N@HCBEKMHJ@detdispenser?$AA@ 1006b47c     vgui_TeamFortressViewport.obj
 0002:0000b48c       ??_C@_0BA@PFIKCEMN@?$CBDETONATESENTRY?$AA@ 1006b48c     vgui_TeamFortressViewport.obj
 0002:0000b49c       ??_C@_09BEPJLMDL@detsentry?$AA@ 1006b49c     vgui_TeamFortressViewport.obj
 0002:0000b4a8       ??_C@_0L@KKPBPJFG@?$CBBUILDSTOP?$AA@ 1006b4a8     vgui_TeamFortressViewport.obj
 0002:0000b4b4       ??_C@_05DMEBLLNM@build?$AA@ 1006b4b4     vgui_TeamFortressViewport.obj
 0002:0000b4bc       ??_C@_08DKHCINOP@_special?$AA@ 1006b4bc     vgui_TeamFortressViewport.obj
 0002:0000b4c8       ??_C@_07PEHIJHBJ@?5?9?5HLTV?$AA@ 1006b4c8     vgui_TeamFortressViewport.obj
 0002:0000b4d0       ??_C@_0O@PDODJJGK@?$CDSpec_Auto?5?$CFs?$AA@ 1006b4d0     vgui_TeamFortressViewport.obj
 0002:0000b4e0       ??_C@_06GBEGMGE@?$CFs?3?5?$CFd?$AA@ 1006b4e0     vgui_TeamFortressViewport.obj
 0002:0000b4e8       ??_C@_09LNGJNNNE@?$CDSpec_Map?$AA@ 1006b4e8     vgui_TeamFortressViewport.obj
 0002:0000b4f4       ??_C@_06DJHOIPC@?$CFs?3?5?$CFs?$AA@ 1006b4f4     vgui_TeamFortressViewport.obj
 0002:0000b4fc       ??_C@_09IBONLKEI@Half?9Life?$AA@ 1006b4fc     vgui_TeamFortressViewport.obj
 0002:0000b508       ??_C@_05HBJBFCNN@maps?1?$AA@ 1006b508     vgui_TeamFortressViewport.obj
 0002:0000b510       ??_C@_04LCMACLFG@?4txt?$AA@ 1006b510     vgui_TeamFortressViewport.obj
 0002:0000b518       ??_C@_0M@FKFCPOJG@?$CDHelp_scout?$AA@ 1006b518     vgui_TeamFortressViewport.obj
 0002:0000b524       ??_C@_0N@MLLALELF@?$CDTitle_scout?$AA@ 1006b524     vgui_TeamFortressViewport.obj
 0002:0000b534       ??_C@_0N@BNNLKAPA@?$CDHelp_sniper?$AA@ 1006b534     vgui_TeamFortressViewport.obj
 0002:0000b544       ??_C@_0O@LPCNDDMI@?$CDTitle_sniper?$AA@ 1006b544     vgui_TeamFortressViewport.obj
 0002:0000b554       ??_C@_0O@JAMMJDMA@?$CDHelp_soldier?$AA@ 1006b554     vgui_TeamFortressViewport.obj
 0002:0000b564       ??_C@_0P@LIGMNNMN@?$CDTitle_soldier?$AA@ 1006b564     vgui_TeamFortressViewport.obj
 0002:0000b574       ??_C@_0O@JAFCHENO@?$CDHelp_demoman?$AA@ 1006b574     vgui_TeamFortressViewport.obj
 0002:0000b584       ??_C@_0P@LIPCDKND@?$CDTitle_demoman?$AA@ 1006b584     vgui_TeamFortressViewport.obj
 0002:0000b594       ??_C@_0M@CLHADBFO@?$CDHelp_medic?$AA@ 1006b594     vgui_TeamFortressViewport.obj
 0002:0000b5a0       ??_C@_0N@LKJCHLHN@?$CDTitle_medic?$AA@ 1006b5a0     vgui_TeamFortressViewport.obj
 0002:0000b5b0       ??_C@_0M@NGDJGLCO@?$CDHelp_hwguy?$AA@ 1006b5b0     vgui_TeamFortressViewport.obj
 0002:0000b5bc       ??_C@_0N@EHNLCBAN@?$CDTitle_hwguy?$AA@ 1006b5bc     vgui_TeamFortressViewport.obj
 0002:0000b5cc       ??_C@_0L@NMJODPAI@?$CDHelp_pyro?$AA@ 1006b5cc     vgui_TeamFortressViewport.obj
 0002:0000b5d8       ??_C@_0M@FKLIILEG@?$CDTitle_pyro?$AA@ 1006b5d8     vgui_TeamFortressViewport.obj
 0002:0000b5e4       ??_C@_09GLKPPGEN@?$CDHelp_spy?$AA@ 1006b5e4     vgui_TeamFortressViewport.obj
 0002:0000b5f0       ??_C@_0L@JOMJGMJN@?$CDTitle_spy?$AA@ 1006b5f0     vgui_TeamFortressViewport.obj
 0002:0000b5fc       ??_C@_0P@IAFNAAPD@?$CDHelp_engineer?$AA@ 1006b5fc     vgui_TeamFortressViewport.obj
 0002:0000b60c       ??_C@_0BA@POMENMAA@?$CDTitle_engineer?$AA@ 1006b60c     vgui_TeamFortressViewport.obj
 0002:0000b61c       ??_C@_0P@OJEDPOED@?$CDHelp_civilian?$AA@ 1006b61c     vgui_TeamFortressViewport.obj
 0002:0000b62c       ??_C@_0BA@JHNKCCLA@?$CDTitle_civilian?$AA@ 1006b62c     vgui_TeamFortressViewport.obj
 0002:0000b63c       ??_C@_0BK@GANPMAN@classes?1long_civilian?4txt?$AA@ 1006b63c     vgui_TeamFortressViewport.obj
 0002:0000b658       ??_C@_0BE@EPBCHMDG@classes?1long_?$CFs?4txt?$AA@ 1006b658     vgui_TeamFortressViewport.obj
 0002:0000b66c       ??_C@_0BB@HPLENLPP@?$CDSpec_Help_Title?$AA@ 1006b66c     vgui_TeamFortressViewport.obj
 0002:0000b680       __real@42d00000            1006b680     vgui_TeamFortressViewport.obj
 0002:0000b68c       ??_7CTeamMenuPanel@@6B@    1006b68c     vgui_teammenu.obj
 0002:0000b8a4       ??_C@_0BG@MFACDAFD@?$CDTitle_SelectYourTeam?$AA@ 1006b8a4     vgui_teammenu.obj
 0002:0000b8bc       ??_C@_0BP@BANPFJMN@?$CDMap_Description_not_available?$AA@ 1006b8bc     vgui_teammenu.obj
 0002:0000b8dc       ??_C@_02KEGNLNML@?0?5?$AA@ 1006b8dc     vgui_teammenu.obj
 0002:0000b8e0       ??_C@_0BK@FDPCMNGP@?$CFs?3?5?$CFd?5Player?5?$CI?$CFd?5points?$CJ?$AA@ 1006b8e0     vgui_teammenu.obj
 0002:0000b8fc       ??_C@_0BL@PJPJDHFA@?$CFs?3?5?$CFd?5Players?5?$CI?$CFd?5points?$CJ?$AA@ 1006b8fc     vgui_teammenu.obj
 0002:0000b918       __real@43320000            1006b918     vgui_teammenu.obj
 0002:0000b91c       __real@436a0000            1006b91c     vgui_teammenu.obj
 0002:0000b920       ??_C@_0N@LHNGEHIH@v_iyaw_cycle?$AA@ 1006b920     view.obj
 0002:0000b930       ??_C@_01FDFGLJHB@2?$AA@    1006b930     view.obj
 0002:0000b934       ??_C@_0O@MDLCCKMC@v_iroll_cycle?$AA@ 1006b934     view.obj
 0002:0000b944       ??_C@_03LOHCHBBO@0?45?$AA@ 1006b944     view.obj
 0002:0000b948       ??_C@_0P@LNAJMEAA@v_ipitch_cycle?$AA@ 1006b948     view.obj
 0002:0000b958       ??_C@_0N@FKEEKILK@v_iyaw_level?$AA@ 1006b958     view.obj
 0002:0000b968       ??_C@_0O@COCAMFPP@v_iroll_level?$AA@ 1006b968     view.obj
 0002:0000b978       ??_C@_03NKBOLEBK@0?41?$AA@ 1006b978     view.obj
 0002:0000b97c       ??_C@_0P@FAJLCLDN@v_ipitch_level?$AA@ 1006b97c     view.obj
 0002:0000b98c       ??_C@_0BG@HKBMANOC@models?1p_crossbow?4mdl?$AA@ 1006b98c     view.obj
 0002:0000b9a4       ??_C@_0BG@FIOGNJBA@models?1v_crossbow?4mdl?$AA@ 1006b9a4     view.obj
 0002:0000b9bc       ??_C@_0BF@CKKEOHHH@models?1p_crowbar?4mdl?$AA@ 1006b9bc     view.obj
 0002:0000b9d4       ??_C@_0BF@NCGGKMMB@models?1v_crowbar?4mdl?$AA@ 1006b9d4     view.obj
 0002:0000b9ec       ??_C@_0BC@GKFFGKMI@models?1p_egon?4mdl?$AA@ 1006b9ec     view.obj
 0002:0000ba00       ??_C@_0BC@ICOAKAIL@models?1v_egon?4mdl?$AA@ 1006ba00     view.obj
 0002:0000ba14       ??_C@_0BD@BMFIGFJL@models?1p_gauss?4mdl?$AA@ 1006ba14     view.obj
 0002:0000ba28       ??_C@_0BD@PDGFMAHL@models?1v_gauss?4mdl?$AA@ 1006ba28     view.obj
 0002:0000ba3c       ??_C@_0BI@EPPIOHID@models?1p_9mmhandgun?4mdl?$AA@ 1006ba3c     view.obj
 0002:0000ba54       ??_C@_0BI@OIMMFAIL@models?1v_9mmhandgun?4mdl?$AA@ 1006ba54     view.obj
 0002:0000ba6c       ??_C@_0BF@PMIHKCIM@models?1p_grenade?4mdl?$AA@ 1006ba6c     view.obj
 0002:0000ba84       ??_C@_0BF@EEFOJDK@models?1v_grenade?4mdl?$AA@ 1006ba84     view.obj
 0002:0000ba9c       ??_C@_0BC@FILEEOBP@models?1p_hgun?4mdl?$AA@ 1006ba9c     view.obj
 0002:0000bab0       ??_C@_0BC@LAABIEFM@models?1v_hgun?4mdl?$AA@ 1006bab0     view.obj
 0002:0000bac4       ??_C@_0BD@BODGIAC@models?1p_9mmAR?4mdl?$AA@ 1006bac4     view.obj
 0002:0000bad8       ??_C@_0BD@OONOMNOC@models?1v_9mmAR?4mdl?$AA@ 1006bad8     view.obj
 0002:0000baec       ??_C@_0BB@HAMKIBDK@models?1p_357?4mdl?$AA@ 1006baec     view.obj
 0002:0000bb00       ??_C@_0BB@HNNEPBHN@models?1v_357?4mdl?$AA@ 1006bb00     view.obj
 0002:0000bb14       ??_C@_0BB@IPEABBGA@models?1p_rpg?4mdl?$AA@ 1006bb14     view.obj
 0002:0000bb28       ??_C@_0BB@ICFOGBCH@models?1v_rpg?4mdl?$AA@ 1006bb28     view.obj
 0002:0000bb3c       ??_C@_0BF@PMANNOFI@models?1p_shotgun?4mdl?$AA@ 1006bb3c     view.obj
 0002:0000bb54       ??_C@_0BF@EMPJFOO@models?1v_shotgun?4mdl?$AA@ 1006bb54     view.obj
 0002:0000bb6c       ??_C@_0BE@OOEABCJM@models?1p_squeak?4mdl?$AA@ 1006bb6c     view.obj
 0002:0000bb80       ??_C@_0BE@EOKFMNEB@models?1v_squeak?4mdl?$AA@ 1006bb80     view.obj
 0002:0000bb94       ??_C@_0BG@GBOLPBLB@models?1p_tripmine?4mdl?$AA@ 1006bb94     view.obj
 0002:0000bbac       ??_C@_0BG@EDBBCFED@models?1v_tripmine?4mdl?$AA@ 1006bbac     view.obj
 0002:0000bbc4       ??_C@_0BL@DCPBNACK@models?1p_satchel_radio?4mdl?$AA@ 1006bbc4     view.obj
 0002:0000bbe0       ??_C@_0BL@LGNCENPP@models?1v_satchel_radio?4mdl?$AA@ 1006bbe0     view.obj
 0002:0000bbfc       ??_C@_0BF@GDJJJKBD@models?1p_satchel?4mdl?$AA@ 1006bbfc     view.obj
 0002:0000bc14       ??_C@_0BF@JLFLNBKF@models?1v_satchel?4mdl?$AA@ 1006bc14     view.obj
 0002:0000bc2c       ??_C@_0L@FHIBDANG@centerview?$AA@ 1006bc2c     view.obj
 0002:0000bc38       ??_C@_08LMONKFIN@scr_ofsx?$AA@ 1006bc38     view.obj
 0002:0000bc44       ??_C@_08KFPGJEMM@scr_ofsy?$AA@ 1006bc44     view.obj
 0002:0000bc50       ??_C@_08IONLMHAP@scr_ofsz?$AA@ 1006bc50     view.obj
 0002:0000bc5c       ??_C@_0N@DDEDDFCJ@v_centermove?$AA@ 1006bc5c     view.obj
 0002:0000bc6c       ??_C@_03OCGDPLBD@500?$AA@  1006bc6c     view.obj
 0002:0000bc70       ??_C@_0O@NKNAOODD@v_centerspeed?$AA@ 1006bc70     view.obj
 0002:0000bc80       ??_C@_0M@KEDGBCKK@cl_bobcycle?$AA@ 1006bc80     view.obj
 0002:0000bc8c       ??_C@_04DKCHIKEL@0?401?$AA@ 1006bc8c     view.obj
 0002:0000bc94       ??_C@_06JINHFLHC@cl_bob?$AA@ 1006bc94     view.obj
 0002:0000bc9c       ??_C@_08JMLFNIJC@cl_bobup?$AA@ 1006bc9c     view.obj
 0002:0000bca8       ??_C@_01FAMBOPH@4?$AA@     1006bca8     view.obj
 0002:0000bcac       ??_C@_0N@FKCHFPJN@cl_waterdist?$AA@ 1006bcac     view.obj
 0002:0000bcbc       ??_C@_03FOPFGEPB@112?$AA@  1006bcbc     view.obj
 0002:0000bcc0       ??_C@_0N@PGEHGMMM@cl_chasedist?$AA@ 1006bcc0     view.obj
 0002:0000bcd0       __real@3c23d70a            1006bcd0     view.obj
 0002:0000bcd4       __real@3c800000            1006bcd4     view.obj
 0002:0000bcd8       __real@3fa0000000000000    1006bcd8     view.obj
 0002:0000bce0       __real@3fc00000            1006bce0     view.obj
 0002:0000bce4       __real@41480000            1006bce4     view.obj
 0002:0000bce8       __real@41880000            1006bce8     view.obj
 0002:0000bcec       __real@41b40000            1006bcec     view.obj
 0002:0000bcf0       __real@421b0000            1006bcf0     view.obj
 0002:0000bcf4       __real@424d0000            1006bcf4     view.obj
 0002:0000bcf8       __real@42dc0000            1006bcf8     view.obj
 0002:0000bd00       __real@c008000000000000    1006bd00     view.obj
 0002:0000bd08       __real@c0400000            1006bd08     view.obj
 0002:0000bd0c       __real@c0e00000            1006bd0c     view.obj
 0002:0000bd14       ??_7CCrossbow@@6B@         1006bd14     crossbow.obj
 0002:0000be7c       ??_C@_0BG@OBBNACPI@models?1w_crossbow?4mdl?$AA@ 1006be7c     crossbow.obj
 0002:0000be94       ??_C@_0BH@OFCAHODE@weapons?1xbow_fire1?4wav?$AA@ 1006be94     crossbow.obj
 0002:0000beac       ??_C@_0BJ@JLOJNCHH@weapons?1xbow_reload1?4wav?$AA@ 1006beac     crossbow.obj
 0002:0000bec8       ??_C@_0O@BEIBOGJ@crossbow_bolt?$AA@ 1006bec8     crossbow.obj
 0002:0000bed8       ??_C@_0BE@PGCIGAHE@events?1crossbow1?4sc?$AA@ 1006bed8     crossbow.obj
 0002:0000beec       ??_C@_0BE@LBIIBKKE@events?1crossbow2?4sc?$AA@ 1006beec     crossbow.obj
 0002:0000bf00       ??_C@_05DGHJLCJD@bolts?$AA@ 1006bf00     crossbow.obj
 0002:0000bf08       ??_C@_03GMGBHMEH@bow?$AA@  1006bf08     crossbow.obj
 0002:0000bf0c       ??_C@_09KNGNPJEJ@?$CBHEV_AMO0?$AA@ 1006bf0c     crossbow.obj
 0002:0000bf1c       ??_7CCrossbowAmmo@@6B@     1006bf1c     crossbow.obj
 0002:0000c004       ??_C@_0BL@OLELNEJC@models?1w_crossbow_clip?4mdl?$AA@ 1006c004     crossbow.obj
 0002:0000c020       ??_C@_0BD@BADMCPNB@items?19mmclip1?4wav?$AA@ 1006c020     crossbow.obj
 0002:0000c034       __real@3f400000            1006c034     crossbow.obj
 0002:0000c038       __real@3fe8000000000000    1006c038     crossbow.obj
 0002:0000c040       __real@4005555555555555    1006c040     crossbow.obj
 0002:0000c04c       ??_7CCrowbar@@6B@          1006c04c     crowbar.obj
 0002:0000c1b4       ??_C@_0BF@EPGJENLH@models?1w_crowbar?4mdl?$AA@ 1006c1b4     crowbar.obj
 0002:0000c1cc       ??_C@_0BG@IINKCKHP@weapons?1cbar_hit1?4wav?$AA@ 1006c1cc     crowbar.obj
 0002:0000c1e4       ??_C@_0BG@OEOFINB@weapons?1cbar_hit2?4wav?$AA@ 1006c1e4     crowbar.obj
 0002:0000c1fc       ??_C@_0BJ@GMGLIKCL@weapons?1cbar_hitbod1?4wav?$AA@ 1006c1fc     crowbar.obj
 0002:0000c218       ??_C@_0BJ@OKPPPIIF@weapons?1cbar_hitbod2?4wav?$AA@ 1006c218     crowbar.obj
 0002:0000c234       ??_C@_0BJ@CBKDCLCA@weapons?1cbar_hitbod3?4wav?$AA@ 1006c234     crowbar.obj
 0002:0000c250       ??_C@_0BH@CNLHGOLI@weapons?1cbar_miss1?4wav?$AA@ 1006c250     crowbar.obj
 0002:0000c268       ??_C@_0BC@DAIEPCHI@events?1crowbar?4sc?$AA@ 1006c268     crowbar.obj
 0002:0000c27c       ??_C@_07MICNECHH@crowbar?$AA@ 1006c27c     crowbar.obj
 0002:0000c28c       ??_7CEgon@@6B@             1006c28c     egon.obj
 0002:0000c3f4       ??_C@_0BC@EDGOHPEL@models?1w_egon?4mdl?$AA@ 1006c3f4     egon.obj
 0002:0000c408       ??_C@_0BF@DKFPPBMJ@models?1w_9mmclip?4mdl?$AA@ 1006c408     egon.obj
 0002:0000c420       ??_C@_0BG@GNOKKFEK@weapons?1egon_off1?4wav?$AA@ 1006c420     egon.obj
 0002:0000c438       ??_C@_0BG@LMHGNJMI@weapons?1egon_run3?4wav?$AA@ 1006c438     egon.obj
 0002:0000c450       ??_C@_0BJ@NFFGKILH@weapons?1egon_windup2?4wav?$AA@ 1006c450     egon.obj
 0002:0000c46c       ??_C@_0BD@HKPCEFMJ@sprites?1xbeam1?4spr?$AA@ 1006c46c     egon.obj
 0002:0000c480       ??_C@_0BE@MOJFMDGH@sprites?1XSpark1?4spr?$AA@ 1006c480     egon.obj
 0002:0000c494       ??_C@_0BG@FDJOBCGH@weapons?1357_cock1?4wav?$AA@ 1006c494     egon.obj
 0002:0000c4ac       ??_C@_0BE@OCHJNNC@events?1egon_fire?4sc?$AA@ 1006c4ac     egon.obj
 0002:0000c4c0       ??_C@_0BE@CLDNFGCE@events?1egon_stop?4sc?$AA@ 1006c4c0     egon.obj
 0002:0000c4d4       ??_C@_07CEHHGMGL@uranium?$AA@ 1006c4d4     egon.obj
 0002:0000c4e4       ??_7CEgonAmmo@@6B@         1006c4e4     egon.obj
 0002:0000c5cc       ??_C@_0BH@JDOFNLCI@models?1w_chainammo?4mdl?$AA@ 1006c5cc     egon.obj
 0002:0000c5e4       __real@45000000            1006c5e4     egon.obj
 0002:0000c5e8       ??_C@_0BB@MNLIPNHB@debris?1wood1?4wav?$AA@ 1006c5e8     ev_hldm.obj
 0002:0000c5fc       ??_C@_0BB@ELCMIPNP@debris?1wood2?4wav?$AA@ 1006c5fc     ev_hldm.obj
 0002:0000c610       ??_C@_0BB@IAHAFMHK@debris?1wood3?4wav?$AA@ 1006c610     ev_hldm.obj
 0002:0000c624       ??_C@_0BC@NNNLHPFN@debris?1glass1?4wav?$AA@ 1006c624     ev_hldm.obj
 0002:0000c638       ??_C@_0BC@FLEPANPD@debris?1glass2?4wav?$AA@ 1006c638     ev_hldm.obj
 0002:0000c64c       ??_C@_0BC@JABDNOFG@debris?1glass3?4wav?$AA@ 1006c64c     ev_hldm.obj
 0002:0000c660       ??_C@_0BI@EOPFENC@weapons?1bullet_hit1?4wav?$AA@ 1006c660     ev_hldm.obj
 0002:0000c678       ??_C@_0BI@ICHLCGHM@weapons?1bullet_hit2?4wav?$AA@ 1006c678     ev_hldm.obj
 0002:0000c690       ??_C@_08BIMMDEGO@?$HLbreak?$CFi?$AA@ 1006c690     ev_hldm.obj
 0002:0000c69c       ??_C@_08KBGMNKJH@?$HLbproof1?$AA@ 1006c69c     ev_hldm.obj
 0002:0000c6a8       ??_C@_07CHEGGJGD@?$HLshot?$CFi?$AA@ 1006c6a8     ev_hldm.obj
 0002:0000c6b0       ??_C@_0BB@MNBCLJOD@weapons?1ric1?4wav?$AA@ 1006c6b0     ev_hldm.obj
 0002:0000c6c4       ??_C@_0BB@ELIGMLEN@weapons?1ric2?4wav?$AA@ 1006c6c4     ev_hldm.obj
 0002:0000c6d8       ??_C@_0BB@IANKBIOI@weapons?1ric3?4wav?$AA@ 1006c6d8     ev_hldm.obj
 0002:0000c6ec       ??_C@_0BB@JNNPCIFA@weapons?1ric4?4wav?$AA@ 1006c6ec     ev_hldm.obj
 0002:0000c700       ??_C@_0BB@FGIDPLPF@weapons?1ric5?4wav?$AA@ 1006c700     ev_hldm.obj
 0002:0000c714       ??_C@_08HELCJCPN@r_decals?$AA@ 1006c714     ev_hldm.obj
 0002:0000c720       ??_C@_0BB@JCOADJDD@models?1shell?4mdl?$AA@ 1006c720     ev_hldm.obj
 0002:0000c734       ??_C@_0BE@PGEGJOCD@weapons?1pl_gun3?4wav?$AA@ 1006c734     ev_hldm.obj
 0002:0000c748       ??_C@_0BF@GKIOMMD@opengg_aim_whitelist?$AA@ 1006c748     ev_hldm.obj
 0002:0000c760       ??_C@_0BI@IGNLAKKI@models?1shotgunshell?4mdl?$AA@ 1006c760     ev_hldm.obj
 0002:0000c778       ??_C@_0BF@LKOOJEPL@weapons?1dbarrel1?4wav?$AA@ 1006c778     ev_hldm.obj
 0002:0000c790       ??_C@_0BF@HDJKDEHJ@weapons?1sbarrel1?4wav?$AA@ 1006c790     ev_hldm.obj
 0002:0000c7a8       ??_C@_0BB@NBAHOKLP@weapons?1hks1?4wav?$AA@ 1006c7a8     ev_hldm.obj
 0002:0000c7bc       ??_C@_0BB@FHJDJIBB@weapons?1hks2?4wav?$AA@ 1006c7bc     ev_hldm.obj
 0002:0000c7d0       ??_C@_0BG@MDAACEKK@weapons?1glauncher?4wav?$AA@ 1006c7d0     ev_hldm.obj
 0002:0000c7e8       ??_C@_0BH@GCKJEGEO@weapons?1glauncher2?4wav?$AA@ 1006c7e8     ev_hldm.obj
 0002:0000c800       ??_C@_0BG@NGGIAHCO@weapons?1357_shot1?4wav?$AA@ 1006c800     ev_hldm.obj
 0002:0000c818       ??_C@_0BG@FAPMHFIA@weapons?1357_shot2?4wav?$AA@ 1006c818     ev_hldm.obj
 0002:0000c830       ??_C@_0BK@JCOECDPO@ambience?1pulsemachine?4wav?$AA@ 1006c830     ev_hldm.obj
 0002:0000c84c       ??_C@_0BE@KDFGEPMC@events?1gaussspin?4sc?$AA@ 1006c84c     ev_hldm.obj
 0002:0000c860       ??_C@_0BC@DDAJIPKB@sprites?1smoke?4spr?$AA@ 1006c860     ev_hldm.obj
 0002:0000c874       ??_C@_0BE@MGECBLDD@sprites?1hotglow?4spr?$AA@ 1006c874     ev_hldm.obj
 0002:0000c888       ??_C@_0BD@PAACHEDB@weapons?1gauss2?4wav?$AA@ 1006c888     ev_hldm.obj
 0002:0000c89c       ??_C@_0BJ@KHGAHBFE@weapons?1xbow_hitbod1?4wav?$AA@ 1006c89c     ev_hldm.obj
 0002:0000c8b8       ??_C@_0BJ@CBPEADPK@weapons?1xbow_hitbod2?4wav?$AA@ 1006c8b8     ev_hldm.obj
 0002:0000c8d4       ??_C@_0BG@DJDGFCKC@weapons?1xbow_hit1?4wav?$AA@ 1006c8d4     ev_hldm.obj
 0002:0000c8ec       ??_C@_0BJ@LNJGAJBE@models?1crossbow_bolt?4mdl?$AA@ 1006c8ec     ev_hldm.obj
 0002:0000c908       ??_C@_0BI@IJKHDNAN@weapons?1rocketfire1?4wav?$AA@ 1006c908     ev_hldm.obj
 0002:0000c920       ??_C@_0BE@MBCKNAFB@agrunt?1ag_fire1?4wav?$AA@ 1006c920     ev_hldm.obj
 0002:0000c934       ??_C@_0BE@EHLOKCPP@agrunt?1ag_fire2?4wav?$AA@ 1006c934     ev_hldm.obj
 0002:0000c948       ??_C@_0BE@IMOCHBFK@agrunt?1ag_fire3?4wav?$AA@ 1006c948     ev_hldm.obj
 0002:0000c95c       ??_C@_0BC@BNAJEFJN@plats?1ttrain1?4wav?$AA@ 1006c95c     ev_hldm.obj
 0002:0000c970       ??_C@_0BC@JLJNDHDD@plats?1ttrain2?4wav?$AA@ 1006c970     ev_hldm.obj
 0002:0000c984       ??_C@_0BC@FAMBOEJG@plats?1ttrain3?4wav?$AA@ 1006c984     ev_hldm.obj
 0002:0000c998       ??_C@_0BC@ENMENECO@plats?1ttrain4?4wav?$AA@ 1006c998     ev_hldm.obj
 0002:0000c9ac       ??_C@_0BC@MHFCF@plats?1ttrain6?4wav?$AA@ 1006c9ac     ev_hldm.obj
 0002:0000c9c0       ??_C@_0BC@MLFAKGIA@plats?1ttrain7?4wav?$AA@ 1006c9c0     ev_hldm.obj
 0002:0000c9d8       __real@3f647ae147ae147b    1006c9d8     ev_hldm.obj
 0002:0000c9e0       __real@4044000000000000    1006c9e0     ev_hldm.obj
 0002:0000c9e8       __real@4060000000000000    1006c9e8     ev_hldm.obj
 0002:0000c9f0       __real@c1900000            1006c9f0     ev_hldm.obj
 0002:0000c9fc       ??_7CGauss@@6B@            1006c9fc     gauss.obj
 0002:0000cb64       ??_C@_0BD@GIMAIMBE@models?1w_gauss?4mdl?$AA@ 1006cb64     gauss.obj
 0002:0000cb78       ??_C@_0BF@JCLNMNKC@weapons?1electro4?4wav?$AA@ 1006cb78     gauss.obj
 0002:0000cb90       ??_C@_0BF@FJOBBOAH@weapons?1electro5?4wav?$AA@ 1006cb90     gauss.obj
 0002:0000cba8       ??_C@_0BF@NPHFGMKJ@weapons?1electro6?4wav?$AA@ 1006cba8     gauss.obj
 0002:0000cbc0       ??_C@_0BA@IHBGGLDP@events?1gauss?4sc?$AA@ 1006cbc0     gauss.obj
 0002:0000cbd0       ??_C@_0BA@MLDPHLJB@sound?5state?5?$CFd?6?$AA@ 1006cbd0     gauss.obj
 0002:0000cbe4       ??_7CGaussAmmo@@6B@        1006cbe4     gauss.obj
 0002:0000cccc       ??_C@_0BH@JMMLBOEP@models?1w_gaussammo?4mdl?$AA@ 1006cccc     gauss.obj
 0002:0000cce8       __real@3fc3333333333333    1006cce8     gauss.obj
 0002:0000ccf0       __real@447a0000            1006ccf0     gauss.obj
 0002:0000ccfc       ??_7CHandGrenade@@6B@      1006ccfc     handgrenade.obj
 0002:0000ce64       ??_C@_0BF@JJEKAIEM@models?1w_grenade?4mdl?$AA@ 1006ce64     handgrenade.obj
 0002:0000ce7c       ??_C@_0N@OPHHBAA@Hand?5Grenade?$AA@ 1006ce7c     handgrenade.obj
 0002:0000ce8c       ??_C@_0BA@HKOJACLM@common?1null?4wav?$AA@ 1006ce8c     handgrenade.obj
 0002:0000cea0       __real@3fec71c71c71c71c    1006cea0     handgrenade.obj
 0002:0000cea8       __real@3ff1c71c71c71c72    1006cea8     handgrenade.obj
 0002:0000ceb0       ??_C@_0BB@KLKPKBOC@events?1glock1?4sc?$AA@ 1006ceb0     hl_events.obj
 0002:0000cec4       ??_C@_0BB@OMAPNLDC@events?1glock2?4sc?$AA@ 1006cec4     hl_events.obj
 0002:0000ced8       ??_C@_0BD@BGGAIOL@events?1shotgun1?4sc?$AA@ 1006ced8     hl_events.obj
 0002:0000ceec       ??_C@_0BD@EGMGHCDL@events?1shotgun2?4sc?$AA@ 1006ceec     hl_events.obj
 0002:0000cf00       ??_C@_0O@EIKKOJHJ@events?1mp5?4sc?$AA@ 1006cf00     hl_events.obj
 0002:0000cf10       ??_C@_0P@OHBAFFJJ@events?1mp52?4sc?$AA@ 1006cf10     hl_events.obj
 0002:0000cf20       ??_C@_0BB@IKIOFPMG@events?1python?4sc?$AA@ 1006cf20     hl_events.obj
 0002:0000cf34       ??_C@_0BA@EJMDOJFA@events?1train?4sc?$AA@ 1006cf34     hl_events.obj
 0002:0000cf44       ??_C@_0O@JLOPJJPF@events?1rpg?4sc?$AA@ 1006cf44     hl_events.obj
 0002:0000cf54       ??_C@_0BF@OBNDLJIE@events?1firehornet?4sc?$AA@ 1006cf54     hl_events.obj
 0002:0000cf6c       ??_C@_0BD@LMAGABKP@events?1tripfire?4sc?$AA@ 1006cf6c     hl_events.obj
 0002:0000cf80       ??_C@_0BE@JLFFAFPK@events?1snarkfire?4sc?$AA@ 1006cf80     hl_events.obj
 0002:0000cf9c       ??_7CBaseMonster@@6B@      1006cf9c     hl_weapons.obj
 0002:0000d194       ??_7CGlock@@6B@            1006d194     hl_weapons.obj
 0002:0000d304       ??_7CPython@@6B@           1006d304     hl_weapons.obj
 0002:0000d474       ??_7CMP5@@6B@              1006d474     hl_weapons.obj
 0002:0000d5e4       ??_7CShotgun@@6B@          1006d5e4     hl_weapons.obj
 0002:0000d754       ??_7CRpg@@6B@              1006d754     hl_weapons.obj
 0002:0000d8c4       ??_7CHgun@@6B@             1006d8c4     hl_weapons.obj
 0002:0000da34       ??_7CSatchel@@6B@          1006da34     hl_weapons.obj
 0002:0000dba4       ??_7CTripmine@@6B@         1006dba4     hl_weapons.obj
 0002:0000dd14       ??_7CSqueak@@6B@           1006dd14     hl_weapons.obj
 0002:0000de84       ??_7CBasePlayer@@6B@       1006de84     hl_weapons.obj
 0002:0000e090       ??_C@_05KOMAMDGD@cl?3?5?5?$AA@ 1006e090     hl_weapons.obj
 0002:0000e098       __real@44440000            1006e098     hl_weapons.obj
 0002:0000e0a0       __real@bf50624dd2f1a9fc    1006e0a0     hl_weapons.obj
 0002:0000e0a8       ??_C@_0BC@GDALAHJA@weapon_9mmhandgun?$AA@ 1006e0a8     hl_wpn_glock.obj
 0002:0000e0bc       ??_C@_0BI@GPGKJLMI@models?1w_9mmhandgun?4mdl?$AA@ 1006e0bc     hl_wpn_glock.obj
 0002:0000e0d4       ??_C@_0BD@JGKIFNHP@items?19mmclip2?4wav?$AA@ 1006e0d4     hl_wpn_glock.obj
 0002:0000e0e8       ??_C@_0BE@LLIODPCI@weapons?1pl_gun1?4wav?$AA@ 1006e0e8     hl_wpn_glock.obj
 0002:0000e0fc       ??_C@_0BE@DNBKENIG@weapons?1pl_gun2?4wav?$AA@ 1006e0fc     hl_wpn_glock.obj
 0002:0000e110       ??_C@_03MDMENKFB@9mm?$AA@  1006e110     hl_wpn_glock.obj
 0002:0000e114       ??_C@_09JGAJOMPA@onehanded?$AA@ 1006e114     hl_wpn_glock.obj
 0002:0000e124       ??_7CGlockAmmo@@6B@        1006e124     hl_wpn_glock.obj
 0002:0000e210       __real@4008800000000000    1006e210     hl_wpn_glock.obj
 0002:0000e218       __real@400e000000000000    1006e218     hl_wpn_glock.obj
 0002:0000e220       ??_C@_0BC@HBIPFLJM@models?1w_hgun?4mdl?$AA@ 1006e220     hornetgun.obj
 0002:0000e234       ??_C@_06HOMMBJCK@hornet?$AA@ 1006e234     hornetgun.obj
 0002:0000e23c       ??_C@_07CGKBENKM@Hornets?$AA@ 1006e23c     hornetgun.obj
 0002:0000e244       ??_C@_04JOEHAHOH@hive?$AA@ 1006e244     hornetgun.obj
 0002:0000e250       __real@3fec000000000000    1006e250     hornetgun.obj
 0002:0000e258       __real@4001800000000000    1006e258     hornetgun.obj
 0002:0000e260       ??_C@_0N@BIGGDBN@weapon_9mmAR?$AA@ 1006e260     mp5.obj
 0002:0000e270       ??_C@_0BD@HFHLIBIN@models?1w_9mmAR?4mdl?$AA@ 1006e270     mp5.obj
 0002:0000e284       ??_C@_0BD@HNJLMAMD@models?1grenade?4mdl?$AA@ 1006e284     mp5.obj
 0002:0000e298       ??_C@_0BH@NEPPIENN@models?1w_9mmARclip?4mdl?$AA@ 1006e298     mp5.obj
 0002:0000e2b0       ??_C@_0BG@KAENKJBD@items?1clipinsert1?4wav?$AA@ 1006e2b0     mp5.obj
 0002:0000e2c8       ??_C@_0BH@BKDEFDG@items?1cliprelease1?4wav?$AA@ 1006e2c8     mp5.obj
 0002:0000e2e0       ??_C@_0BB@JMMPELLE@weapons?1hks3?4wav?$AA@ 1006e2e0     mp5.obj
 0002:0000e2f4       ??_C@_0L@FJEALEPG@ARgrenades?$AA@ 1006e2f4     mp5.obj
 0002:0000e300       ??_C@_03OBDHKFNL@mp5?$AA@  1006e300     mp5.obj
 0002:0000e30c       ??_7CMP5AmmoClip@@6B@      1006e30c     mp5.obj
 0002:0000e3fc       ??_7CMP5Chainammo@@6B@     1006e3fc     mp5.obj
 0002:0000e4ec       ??_7CMP5AmmoGrenade@@6B@   1006e4ec     mp5.obj
 0002:0000e5d4       ??_C@_0BH@KENGENOH@models?1w_ARgrenade?4mdl?$AA@ 1006e5d4     mp5.obj
 0002:0000e5ec       __real@44480000            1006e5ec     mp5.obj
 0002:0000e5f0       ??_C@_03IOICPAOD@357?$AA@  1006e5f0     python.obj
 0002:0000e5f4       ??_C@_0L@DGJNBIBM@weapon_357?$AA@ 1006e5f4     python.obj
 0002:0000e600       ??_C@_0BB@JCBGJKED@models?1w_357?4mdl?$AA@ 1006e600     python.obj
 0002:0000e614       ??_C@_0BI@IPPCMDMI@models?1w_357ammobox?4mdl?$AA@ 1006e614     python.obj
 0002:0000e62c       ??_C@_0BI@DOMDMLDK@weapons?1357_reload1?4wav?$AA@ 1006e62c     python.obj
 0002:0000e644       ??_C@_06OIODPPHE@python?$AA@ 1006e644     python.obj
 0002:0000e654       ??_7CPythonAmmo@@6B@       1006e654     python.obj
 0002:0000e73c       ??_C@_0BB@GNJMAKBJ@models?1w_rpg?4mdl?$AA@ 1006e73c     rpg.obj
 0002:0000e750       ??_C@_0L@PKAMAFCB@laser_spot?$AA@ 1006e750     rpg.obj
 0002:0000e75c       ??_C@_0L@MFNEJJJF@rpg_rocket?$AA@ 1006e75c     rpg.obj
 0002:0000e768       ??_C@_07DCMGFMFH@rockets?$AA@ 1006e768     rpg.obj
 0002:0000e770       ??_C@_03GBMANNME@rpg?$AA@  1006e770     rpg.obj
 0002:0000e77c       ??_7CRpgAmmo@@6B@          1006e77c     rpg.obj
 0002:0000e864       ??_C@_0BF@ONHNEHHH@models?1w_rpgammo?4mdl?$AA@ 1006e864     rpg.obj
 0002:0000e880       __real@4018000000000000    1006e880     rpg.obj
 0002:0000e88c       ??_7CSatchelCharge@@6B@    1006e88c     satchel.obj
 0002:0000ea84       ??_C@_0BF@GFEDAND@models?1w_satchel?4mdl?$AA@ 1006ea84     satchel.obj
 0002:0000ea9c       ??_C@_0BG@LINDBCCI@weapons?1g_bounce1?4wav?$AA@ 1006ea9c     satchel.obj
 0002:0000eab4       ??_C@_0BG@DOEHGAIG@weapons?1g_bounce2?4wav?$AA@ 1006eab4     satchel.obj
 0002:0000eacc       ??_C@_0BG@PFBLLDCD@weapons?1g_bounce3?4wav?$AA@ 1006eacc     satchel.obj
 0002:0000eae4       ??_C@_0BA@BEOAANPO@monster_satchel?$AA@ 1006eae4     satchel.obj
 0002:0000eaf4       ??_C@_0P@LMFBIKDH@Satchel?5Charge?$AA@ 1006eaf4     satchel.obj
 0002:0000eb04       ??_C@_04JMIAKPKD@trip?$AA@ 1006eb04     satchel.obj
 0002:0000eb0c       ??_C@_0BF@JJMAHEJI@models?1w_shotgun?4mdl?$AA@ 1006eb0c     shotgun.obj
 0002:0000eb24       ??_C@_0BE@EIGFGEIO@weapons?1reload1?4wav?$AA@ 1006eb24     shotgun.obj
 0002:0000eb38       ??_C@_0BE@FKNMFIF@weapons?1reload3?4wav?$AA@ 1006eb38     shotgun.obj
 0002:0000eb4c       ??_C@_0BD@HNCIEKIG@weapons?1scock1?4wav?$AA@ 1006eb4c     shotgun.obj
 0002:0000eb60       ??_C@_08BPIGABHK@buckshot?$AA@ 1006eb60     shotgun.obj
 0002:0000eb6c       ??_C@_07PKBOGMMP@shotgun?$AA@ 1006eb6c     shotgun.obj
 0002:0000eb7c       ??_7CShotgunAmmo@@6B@      1006eb7c     shotgun.obj
 0002:0000ec64       ??_C@_0BF@MHABFIPK@models?1w_shotbox?4mdl?$AA@ 1006ec64     shotgun.obj
 0002:0000ec80       __real@3fee666666666666    1006ec80     shotgun.obj
 0002:0000ec88       __real@4001c71c71c71c72    1006ec88     shotgun.obj
 0002:0000ec90       ??_C@_0BF@PPMGPFPJ@models?1w_sqknest?4mdl?$AA@ 1006ec90     squeakgrenade.obj
 0002:0000eca8       ??_C@_0BF@CNBHEBPJ@squeek?1sqk_hunt2?4wav?$AA@ 1006eca8     squeakgrenade.obj
 0002:0000ecc0       ??_C@_0BF@OGELJCFM@squeek?1sqk_hunt3?4wav?$AA@ 1006ecc0     squeakgrenade.obj
 0002:0000ecd8       ??_C@_0O@LBKPDLAI@monster_snark?$AA@ 1006ecd8     squeakgrenade.obj
 0002:0000ece8       ??_C@_06GHKEIFJP@Snarks?$AA@ 1006ece8     squeakgrenade.obj
 0002:0000ecf0       ??_C@_06INLLEPKG@squeak?$AA@ 1006ecf0     squeakgrenade.obj
 0002:0000ecf8       __real@4011800000000000    1006ecf8     squeakgrenade.obj
 0002:0000ed00       ??_C@_0BB@NGDHJCGI@monster_tripmine?$AA@ 1006ed00     tripmine.obj
 0002:0000ed14       ??_C@_09OKDBGJNM@Trip?5Mine?$AA@ 1006ed14     tripmine.obj
 0002:0000ed20       __real@400aaaaaaaaaaaab    1006ed20     tripmine.obj
 0002:0000ed2c       ??_7FooDefaultScrollBarIntChangeSignal@?A0xd2ac09cc@@6B@ 1006ed2c     vgui_scrollbar2.obj
 0002:0000ed34       ??_7FooDefaultButtonSignal@?A0xd2ac09cc@@6B@ 1006ed34     vgui_scrollbar2.obj
 0002:0000ed3c       ??_7ScrollBarButton@@6B@   1006ed3c     vgui_scrollbar2.obj
 0002:0000ef9c       ??_C@_0BF@JNMIAEIN@gfx?1vgui?1arrowup?4tga?$AA@ 1006ef9c     vgui_scrollbar2.obj
 0002:0000efb4       ??_C@_0BH@IADKFNCN@gfx?1vgui?1arrowdown?4tga?$AA@ 1006efb4     vgui_scrollbar2.obj
 0002:0000efcc       ??_C@_0BJ@MEEIEHLG@gfx?1vgui?1320_arrowlt?4tga?$AA@ 1006efcc     vgui_scrollbar2.obj
 0002:0000efe8       ??_C@_0BJ@PDKJKACF@gfx?1vgui?1320_arrowrt?4tga?$AA@ 1006efe8     vgui_scrollbar2.obj
 0002:0000f008       ??_7FooDefaultSliderSignal@?A0x911bd135@@6B@ 1006f008     vgui_slider2.obj
 0002:0000f034       ??_C@_0N@IGAEJEAO@voice_ban?4dt?$AA@ 1006f034     voice_banmgr.obj
 0002:0000f044       ??_C@_02JDPG@rb?$AA@       1006f044     voice_banmgr.obj
 0002:0000f048       ??_C@_02GMLFBBN@wb?$AA@    1006f048     voice_banmgr.obj
 0002:0000f050       ??_7CVoiceStatus@@6BCHudBase@@@ 1006f050     voice_status.obj
 0002:0000f074       ??_7CVoiceStatus@@6BCDefaultInputSignal@vgui@@@ 1006f074     voice_status.obj
 0002:0000f0a0       ??_C@_0DK@MBNLMJIM@Ban?5?$CFd?3?5?$CF2x?$CF2x?$CF2x?$CF2x?$CF2x?$CF2x?$CF2x?$CF2x@ 1006f0a0     voice_status.obj
 0002:0000f0dc       ??_C@_0CA@KKJEGLKK@?9?9?9?9?9?9?9?5BANNED?5PLAYERS?5?9?9?9?9?9?9?9?6?$AA@ 1006f0dc     voice_status.obj
 0002:0000f0fc       ??_C@_0CA@DNPGIGAF@?9?9?9?9?9?9?9?9?9?9?9?9?9?9?9?9?9?9?9?9?9?9?9?9?9?9?9?9?9?9?6?$AA@ 1006f0fc     voice_status.obj
 0002:0000f11c       ??_C@_0BA@DHCILCGF@voice_modenable?$AA@ 1006f11c     voice_status.obj
 0002:0000f12c       ??_C@_0BC@LDDGBJKC@voice_clientdebug?$AA@ 1006f12c     voice_status.obj
 0002:0000f140       ??_C@_0BB@DGLAAAAH@voice_showbanned?$AA@ 1006f140     voice_status.obj
 0002:0000f154       ??_C@_09PFCBDEAJ@VoiceMask?$AA@ 1006f154     voice_status.obj
 0002:0000f160       ??_C@_08NJOGAELP@ReqState?$AA@ 1006f160     voice_status.obj
 0002:0000f16c       ??_C@_0BH@FDGCKGIA@gfx?1vgui?1icntlk_pl?4tga?$AA@ 1006f16c     voice_status.obj
 0002:0000f184       ??_C@_0BH@MAMHJNOA@gfx?1vgui?1icntlk_sv?4tga?$AA@ 1006f184     voice_status.obj
 0002:0000f19c       ??_C@_0BG@HJAJOCLJ@gfx?1vgui?1speaker4?4tga?$AA@ 1006f19c     voice_status.obj
 0002:0000f1b4       ??_C@_0BK@KIBCJBBG@gfx?1vgui?1640_speaker1?4tga?$AA@ 1006f1b4     voice_status.obj
 0002:0000f1d0       ??_C@_0BK@COIGODLI@gfx?1vgui?1640_speaker2?4tga?$AA@ 1006f1d0     voice_status.obj
 0002:0000f1ec       ??_C@_0BK@OFNKDABN@gfx?1vgui?1640_speaker3?4tga?$AA@ 1006f1ec     voice_status.obj
 0002:0000f208       ??_C@_0BK@PINPAAKF@gfx?1vgui?1640_speaker4?4tga?$AA@ 1006f208     voice_status.obj
 0002:0000f224       ??_C@_0BM@GOBADGIG@gfx?1vgui?1icntlk_squelch?4tga?$AA@ 1006f224     voice_status.obj
 0002:0000f240       ??_C@_0BO@CCEHIDEF@gfx?1vgui?1640_voiceblocked?4tga?$AA@ 1006f240     voice_status.obj
 0002:0000f260       ??_C@_0BH@FOALOBCJ@scripts?1voicemodel?4txt?$AA@ 1006f260     voice_status.obj
 0002:0000f278       ??_C@_0BG@KNOEPLBA@sprites?1voiceicon?4spr?$AA@ 1006f278     voice_status.obj
 0002:0000f290       ??_C@_0DI@GFLCHOPF@CVoiceStatus?3?3UpdateSpeakerStatu@ 1006f290     voice_status.obj
 0002:0000f2c8       ??_C@_0BC@MDPFDLDI@voice_modenable?51?$AA@ 1006f2c8     voice_status.obj
 0002:0000f2dc       ??_C@_05KKNFJNLK@?$CFs?5?5?5?$AA@ 1006f2dc     voice_status.obj
 0002:0000f2e4       ??_C@_0DD@NJIBJCAE@CVoiceStatus?3?3UpdateServerState?3@ 1006f2e4     voice_status.obj
 0002:0000f318       ??_C@_0O@OMHMDILE@VModEnable?5?$CFd?$AA@ 1006f318     voice_status.obj
 0002:0000f328       ??_C@_0CP@OGGINCOB@CVoiceStatus?3?3UpdateServerState?3@ 1006f328     voice_status.obj
 0002:0000f358       ??_C@_04GMALMFDL@vban?$AA@ 1006f358     voice_status.obj
 0002:0000f360       ??_C@_03KHOJPICI@?5?$CFx?$AA@ 1006f360     voice_status.obj
 0002:0000f364       ??_C@_0CM@CGPNFHBP@CVoiceStatus?3?3UpdateServerState?3@ 1006f364     voice_status.obj
 0002:0000f390       ??_C@_0CC@CIKFIILH@CVoiceStatus?3?3HandleVoiceMaskMsg@ 1006f390     voice_status.obj
 0002:0000f3b4       ??_C@_0CC@MIMDBPGE@?5?5?5?5?9?5m_AudiblePlayers?$FL?$CFd?$FN?5?$DN?5?$CFlu@ 1006f3b4     voice_status.obj
 0002:0000f3d8       ??_C@_0CH@BHLPPPPI@?5?5?5?5?9?5m_ServerBannedPlayers?$FL?$CFd?$FN?5@ 1006f3d8     voice_status.obj
 0002:0000f400       ??_C@_0CB@HBKPNNND@CVoiceStatus?3?3HandleReqStateMsg?6@ 1006f400     voice_status.obj
 0002:0000f424       ??_C@_0CM@BKBJMJKG@CVoiceStatus?3?3SetPlayerBlockedSt@ 1006f424     voice_status.obj
 0002:0000f450       ??_C@_0CM@BIFPHHPP@CVoiceStatus?3?3SetPlayerBlockedSt@ 1006f450     voice_status.obj
 0002:0000f480       ??_C@_0EC@HBDPNNJ@CVoiceStatus?3?3SetPlayerBlockedSt@ 1006f480     voice_status.obj
 0002:0000f4c4       __real@42340000            1006f4c4     voice_status.obj
 0002:0000f4cc       ??_7bad_alloc@std@@6B@     1006f4cc     LIBCMT:new.obj
 0002:0000f4d4       ??_C@_0P@GHFPNOJB@bad?5allocation?$AA@ 1006f4d4     LIBCMT:new.obj
 0002:0000f4e4       ??_C@_1BI@BGOHAHKC@?$AAm?$AAs?$AAc?$AAo?$AAr?$AAe?$AAe?$AA?4?$AAd?$AAl?$AAl?$AA?$AA@ 1006f4e4     LIBCMT:crt0dat.obj
 0002:0000f4fc       ??_C@_0P@MIGLKIOC@CorExitProcess?$AA@ 1006f4fc     LIBCMT:crt0dat.obj
 0002:0000f510       ??_7type_info@@6B@         1006f510     LIBCMT:typinfo.obj
 0002:0000f514       __FPinit                   1006f514     LIBCMT:fpinit.obj
 0002:000157e0       ??_C@_07CFPBBAOO@COMSPEC?$AA@ 100757e0     LIBCMT:system.obj
 0002:000157e8       ??_C@_02HNHPBPFE@?1c?$AA@  100757e8     LIBCMT:system.obj
 0002:000157ec       ??_C@_07INNMNHPJ@cmd?4exe?$AA@ 100757ec     LIBCMT:system.obj
 0002:00015800       __OP_FMODjmptab            10075800     LIBCMT:87fmod.obj
 0002:00015850       __pRawDllMain              10075850     LIBCMT:dllcrt0.obj
 0002:00015850       __pDefaultRawDllMain       10075850     LIBCMT:dllcrt0.obj
 0002:00015910       ??_C@_1FK@PGACCAFB@?$AAR?$AA6?$AA0?$AA0?$AA2?$AA?$AN?$AA?6?$AA?9?$AA?5?$AAf?$AAl?$AAo?$AAa?$AAt?$AAi?$AAn?$AAg?$AA?5?$AAp?$AAo?$AAi?$AAn?$AAt?$AA?5?$AAs?$AAu?$AAp?$AAp?$AAo?$AAr?$AAt?$AA?5@ 10075910     LIBCMT:crt0msg.obj
 0002:00015970       ??_C@_1FE@LLNEDJMD@?$AAR?$AA6?$AA0?$AA0?$AA8?$AA?$AN?$AA?6?$AA?9?$AA?5?$AAn?$AAo?$AAt?$AA?5?$AAe?$AAn?$AAo?$AAu?$AAg?$AAh?$AA?5?$AAs?$AAp?$AAa?$AAc?$AAe?$AA?5?$AAf?$AAo?$AAr?$AA?5?$AAa?$AAr@ 10075970     LIBCMT:crt0msg.obj
 0002:000159c8       ??_C@_1FI@HONFMGBI@?$AAR?$AA6?$AA0?$AA0?$AA9?$AA?$AN?$AA?6?$AA?9?$AA?5?$AAn?$AAo?$AAt?$AA?5?$AAe?$AAn?$AAo?$AAu?$AAg?$AAh?$AA?5?$AAs?$AAp?$AAa?$AAc?$AAe?$AA?5?$AAf?$AAo?$AAr?$AA?5?$AAe?$AAn@ 100759c8     LIBCMT:crt0msg.obj
 0002:00015a20       ??_C@_1EG@BEHAGFJD@?$AAR?$AA6?$AA0?$AA1?$AA0?$AA?$AN?$AA?6?$AA?9?$AA?5?$AAa?$AAb?$AAo?$AAr?$AAt?$AA?$CI?$AA?$CJ?$AA?5?$AAh?$AAa?$AAs?$AA?5?$AAb?$AAe?$AAe?$AAn?$AA?5?$AAc?$AAa?$AAl?$AAl?$AAe?$AAd@ 10075a20     LIBCMT:crt0msg.obj
 0002:00015a68       ??_C@_1FI@LOGNIKDM@?$AAR?$AA6?$AA0?$AA1?$AA6?$AA?$AN?$AA?6?$AA?9?$AA?5?$AAn?$AAo?$AAt?$AA?5?$AAe?$AAn?$AAo?$AAu?$AAg?$AAh?$AA?5?$AAs?$AAp?$AAa?$AAc?$AAe?$AA?5?$AAf?$AAo?$AAr?$AA?5?$AAt?$AAh@ 10075a68     LIBCMT:crt0msg.obj
 0002:00015ac0       ??_C@_1FK@BEOGODMC@?$AAR?$AA6?$AA0?$AA1?$AA7?$AA?$AN?$AA?6?$AA?9?$AA?5?$AAu?$AAn?$AAe?$AAx?$AAp?$AAe?$AAc?$AAt?$AAe?$AAd?$AA?5?$AAm?$AAu?$AAl?$AAt?$AAi?$AAt?$AAh?$AAr?$AAe?$AAa?$AAd?$AA?5@ 10075ac0     LIBCMT:crt0msg.obj
 0002:00015b20       ??_C@_1EC@JIBHAOPH@?$AAR?$AA6?$AA0?$AA1?$AA8?$AA?$AN?$AA?6?$AA?9?$AA?5?$AAu?$AAn?$AAe?$AAx?$AAp?$AAe?$AAc?$AAt?$AAe?$AAd?$AA?5?$AAh?$AAe?$AAa?$AAp?$AA?5?$AAe?$AAr?$AAr?$AAo?$AAr?$AA?$AN?$AA?6@ 10075b20     LIBCMT:crt0msg.obj
 0002:00015b68       ??_C@_1FC@ECHBIFBC@?$AAR?$AA6?$AA0?$AA1?$AA9?$AA?$AN?$AA?6?$AA?9?$AA?5?$AAu?$AAn?$AAa?$AAb?$AAl?$AAe?$AA?5?$AAt?$AAo?$AA?5?$AAo?$AAp?$AAe?$AAn?$AA?5?$AAc?$AAo?$AAn?$AAs?$AAo?$AAl?$AAe?$AA?5@ 10075b68     LIBCMT:crt0msg.obj
 0002:00015bc0       ??_C@_1GK@FHCKBEFA@?$AAR?$AA6?$AA0?$AA2?$AA4?$AA?$AN?$AA?6?$AA?9?$AA?5?$AAn?$AAo?$AAt?$AA?5?$AAe?$AAn?$AAo?$AAu?$AAg?$AAh?$AA?5?$AAs?$AAp?$AAa?$AAc?$AAe?$AA?5?$AAf?$AAo?$AAr?$AA?5?$AA_?$AAo@ 10075bc0     LIBCMT:crt0msg.obj
 0002:00015c30       ??_C@_1EM@MAADIHMB@?$AAR?$AA6?$AA0?$AA2?$AA5?$AA?$AN?$AA?6?$AA?9?$AA?5?$AAp?$AAu?$AAr?$AAe?$AA?5?$AAv?$AAi?$AAr?$AAt?$AAu?$AAa?$AAl?$AA?5?$AAf?$AAu?$AAn?$AAc?$AAt?$AAi?$AAo?$AAn?$AA?5?$AAc@ 10075c30     LIBCMT:crt0msg.obj
 0002:00015c80       ??_C@_1GK@MCAAGJMO@?$AAR?$AA6?$AA0?$AA2?$AA6?$AA?$AN?$AA?6?$AA?9?$AA?5?$AAn?$AAo?$AAt?$AA?5?$AAe?$AAn?$AAo?$AAu?$AAg?$AAh?$AA?5?$AAs?$AAp?$AAa?$AAc?$AAe?$AA?5?$AAf?$AAo?$AAr?$AA?5?$AAs?$AAt@ 10075c80     LIBCMT:crt0msg.obj
 0002:00015cf0       ??_C@_1GK@MFGOKLAG@?$AAR?$AA6?$AA0?$AA2?$AA7?$AA?$AN?$AA?6?$AA?9?$AA?5?$AAn?$AAo?$AAt?$AA?5?$AAe?$AAn?$AAo?$AAu?$AAg?$AAh?$AA?5?$AAs?$AAp?$AAa?$AAc?$AAe?$AA?5?$AAf?$AAo?$AAr?$AA?5?$AAl?$AAo@ 10075cf0     LIBCMT:crt0msg.obj
 0002:00015d60       ??_C@_1EK@HHFLMAOL@?$AAR?$AA6?$AA0?$AA2?$AA8?$AA?$AN?$AA?6?$AA?9?$AA?5?$AAu?$AAn?$AAa?$AAb?$AAl?$AAe?$AA?5?$AAt?$AAo?$AA?5?$AAi?$AAn?$AAi?$AAt?$AAi?$AAa?$AAl?$AAi?$AAz?$AAe?$AA?5?$AAh?$AAe@ 10075d60     LIBCMT:crt0msg.obj
 0002:00015dac       ??_C@_1DO@BMFCDCD@?$AAR?$AA6?$AA0?$AA3?$AA0?$AA?$AN?$AA?6?$AA?9?$AA?5?$AAC?$AAR?$AAT?$AA?5?$AAn?$AAo?$AAt?$AA?5?$AAi?$AAn?$AAi?$AAt?$AAi?$AAa?$AAl?$AAi?$AAz?$AAe?$AAd?$AA?$AN?$AA?6?$AA?$AA@ 10075dac     LIBCMT:crt0msg.obj
 0002:00015df0       ??_C@_1MG@ENCOOIDF@?$AAR?$AA6?$AA0?$AA3?$AA1?$AA?$AN?$AA?6?$AA?9?$AA?5?$AAA?$AAt?$AAt?$AAe?$AAm?$AAp?$AAt?$AA?5?$AAt?$AAo?$AA?5?$AAi?$AAn?$AAi?$AAt?$AAi?$AAa?$AAl?$AAi?$AAz?$AAe?$AA?5?$AAt@ 10075df0     LIBCMT:crt0msg.obj
 0002:00015eb8       ??_C@_1GG@GOPILAJP@?$AAR?$AA6?$AA0?$AA3?$AA2?$AA?$AN?$AA?6?$AA?9?$AA?5?$AAn?$AAo?$AAt?$AA?5?$AAe?$AAn?$AAo?$AAu?$AAg?$AAh?$AA?5?$AAs?$AAp?$AAa?$AAc?$AAe?$AA?5?$AAf?$AAo?$AAr?$AA?5?$AAl?$AAo@ 10075eb8     LIBCMT:crt0msg.obj
 0002:00015f20       ??_C@_1BOO@KGEDBGAJ@?$AAR?$AA6?$AA0?$AA3?$AA3?$AA?$AN?$AA?6?$AA?9?$AA?5?$AAA?$AAt?$AAt?$AAe?$AAm?$AAp?$AAt?$AA?5?$AAt?$AAo?$AA?5?$AAu?$AAs?$AAe?$AA?5?$AAM?$AAS?$AAI?$AAL?$AA?5?$AAc?$AAo?$AAd@ 10075f20     LIBCMT:crt0msg.obj
 0002:00016110       ??_C@_1GG@MKFPEKFO@?$AAR?$AA6?$AA0?$AA3?$AA4?$AA?$AN?$AA?6?$AA?9?$AA?5?$AAi?$AAn?$AAc?$AAo?$AAn?$AAs?$AAi?$AAs?$AAt?$AAe?$AAn?$AAt?$AA?5?$AAo?$AAn?$AAe?$AAx?$AAi?$AAt?$AA?5?$AAb?$AAe?$AAg@ 10076110     LIBCMT:crt0msg.obj
 0002:00016178       ??_C@_1BO@BFCDCGC@?$AAD?$AAO?$AAM?$AAA?$AAI?$AAN?$AA?5?$AAe?$AAr?$AAr?$AAo?$AAr?$AA?$AN?$AA?6?$AA?$AA@ 10076178     LIBCMT:crt0msg.obj
 0002:00016198       ??_C@_1BK@KMOMNAAI@?$AAS?$AAI?$AAN?$AAG?$AA?5?$AAe?$AAr?$AAr?$AAo?$AAr?$AA?$AN?$AA?6?$AA?$AA@ 10076198     LIBCMT:crt0msg.obj
 0002:000161b4       ??_C@_1BM@JBBEPPHI@?$AAT?$AAL?$AAO?$AAS?$AAS?$AA?5?$AAe?$AAr?$AAr?$AAo?$AAr?$AA?$AN?$AA?6?$AA?$AA@ 100761b4     LIBCMT:crt0msg.obj
 0002:000161d0       ??_C@_15JNBOKNOG@?$AA?$AN?$AA?6?$AA?$AA@ 100761d0     LIBCMT:crt0msg.obj
 0002:000161d8       ??_C@_1BO@BKOMIGKJ@?$AAr?$AAu?$AAn?$AAt?$AAi?$AAm?$AAe?$AA?5?$AAe?$AAr?$AAr?$AAo?$AAr?$AA?5?$AA?$AA@ 100761d8     LIBCMT:crt0msg.obj
 0002:000161f8       ??_C@_1DE@JNGNBFGO@?$AAR?$AAu?$AAn?$AAt?$AAi?$AAm?$AAe?$AA?5?$AAE?$AAr?$AAr?$AAo?$AAr?$AA?$CB?$AA?6?$AA?6?$AAP?$AAr?$AAo?$AAg?$AAr?$AAa?$AAm?$AA?3?$AA?5?$AA?$AA@ 100761f8     LIBCMT:crt0msg.obj
 0002:0001622c       ??_C@_1CO@EAEJAADC@?$AA?$DM?$AAp?$AAr?$AAo?$AAg?$AAr?$AAa?$AAm?$AA?5?$AAn?$AAa?$AAm?$AAe?$AA?5?$AAu?$AAn?$AAk?$AAn?$AAo?$AAw?$AAn?$AA?$DO?$AA?$AA@ 1007622c     LIBCMT:crt0msg.obj
 0002:0001625c       ??_C@_17LGKOMLJ@?$AA?4?$AA?4?$AA?4?$AA?$AA@ 1007625c     LIBCMT:crt0msg.obj
 0002:00016264       ??_C@_15IABLJNFO@?$AA?6?$AA?6?$AA?$AA@ 10076264     LIBCMT:crt0msg.obj
 0002:00016270       ??_C@_1EK@MBDPDCGA@?$AAM?$AAi?$AAc?$AAr?$AAo?$AAs?$AAo?$AAf?$AAt?$AA?5?$AAV?$AAi?$AAs?$AAu?$AAa?$AAl?$AA?5?$AAC?$AA?$CL?$AA?$CL?$AA?5?$AAR?$AAu?$AAn?$AAt?$AAi?$AAm?$AAe?$AA?5?$AAL?$AAi?$AAb@ 10076270     LIBCMT:crt0msg.obj
 0002:000162c0       ??_7exception@std@@6B@     100762c0     LIBCMT:stdexcpt.obj
 0002:000162c8       ??_C@_0BC@EOODALEL@Unknown?5exception?$AA@ 100762c8     LIBCMT:stdexcpt.obj
 0002:000162fc       ??_C@_06OJHGLDPL@?$CInull?$CJ?$AA@ 100762fc     LIBCMT:output.obj
 0002:00016304       ??_C@_1O@CEDCILHN@?$AA?$CI?$AAn?$AAu?$AAl?$AAl?$AA?$CJ?$AA?$AA@ 10076304     LIBCMT:output.obj
 0002:00016318       ___lookuptable             10076318     LIBCMT:output.obj
 0002:00016374       ??_C@_0BE@JOGNEJCI@GetCurrentPackageId?$AA@ 10076374     LIBCMT:winapisupp.obj
 0002:00016388       ??_C@_1BK@MGMFAEKH@?$AAk?$AAe?$AAr?$AAn?$AAe?$AAl?$AA3?$AA2?$AA?4?$AAd?$AAl?$AAl?$AA?$AA@ 10076388     LIBCMT:winapisupp.obj
 0002:000163b4       ??_C@_1M@HPNHIDJI@?$AAj?$AAa?$AA?9?$AAJ?$AAP?$AA?$AA@ 100763b4     LIBCMT:mbctype.obj
 0002:000163c0       ??_C@_1M@BIBDDEMK@?$AAz?$AAh?$AA?9?$AAC?$AAN?$AA?$AA@ 100763c0     LIBCMT:mbctype.obj
 0002:000163cc       ??_C@_1M@JLOOOEGK@?$AAk?$AAo?$AA?9?$AAK?$AAR?$AA?$AA@ 100763cc     LIBCMT:mbctype.obj
 0002:000163d8       ??_C@_1M@CLNBBOPM@?$AAz?$AAh?$AA?9?$AAT?$AAW?$AA?$AA@ 100763d8     LIBCMT:mbctype.obj
 0002:000163e4       ??_C@_05KLBDPFGC@e?$CL000?$AA@ 100763e4     LIBCMT:cvt.obj
 0002:0001640c       __pDestructExceptionObject 1007640c     LIBCMT:frame.obj
 0002:00016414       ??_7bad_exception@std@@6B@ 10076414     LIBCMT:frame.obj
 0002:0001641c       ??_C@_0O@DPKOEFFH@bad?5exception?$AA@ 1007641c     LIBCMT:frame.obj
 0002:00016498       ??_C@_03MGHMBJCF@log?$AA@  10076498     LIBCMT:libm_error.obj
 0002:0001649c       ??_C@_05HGHHAHAP@log10?$AA@ 1007649c     LIBCMT:libm_error.obj
 0002:000164a4       ??_C@_03KHJOGHMM@exp?$AA@  100764a4     LIBCMT:libm_error.obj
 0002:000164a8       ??_C@_03JGHBODFD@pow?$AA@  100764a8     LIBCMT:libm_error.obj
 0002:000164ac       ??_C@_04FIHNOPOL@asin?$AA@ 100764ac     LIBCMT:libm_error.obj
 0002:000164b4       ??_C@_04PDIFKINK@acos?$AA@ 100764b4     LIBCMT:libm_error.obj
 0002:000164bc       ??_C@_05EOHGHCHD@exp10?$AA@ 100764bc     LIBCMT:libm_error.obj
 0002:000164c4       ??_C@_04MLLJIGOK@atan?$AA@ 100764c4     LIBCMT:libm_error.obj
 0002:000164cc       ??_C@_04GFPJNGEK@ceil?$AA@ 100764cc     LIBCMT:libm_error.obj
 0002:000164d4       ??_C@_05PBJFFIGL@floor?$AA@ 100764d4     LIBCMT:libm_error.obj
 0002:000164dc       ??_C@_04EHEDPDJG@modf?$AA@ 100764dc     LIBCMT:libm_error.obj
 0002:000164e4       ??_C@_03BLEJJJBH@sin?$AA@  100764e4     LIBCMT:libm_error.obj
 0002:000164e8       ??_C@_03LALBNOCG@cos?$AA@  100764e8     LIBCMT:libm_error.obj
 0002:000164ec       ??_C@_03IIINPABG@tan?$AA@  100764ec     LIBCMT:libm_error.obj
 0002:000164f0       ??_C@_04EIAKFFMI@sqrt?$AA@ 100764f0     LIBCMT:libm_error.obj
 0002:000164f8       ??_C@_03KOEHGMDN@Sun?$AA@  100764f8     LIBCMT:nlsdata.obj
 0002:000164fc       ??_C@_03PDAGKDH@Mon?$AA@   100764fc     LIBCMT:nlsdata.obj
 0002:00016500       ??_C@_03NAGEINEP@Tue?$AA@  10076500     LIBCMT:nlsdata.obj
 0002:00016504       ??_C@_03MHOMLAJA@Wed?$AA@  10076504     LIBCMT:nlsdata.obj
 0002:00016508       ??_C@_03IOFIKPDN@Thu?$AA@  10076508     LIBCMT:nlsdata.obj
 0002:0001650c       ??_C@_03IDIOELNC@Fri?$AA@  1007650c     LIBCMT:nlsdata.obj
 0002:00016510       ??_C@_03FEFJNEK@Sat?$AA@   10076510     LIBCMT:nlsdata.obj
 0002:00016514       ??_C@_06OOPIFAJ@Sunday?$AA@ 10076514     LIBCMT:nlsdata.obj
 0002:0001651c       ??_C@_06JLEDEDGH@Monday?$AA@ 1007651c     LIBCMT:nlsdata.obj
 0002:00016524       ??_C@_07BAAGCFCM@Tuesday?$AA@ 10076524     LIBCMT:nlsdata.obj
 0002:0001652c       ??_C@_09DLIGFAKA@Wednesday?$AA@ 1007652c     LIBCMT:nlsdata.obj
 0002:00016538       ??_C@_08HACCIKIA@Thursday?$AA@ 10076538     LIBCMT:nlsdata.obj
 0002:00016544       ??_C@_06JECMNKMI@Friday?$AA@ 10076544     LIBCMT:nlsdata.obj
 0002:0001654c       ??_C@_08INBOOONO@Saturday?$AA@ 1007654c     LIBCMT:nlsdata.obj
 0002:00016558       ??_C@_03JIHJHPIE@Jan?$AA@  10076558     LIBCMT:nlsdata.obj
 0002:0001655c       ??_C@_03HJBDCHOM@Feb?$AA@  1007655c     LIBCMT:nlsdata.obj
 0002:00016560       ??_C@_03ODNJBKGA@Mar?$AA@  10076560     LIBCMT:nlsdata.obj
 0002:00016564       ??_C@_03LEOLGMJP@Apr?$AA@  10076564     LIBCMT:nlsdata.obj
 0002:00016568       ??_C@_03CNMDKL@May?$AA@    10076568     LIBCMT:nlsdata.obj
 0002:0001656c       ??_C@_03IDFGHECI@Jun?$AA@  1007656c     LIBCMT:nlsdata.obj
 0002:00016570       ??_C@_03LBGABGKK@Jul?$AA@  10076570     LIBCMT:nlsdata.obj
 0002:00016574       ??_C@_03IFJFEIGA@Aug?$AA@  10076574     LIBCMT:nlsdata.obj
 0002:00016578       ??_C@_03GGCAPAJC@Sep?$AA@  10076578     LIBCMT:nlsdata.obj
 0002:0001657c       ??_C@_03BMAOKBAD@Oct?$AA@  1007657c     LIBCMT:nlsdata.obj
 0002:00016580       ??_C@_03JPJOFNIA@Nov?$AA@  10076580     LIBCMT:nlsdata.obj
 0002:00016584       ??_C@_03MKABNOCG@Dec?$AA@  10076584     LIBCMT:nlsdata.obj
 0002:00016588       ??_C@_07CGJPFGJA@January?$AA@ 10076588     LIBCMT:nlsdata.obj
 0002:00016590       ??_C@_08GNJGEPFN@February?$AA@ 10076590     LIBCMT:nlsdata.obj
 0002:0001659c       ??_C@_05HPCKOFNC@March?$AA@ 1007659c     LIBCMT:nlsdata.obj
 0002:000165a4       ??_C@_05DMJDNLEJ@April?$AA@ 100765a4     LIBCMT:nlsdata.obj
 0002:000165ac       ??_C@_04CNLMGBGM@June?$AA@ 100765ac     LIBCMT:nlsdata.obj
 0002:000165b4       ??_C@_04MIEPOIFP@July?$AA@ 100765b4     LIBCMT:nlsdata.obj
 0002:000165bc       ??_C@_06LBBHFDDG@August?$AA@ 100765bc     LIBCMT:nlsdata.obj
 0002:000165c4       ??_C@_09BHHEALKD@September?$AA@ 100765c4     LIBCMT:nlsdata.obj
 0002:000165d0       ??_C@_07JJNFCEND@October?$AA@ 100765d0     LIBCMT:nlsdata.obj
 0002:000165d8       ??_C@_08HCHEGEOA@November?$AA@ 100765d8     LIBCMT:nlsdata.obj
 0002:000165e4       ??_C@_08EDHMEBNP@December?$AA@ 100765e4     LIBCMT:nlsdata.obj
 0002:000165f0       ??_C@_02DEDBPAFC@AM?$AA@   100765f0     LIBCMT:nlsdata.obj
 0002:000165f4       ??_C@_02CJNFDJBF@PM?$AA@   100765f4     LIBCMT:nlsdata.obj
 0002:000165f8       ??_C@_08BPBNCDIB@MM?1dd?1yy?$AA@ 100765f8     LIBCMT:nlsdata.obj
 0002:00016604       ??_C@_0BE@CKGJFCPC@dddd?0?5MMMM?5dd?0?5yyyy?$AA@ 10076604     LIBCMT:nlsdata.obj
 0002:00016618       ??_C@_08JCCMCCIL@HH?3mm?3ss?$AA@ 10076618     LIBCMT:nlsdata.obj
 0002:00016624       ??_C@_17MBGCMIPB@?$AAS?$AAu?$AAn?$AA?$AA@ 10076624     LIBCMT:nlsdata.obj
 0002:0001662c       ??_C@_17KBOMKBF@?$AAM?$AAo?$AAn?$AA?$AA@ 1007662c     LIBCMT:nlsdata.obj
 0002:00016634       ??_C@_17BMKGEGOJ@?$AAT?$AAu?$AAe?$AA?$AA@ 10076634     LIBCMT:nlsdata.obj
 0002:0001663c       ??_C@_17CJEDCEPE@?$AAW?$AAe?$AAd?$AA?$AA@ 1007663c     LIBCMT:nlsdata.obj
 0002:00016644       ??_C@_17PDPHAADD@?$AAT?$AAh?$AAu?$AA?$AA@ 10076644     LIBCMT:nlsdata.obj
 0002:0001664c       ??_C@_17HFOLPPLP@?$AAF?$AAr?$AAi?$AA?$AA@ 1007664c     LIBCMT:nlsdata.obj
 0002:00016654       ??_C@_17GGIBDPIH@?$AAS?$AAa?$AAt?$AA?$AA@ 10076654     LIBCMT:nlsdata.obj
 0002:0001665c       ??_C@_1O@IHNHDHPB@?$AAS?$AAu?$AAn?$AAd?$AAa?$AAy?$AA?$AA@ 1007665c     LIBCMT:nlsdata.obj
 0002:0001666c       ??_C@_1O@MMNBFLIA@?$AAM?$AAo?$AAn?$AAd?$AAa?$AAy?$AA?$AA@ 1007666c     LIBCMT:nlsdata.obj
 0002:0001667c       ??_C@_1BA@ENFBFFEK@?$AAT?$AAu?$AAe?$AAs?$AAd?$AAa?$AAy?$AA?$AA@ 1007667c     LIBCMT:nlsdata.obj
 0002:0001668c       ??_C@_1BE@EBOGMDOH@?$AAW?$AAe?$AAd?$AAn?$AAe?$AAs?$AAd?$AAa?$AAy?$AA?$AA@ 1007668c     LIBCMT:nlsdata.obj
 0002:000166a0       ??_C@_1BC@HHMNLIHE@?$AAT?$AAh?$AAu?$AAr?$AAs?$AAd?$AAa?$AAy?$AA?$AA@ 100766a0     LIBCMT:nlsdata.obj
 0002:000166b4       ??_C@_1O@PDICJHAG@?$AAF?$AAr?$AAi?$AAd?$AAa?$AAy?$AA?$AA@ 100766b4     LIBCMT:nlsdata.obj
 0002:000166c4       ??_C@_1BC@ENMNNPAJ@?$AAS?$AAa?$AAt?$AAu?$AAr?$AAd?$AAa?$AAy?$AA?$AA@ 100766c4     LIBCMT:nlsdata.obj
 0002:000166d8       ??_C@_17DKNBKCHM@?$AAJ?$AAa?$AAn?$AA?$AA@ 100766d8     LIBCMT:nlsdata.obj
 0002:000166e0       ??_C@_17LMDJEKJN@?$AAF?$AAe?$AAb?$AA?$AA@ 100766e0     LIBCMT:nlsdata.obj
 0002:000166e8       ??_C@_17CKNLEDEC@?$AAM?$AAa?$AAr?$AA?$AA@ 100766e8     LIBCMT:nlsdata.obj
 0002:000166f0       ??_C@_17LFPOIHDD@?$AAA?$AAp?$AAr?$AA?$AA@ 100766f0     LIBCMT:nlsdata.obj
 0002:000166f8       ??_C@_17PNNKMEED@?$AAM?$AAa?$AAy?$AA?$AA@ 100766f8     LIBCMT:nlsdata.obj
 0002:00016700       ??_C@_17KCJGOCPB@?$AAJ?$AAu?$AAn?$AA?$AA@ 10076700     LIBCMT:nlsdata.obj
 0002:00016708       ??_C@_17IJPCKHK@?$AAJ?$AAu?$AAl?$AA?$AA@ 10076708     LIBCMT:nlsdata.obj
 0002:00016710       ??_C@_17ICPELBCN@?$AAA?$AAu?$AAg?$AA?$AA@ 10076710     LIBCMT:nlsdata.obj
 0002:00016718       ??_C@_17HCHCOKMG@?$AAS?$AAe?$AAp?$AA?$AA@ 10076718     LIBCMT:nlsdata.obj
 0002:00016720       ??_C@_17FNLKOI@?$AAO?$AAc?$AAt?$AA?$AA@ 10076720     LIBCMT:nlsdata.obj
 0002:00016728       ??_C@_17BBDMLCIG@?$AAN?$AAo?$AAv?$AA?$AA@ 10076728     LIBCMT:nlsdata.obj
 0002:00016730       ??_C@_17EGKACKIF@?$AAD?$AAe?$AAc?$AA?$AA@ 10076730     LIBCMT:nlsdata.obj
 0002:00016738       ??_C@_1BA@EFMEIEBA@?$AAJ?$AAa?$AAn?$AAu?$AAa?$AAr?$AAy?$AA?$AA@ 10076738     LIBCMT:nlsdata.obj
 0002:00016748       ??_C@_1BC@JGDDFFAM@?$AAF?$AAe?$AAb?$AAr?$AAu?$AAa?$AAr?$AAy?$AA?$AA@ 10076748     LIBCMT:nlsdata.obj
 0002:0001675c       ??_C@_1M@IKEENEDF@?$AAM?$AAa?$AAr?$AAc?$AAh?$AA?$AA@ 1007675c     LIBCMT:nlsdata.obj
 0002:00016768       ??_C@_1M@GJNLMHFD@?$AAA?$AAp?$AAr?$AAi?$AAl?$AA?$AA@ 10076768     LIBCMT:nlsdata.obj
 0002:00016774       ??_C@_19EPFLPGAP@?$AAJ?$AAu?$AAn?$AAe?$AA?$AA@ 10076774     LIBCMT:nlsdata.obj
 0002:00016780       ??_C@_19BIFMLPCD@?$AAJ?$AAu?$AAl?$AAy?$AA?$AA@ 10076780     LIBCMT:nlsdata.obj
 0002:0001678c       ??_C@_1O@PAHLKOAC@?$AAA?$AAu?$AAg?$AAu?$AAs?$AAt?$AA?$AA@ 1007678c     LIBCMT:nlsdata.obj
 0002:0001679c       ??_C@_1BE@DKAAMBJL@?$AAS?$AAe?$AAp?$AAt?$AAe?$AAm?$AAb?$AAe?$AAr?$AA?$AA@ 1007679c     LIBCMT:nlsdata.obj
 0002:000167b0       ??_C@_1BA@EPANDLNG@?$AAO?$AAc?$AAt?$AAo?$AAb?$AAe?$AAr?$AA?$AA@ 100767b0     LIBCMT:nlsdata.obj
 0002:000167c0       ??_C@_1BC@BGLIFPF@?$AAN?$AAo?$AAv?$AAe?$AAm?$AAb?$AAe?$AAr?$AA?$AA@ 100767c0     LIBCMT:nlsdata.obj
 0002:000167d4       ??_C@_1BC@FEMKIFH@?$AAD?$AAe?$AAc?$AAe?$AAm?$AAb?$AAe?$AAr?$AA?$AA@ 100767d4     LIBCMT:nlsdata.obj
 0002:000167e8       ??_C@_15ODEHAHHF@?$AAA?$AAM?$AA?$AA@ 100767e8     LIBCMT:nlsdata.obj
 0002:000167f0       ??_C@_15CLMNNGEL@?$AAP?$AAM?$AA?$AA@ 100767f0     LIBCMT:nlsdata.obj
 0002:000167f8       ??_C@_1BC@IEBCMHCM@?$AAM?$AAM?$AA?1?$AAd?$AAd?$AA?1?$AAy?$AAy?$AA?$AA@ 100767f8     LIBCMT:nlsdata.obj
 0002:0001680c       ??_C@_1CI@KNAKOEBC@?$AAd?$AAd?$AAd?$AAd?$AA?0?$AA?5?$AAM?$AAM?$AAM?$AAM?$AA?5?$AAd?$AAd?$AA?0?$AA?5?$AAy?$AAy?$AAy?$AAy?$AA?$AA@ 1007680c     LIBCMT:nlsdata.obj
 0002:00016834       ??_C@_1BC@GDGBMEMK@?$AAH?$AAH?$AA?3?$AAm?$AAm?$AA?3?$AAs?$AAs?$AA?$AA@ 10076834     LIBCMT:nlsdata.obj
 0002:00016848       ??_C@_1M@BMHNFIME@?$AAe?$AAn?$AA?9?$AAU?$AAS?$AA?$AA@ 10076848     LIBCMT:nlsdata.obj
 0002:000168e0       __OP_ATAN2jmptab           100768e0     LIBCMT:87triga.obj
 0002:00016960       ??_C@_04CPCBDHLK@?4cmd?$AA@ 10076960     LIBCMT:spawnve.obj
 0002:00016968       ??_C@_04NEEFLLOK@?4bat?$AA@ 10076968     LIBCMT:spawnve.obj
 0002:00016970       ??_C@_04JLMDILM@?4exe?$AA@ 10076970     LIBCMT:spawnve.obj
 0002:00016978       ??_C@_04PNGHFIJN@?4com?$AA@ 10076978     LIBCMT:spawnve.obj
 0002:00016980       ??_C@_02CEGDFPFP@?4?2?$AA@ 10076980     LIBCMT:spawnve.obj
 0002:00016984       ??_C@_04HBHDLLBA@PATH?$AA@ 10076984     LIBCMT:spawnvpe.obj
 0002:0001698c       ??_C@_01KICIPPFI@?2?$AA@   1007698c     LIBCMT:spawnvpe.obj
 0002:00016990       __indefinite               10076990     LIBCMT:87disp.obj
 0002:0001699a       __piby2                    1007699a     LIBCMT:87disp.obj
 0002:000169c0       __XcptActTab               100769c0     LIBCMT:winxfltr.obj
 0002:00016a50       __XcptActTabCount          10076a50     LIBCMT:winxfltr.obj
 0002:00016a54       __XcptActTabSize           10076a54     LIBCMT:winxfltr.obj
 0002:00016a58       __First_FPE_Indx           10076a58     LIBCMT:winxfltr.obj
 0002:00016a5c       __Num_FPE                  10076a5c     LIBCMT:winxfltr.obj
 0002:00016a60       ??_C@_1BG@GOEBHBDC@?$AAU?$AAS?$AAE?$AAR?$AA3?$AA2?$AA?4?$AAD?$AAL?$AAL?$AA?$AA@ 10076a60     LIBCMT:crtmboxw.obj
 0002:00016a78       ??_C@_0M@DLDCCGNP@MessageBoxW?$AA@ 10076a78     LIBCMT:crtmboxw.obj
 0002:00016a84       ??_C@_0BA@HNOPNCHB@GetActiveWindow?$AA@ 10076a84     LIBCMT:crtmboxw.obj
 0002:00016a94       ??_C@_0BD@HHGDFDBJ@GetLastActivePopup?$AA@ 10076a94     LIBCMT:crtmboxw.obj
 0002:00016aa8       ??_C@_0BK@DEKFELLI@GetUserObjectInformationW?$AA@ 10076aa8     LIBCMT:crtmboxw.obj
 0002:00016ac4       ??_C@_0BI@DFKBFLJE@GetProcessWindowStation?$AA@ 10076ac4     LIBCMT:crtmboxw.obj
 0002:00016ae0       ___lookuptable_s           10076ae0     LIBCMT:outputs.obj
 0002:00016cc8       ??_C@_08EHJDFFNH@__based?$CI?$AA@ 10076cc8     LIBCMT:undname.obj
 0002:00016cd4       ??_C@_07KOLFKCDI@__cdecl?$AA@ 10076cd4     LIBCMT:undname.obj
 0002:00016cdc       ??_C@_08GHMPAG@__pascal?$AA@ 10076cdc     LIBCMT:undname.obj
 0002:00016ce8       ??_C@_09IFJBGAPI@__stdcall?$AA@ 10076ce8     LIBCMT:undname.obj
 0002:00016cf4       ??_C@_0L@NPHFGOKO@__thiscall?$AA@ 10076cf4     LIBCMT:undname.obj
 0002:00016d00       ??_C@_0L@JMKHOMEK@__fastcall?$AA@ 10076d00     LIBCMT:undname.obj
 0002:00016d0c       ??_C@_09HIJEGCPM@__clrcall?$AA@ 10076d0c     LIBCMT:undname.obj
 0002:00016d18       ??_C@_06GHPCKEAG@__eabi?$AA@ 10076d18     LIBCMT:undname.obj
 0002:00016d20       ??_C@_07JOMMBBKO@__ptr64?$AA@ 10076d20     LIBCMT:undname.obj
 0002:00016d28       ??_C@_0L@PILCLIHE@__restrict?$AA@ 10076d28     LIBCMT:undname.obj
 0002:00016d34       ??_C@_0M@GFIIJFMG@__unaligned?$AA@ 10076d34     LIBCMT:undname.obj
 0002:00016d40       ??_C@_09DHDLOLLB@restrict?$CI?$AA@ 10076d40     LIBCMT:undname.obj
 0002:00016d4c       ??_C@_04NIHEBCM@?5new?$AA@ 10076d4c     LIBCMT:undname.obj
 0002:00016d54       ??_C@_07FPCDHGMM@?5delete?$AA@ 10076d54     LIBCMT:undname.obj
 0002:00016d5c       ??_C@_02GPIOPFAK@?$DO?$DO?$AA@ 10076d5c     LIBCMT:undname.obj
 0002:00016d60       ??_C@_02FODMEDOG@?$DM?$DM?$AA@ 10076d60     LIBCMT:undname.obj
 0002:00016d64       ??_C@_01DCLJPIOD@?$CB?$AA@ 10076d64     LIBCMT:undname.obj
 0002:00016d68       ??_C@_02EGOFBIJA@?$DN?$DN?$AA@ 10076d68     LIBCMT:undname.obj
 0002:00016d6c       ??_C@_02FDNJECIE@?$CB?$DN?$AA@ 10076d6c     LIBCMT:undname.obj
 0002:00016d70       ??_C@_02GPECMEKF@?$FL?$FN?$AA@ 10076d70     LIBCMT:undname.obj
 0002:00016d74       ??_C@_08LHJFAFGD@operator?$AA@ 10076d74     LIBCMT:undname.obj
 0002:00016d80       ??_C@_02HBOOOICD@?9?$DO?$AA@ 10076d80     LIBCMT:undname.obj
 0002:00016d84       ??_C@_01NBENCBCI@?$CK?$AA@ 10076d84     LIBCMT:undname.obj
 0002:00016d88       ??_C@_02ECNGHCIF@?$CL?$CL?$AA@ 10076d88     LIBCMT:undname.obj
 0002:00016d8c       ??_C@_02BAABKJLB@?9?9?$AA@ 10076d8c     LIBCMT:undname.obj
 0002:00016d90       ??_C@_01JOAMLHOP@?9?$AA@   10076d90     LIBCMT:undname.obj
 0002:00016d94       ??_C@_01MIFGBAGJ@?$CL?$AA@ 10076d94     LIBCMT:undname.obj
 0002:00016d98       ??_C@_01HNPIGOCE@?$CG?$AA@ 10076d98     LIBCMT:undname.obj
 0002:00016d9c       ??_C@_03MNHNFDLC@?9?$DO?$CK?$AA@ 10076d9c     LIBCMT:undname.obj
 0002:00016da0       ??_C@_01KMDKNFGN@?1?$AA@   10076da0     LIBCMT:undname.obj
 0002:00016da4       ??_C@_01FGNFDNOH@?$CF?$AA@ 10076da4     LIBCMT:undname.obj
 0002:00016da8       ??_C@_02EHCHHCKH@?$DM?$DN?$AA@ 10076da8     LIBCMT:undname.obj
 0002:00016dac       ??_C@_02EEKDKGMJ@?$DO?$DN?$AA@ 10076dac     LIBCMT:undname.obj
 0002:00016db0       ??_C@_01IHBHIGKO@?0?$AA@   10076db0     LIBCMT:undname.obj
 0002:00016db4       ??_C@_02HCKGKOFO@?$CI?$CJ?$AA@ 10076db4     LIBCMT:undname.obj
 0002:00016db8       ??_C@_01PJKLJHI@?$HO?$AA@  10076db8     LIBCMT:undname.obj
 0002:00016dbc       ??_C@_01JKBOJNNK@?$FO?$AA@ 10076dbc     LIBCMT:undname.obj
 0002:00016dc0       ??_C@_01DNKMNLPK@?$HM?$AA@ 10076dc0     LIBCMT:undname.obj
 0002:00016dc4       ??_C@_02PPKAJPJL@?$CG?$CG?$AA@ 10076dc4     LIBCMT:undname.obj
 0002:00016dc8       ??_C@_02NONPIBCD@?$HM?$HM?$AA@ 10076dc8     LIBCMT:undname.obj
 0002:00016dcc       ??_C@_02FPIMKNGF@?$CK?$DN?$AA@ 10076dcc     LIBCMT:undname.obj
 0002:00016dd0       ??_C@_02FOEOMHFC@?$CL?$DN?$AA@ 10076dd0     LIBCMT:undname.obj
 0002:00016dd4       ??_C@_02FKMDLLOA@?9?$DN?$AA@ 10076dd4     LIBCMT:undname.obj
 0002:00016dd8       ??_C@_02FJEHGPIO@?1?$DN?$AA@ 10076dd8     LIBCMT:undname.obj
 0002:00016ddc       ??_C@_02FENAOKFI@?$CF?$DN?$AA@ 10076ddc     LIBCMT:undname.obj
 0002:00016de0       ??_C@_03IKFCCPFF@?$DO?$DO?$DN?$AA@ 10076de0     LIBCMT:undname.obj
 0002:00016de4       ??_C@_03CDNPDDLA@?$DM?$DM?$DN?$AA@ 10076de4     LIBCMT:undname.obj
 0002:00016de8       ??_C@_02FGJGFEAB@?$CG?$DN?$AA@ 10076de8     LIBCMT:undname.obj
 0002:00016dec       ??_C@_02DHLNPPGH@?$HM?$DN?$AA@ 10076dec     LIBCMT:undname.obj
 0002:00016df0       ??_C@_02MHEGNOJ@?$FO?$DN?$AA@ 10076df0     LIBCMT:undname.obj
 0002:00016df4       ??_C@_09IFPLHPGF@?$GAvftable?8?$AA@ 10076df4     LIBCMT:undname.obj
 0002:00016e00       ??_C@_09BLBHBJP@?$GAvbtable?8?$AA@ 10076e00     LIBCMT:undname.obj
 0002:00016e0c       ??_C@_07FEEIOKP@?$GAvcall?8?$AA@ 10076e0c     LIBCMT:undname.obj
 0002:00016e14       ??_C@_08LLFFHHDJ@?$GAtypeof?8?$AA@ 10076e14     LIBCMT:undname.obj
 0002:00016e20       ??_C@_0BF@KDPPACIK@?$GAlocal?5static?5guard?8?$AA@ 10076e20     LIBCMT:undname.obj
 0002:00016e38       ??_C@_08OBABFOLI@?$GAstring?8?$AA@ 10076e38     LIBCMT:undname.obj
 0002:00016e44       ??_C@_0BD@JDLKDPAB@?$GAvbase?5destructor?8?$AA@ 10076e44     LIBCMT:undname.obj
 0002:00016e58       ??_C@_0BN@DEGPLNFK@?$GAvector?5deleting?5destructor?8?$AA@ 10076e58     LIBCMT:undname.obj
 0002:00016e78       ??_C@_0BO@OBMKPJIG@?$GAdefault?5constructor?5closure?8?$AA@ 10076e78     LIBCMT:undname.obj
 0002:00016e98       ??_C@_0BN@IMDCHIKM@?$GAscalar?5deleting?5destructor?8?$AA@ 10076e98     LIBCMT:undname.obj
 0002:00016eb8       ??_C@_0BO@PFGOCPJJ@?$GAvector?5constructor?5iterator?8?$AA@ 10076eb8     LIBCMT:undname.obj
 0002:00016ed8       ??_C@_0BN@LFPFMEDL@?$GAvector?5destructor?5iterator?8?$AA@ 10076ed8     LIBCMT:undname.obj
 0002:00016ef8       ??_C@_0CE@IKBNEHA@?$GAvector?5vbase?5constructor?5iterat@ 10076ef8     LIBCMT:undname.obj
 0002:00016f1c       ??_C@_0BL@NILFHHPC@?$GAvirtual?5displacement?5map?8?$AA@ 10076f1c     LIBCMT:undname.obj
 0002:00016f38       ??_C@_0CB@JONCMFFK@?$GAeh?5vector?5constructor?5iterator?8@ 10076f38     LIBCMT:undname.obj
 0002:00016f5c       ??_C@_0CA@GCEOPDGL@?$GAeh?5vector?5destructor?5iterator?8?$AA@ 10076f5c     LIBCMT:undname.obj
 0002:00016f7c       ??_C@_0CH@OOJPLCPH@?$GAeh?5vector?5vbase?5constructor?5ite@ 10076f7c     LIBCMT:undname.obj
 0002:00016fa4       ??_C@_0BL@LLKPOHJI@?$GAcopy?5constructor?5closure?8?$AA@ 10076fa4     LIBCMT:undname.obj
 0002:00016fc0       ??_C@_0BA@KBCDOMBN@?$GAudt?5returning?8?$AA@ 10076fc0     LIBCMT:undname.obj
 0002:00016fd0       ??_C@_03KLGMFNMG@?$GAEH?$AA@ 10076fd0     LIBCMT:undname.obj
 0002:00016fd4       ??_C@_05KHLCHHI@?$GARTTI?$AA@ 10076fd4     LIBCMT:undname.obj
 0002:00016fdc       ??_C@_0BA@KKLDJDLB@?$GAlocal?5vftable?8?$AA@ 10076fdc     LIBCMT:undname.obj
 0002:00016fec       ??_C@_0CE@IIHCMGGL@?$GAlocal?5vftable?5constructor?5closu@ 10076fec     LIBCMT:undname.obj
 0002:00017010       ??_C@_06FHBGPFGH@?5new?$FL?$FN?$AA@ 10077010     LIBCMT:undname.obj
 0002:00017018       ??_C@_09LBNFPBCA@?5delete?$FL?$FN?$AA@ 10077018     LIBCMT:undname.obj
 0002:00017024       ??_C@_0P@HJKNJFNN@?$GAomni?5callsig?8?$AA@ 10077024     LIBCMT:undname.obj
 0002:00017034       ??_C@_0BL@CNOONJFP@?$GAplacement?5delete?5closure?8?$AA@ 10077034     LIBCMT:undname.obj
 0002:00017050       ??_C@_0BN@CKNJLHMB@?$GAplacement?5delete?$FL?$FN?5closure?8?$AA@ 10077050     LIBCMT:undname.obj
 0002:00017070       ??_C@_0CG@CFDHKGGD@?$GAmanaged?5vector?5constructor?5iter@ 10077070     LIBCMT:undname.obj
 0002:00017098       ??_C@_0CF@IMGKMJNO@?$GAmanaged?5vector?5destructor?5itera@ 10077098     LIBCMT:undname.obj
 0002:000170c0       ??_C@_0CG@HLDDJMAG@?$GAeh?5vector?5copy?5constructor?5iter@ 100770c0     LIBCMT:undname.obj
 0002:000170e8       ??_C@_0CM@FCBBDIGB@?$GAeh?5vector?5vbase?5copy?5constructo@ 100770e8     LIBCMT:undname.obj
 0002:00017114       ??_C@_0BL@CLIPGLGB@?$GAdynamic?5initializer?5for?5?8?$AA@ 10077114     LIBCMT:undname.obj
 0002:00017130       ??_C@_0CB@PDBIFEP@?$GAdynamic?5atexit?5destructor?5for?5?8@ 10077130     LIBCMT:undname.obj
 0002:00017154       ??_C@_0CD@CGAJBKEJ@?$GAvector?5copy?5constructor?5iterato@ 10077154     LIBCMT:undname.obj
 0002:00017178       ??_C@_0CJ@GJELGAMM@?$GAvector?5vbase?5copy?5constructor?5i@ 10077178     LIBCMT:undname.obj
 0002:000171a4       ??_C@_0CL@FGIJHLCE@?$GAmanaged?5vector?5copy?5constructor@ 100771a4     LIBCMT:undname.obj
 0002:000171d0       ??_C@_0BM@PMGGMLDN@?$GAlocal?5static?5thread?5guard?8?$AA@ 100771d0     LIBCMT:undname.obj
 0002:000171ec       ??_C@_0BC@DAFEJGAK@?5Type?5Descriptor?8?$AA@ 100771ec     LIBCMT:undname.obj
 0002:00017200       ??_C@_0BM@LDKODKLH@?5Base?5Class?5Descriptor?5at?5?$CI?$AA@ 10077200     LIBCMT:undname.obj
 0002:0001721c       ??_C@_0BD@LGICGFMM@?5Base?5Class?5Array?8?$AA@ 1007721c     LIBCMT:undname.obj
 0002:00017230       ??_C@_0BN@MECKDCOJ@?5Class?5Hierarchy?5Descriptor?8?$AA@ 10077230     LIBCMT:undname.obj
 0002:00017250       ??_C@_0BK@CFCOFLF@?5Complete?5Object?5Locator?8?$AA@ 10077250     LIBCMT:undname.obj
 0002:00017b28       __DEFAULT_CW_in_mem        10077b28     LIBCMT:common.obj
 0002:00017b2a       __pi_by_2_to_61            10077b2a     LIBCMT:common.obj
 0002:00018410       ___newctype                10078410     LIBCMT:ctype.obj
 0002:00018710       __wctype                   10078710     LIBCMT:ctype.obj
 0002:00018918       ___newclmap                10078918     LIBCMT:ctype.obj
 0002:00018a98       ___newcumap                10078a98     LIBCMT:ctype.obj
 0002:0001c560       __infinity                 1007c560     LIBCMT:87tran.obj
 0002:0001c56a       __minfinity                1007c56a     LIBCMT:87tran.obj
 0002:0001c574       __logemax                  1007c574     LIBCMT:87tran.obj
 0002:0001c59a       __OP_EXPjmptab             1007c59a     LIBCMT:87tran.obj
 0002:0001dde0       ??_C@_0L@NKOGAPMJ@SystemRoot?$AA@ 1007dde0     LIBCMT:cenvarg.obj
 0002:0001ddec       ??_C@_06PGGFOGJG@1?$CDSNAN?$AA@ 1007ddec     LIBCMT:x10fout.obj
 0002:0001ddf4       ??_C@_05PHHOCPM@1?$CDIND?$AA@ 1007ddf4     LIBCMT:x10fout.obj
 0002:0001ddfc       ??_C@_05DNEBIAHO@1?$CDINF?$AA@ 1007ddfc     LIBCMT:x10fout.obj
 0002:0001de04       ??_C@_06IMKFLFPG@1?$CDQNAN?$AA@ 1007de04     LIBCMT:x10fout.obj
 0002:0001de0c       ??_C@_0M@HHGEPIBF@CreateFile2?$AA@ 1007de0c     LIBCMT:wopen.obj
 0002:0001de18       ??_C@_04COOMCNPB@sinh?$AA@ 1007de18     LIBCMT:fpexcept.obj
 0002:0001de20       ??_C@_04HPJJNFIM@cosh?$AA@ 1007de20     LIBCMT:fpexcept.obj
 0002:0001de28       ??_C@_04FJHINJAO@tanh?$AA@ 1007de28     LIBCMT:fpexcept.obj
 0002:0001de30       ??_C@_05KNGEOGJB@atan2?$AA@ 1007de30     LIBCMT:fpexcept.obj
 0002:0001de38       ??_C@_04ODHECPBC@fabs?$AA@ 1007de38     LIBCMT:fpexcept.obj
 0002:0001de40       ??_C@_05CEJMAHNP@ldexp?$AA@ 1007de40     LIBCMT:fpexcept.obj
 0002:0001de48       ??_C@_05KBKMEMPO@_cabs?$AA@ 1007de48     LIBCMT:fpexcept.obj
 0002:0001de50       ??_C@_06MEIMCGCF@_hypot?$AA@ 1007de50     LIBCMT:fpexcept.obj
 0002:0001de58       ??_C@_04KEPJIHGP@fmod?$AA@ 1007de58     LIBCMT:fpexcept.obj
 0002:0001de60       ??_C@_05GKKHEGJL@frexp?$AA@ 1007de60     LIBCMT:fpexcept.obj
 0002:0001de68       ??_C@_03MJLDFKDL@_y0?$AA@  1007de68     LIBCMT:fpexcept.obj
 0002:0001de6c       ??_C@_03NAKIGLHK@_y1?$AA@  1007de6c     LIBCMT:fpexcept.obj
 0002:0001de70       ??_C@_03ONILCKOB@_yn?$AA@  1007de70     LIBCMT:fpexcept.obj
 0002:0001de74       ??_C@_05JGDBENOH@_logb?$AA@ 1007de74     LIBCMT:fpexcept.obj
 0002:0001de7c       ??_C@_0L@KDOEJCKC@_nextafter?$AA@ 1007de7c     LIBCMT:fpexcept.obj
 0002:0001de88       ??_C@_1BA@BALFACEM@?$AAC?$AAO?$AAN?$AAO?$AAU?$AAT?$AA$?$AA?$AA@ 1007de88     LIBCMT:initcon.obj
 0002:0001de98       __load_config_used         1007de98     LIBCMT:loadcfg.obj
 0002:0001dee0       ??_R4Button@vgui@@6B@      1007dee0     ammo.obj
 0002:0001def4       ??_R3Button@vgui@@8        1007def4     ammo.obj
 0002:0001df04       ??_R2Button@vgui@@8        1007df04     ammo.obj
 0002:0001df14       ??_R1A@?0A@EA@Button@vgui@@8 1007df14     ammo.obj
 0002:0001df30       ??_R1A@?0A@EA@Label@vgui@@8 1007df30     ammo.obj
 0002:0001df4c       ??_R3Label@vgui@@8         1007df4c     ammo.obj
 0002:0001df5c       ??_R2Label@vgui@@8         1007df5c     ammo.obj
 0002:0001df68       ??_R1A@?0A@EA@Panel@vgui@@8 1007df68     ammo.obj
 0002:0001df84       ??_R3Panel@vgui@@8         1007df84     ammo.obj
 0002:0001df94       ??_R2Panel@vgui@@8         1007df94     ammo.obj
 0002:0001df9c       ??_R4InputSignal@vgui@@6B@ 1007df9c     ammo.obj
 0002:0001dfb0       ??_R3InputSignal@vgui@@8   1007dfb0     ammo.obj
 0002:0001dfc0       ??_R2InputSignal@vgui@@8   1007dfc0     ammo.obj
 0002:0001dfc8       ??_R1A@?0A@EA@InputSignal@vgui@@8 1007dfc8     ammo.obj
 0002:0001dfe4       ??_R4ActionSignal@vgui@@6B@ 1007dfe4     ammo.obj
 0002:0001dff8       ??_R3ActionSignal@vgui@@8  1007dff8     ammo.obj
 0002:0001e008       ??_R2ActionSignal@vgui@@8  1007e008     ammo.obj
 0002:0001e010       ??_R1A@?0A@EA@ActionSignal@vgui@@8 1007e010     ammo.obj
 0002:0001e02c       ??_R4Frame@vgui@@6B@       1007e02c     ammo.obj
 0002:0001e040       ??_R3Frame@vgui@@8         1007e040     ammo.obj
 0002:0001e050       ??_R2Frame@vgui@@8         1007e050     ammo.obj
 0002:0001e05c       ??_R1A@?0A@EA@Frame@vgui@@8 1007e05c     ammo.obj
 0002:0001e078       ??_R4DesktopIcon@vgui@@6B@ 1007e078     ammo.obj
 0002:0001e08c       ??_R3DesktopIcon@vgui@@8   1007e08c     ammo.obj
 0002:0001e09c       ??_R2DesktopIcon@vgui@@8   1007e09c     ammo.obj
 0002:0001e0a8       ??_R1A@?0A@EA@DesktopIcon@vgui@@8 1007e0a8     ammo.obj
 0002:0001e0c4       ??_R4Panel@vgui@@6B@       1007e0c4     ammo.obj
 0002:0001e0d8       ??_R4Label@vgui@@6B@       1007e0d8     ammo.obj
 0002:0001e0ec       ??_R4Font@vgui@@6B@        1007e0ec     ammo.obj
 0002:0001e100       ??_R3Font@vgui@@8          1007e100     ammo.obj
 0002:0001e110       ??_R2Font@vgui@@8          1007e110     ammo.obj
 0002:0001e118       ??_R1A@?0A@EA@Font@vgui@@8 1007e118     ammo.obj
 0002:0001e134       ??_R4Cursor@vgui@@6B@      1007e134     ammo.obj
 0002:0001e148       ??_R3Cursor@vgui@@8        1007e148     ammo.obj
 0002:0001e158       ??_R2Cursor@vgui@@8        1007e158     ammo.obj
 0002:0001e160       ??_R1A@?0A@EA@Cursor@vgui@@8 1007e160     ammo.obj
 0002:0001e17c       ??_R4Scheme@vgui@@6B@      1007e17c     ammo.obj
 0002:0001e190       ??_R3Scheme@vgui@@8        1007e190     ammo.obj
 0002:0001e1a0       ??_R2Scheme@vgui@@8        1007e1a0     ammo.obj
 0002:0001e1a8       ??_R1A@?0A@EA@Scheme@vgui@@8 1007e1a8     ammo.obj
 0002:0001e1c4       ??_R4Color@vgui@@6B@       1007e1c4     ammo.obj
 0002:0001e1d8       ??_R3Color@vgui@@8         1007e1d8     ammo.obj
 0002:0001e1e8       ??_R2Color@vgui@@8         1007e1e8     ammo.obj
 0002:0001e1f0       ??_R1A@?0A@EA@Color@vgui@@8 1007e1f0     ammo.obj
 0002:0001e20c       ??_R4Border@vgui@@6B@      1007e20c     ammo.obj
 0002:0001e220       ??_R3Border@vgui@@8        1007e220     ammo.obj
 0002:0001e230       ??_R2Border@vgui@@8        1007e230     ammo.obj
 0002:0001e23c       ??_R1A@?0A@EA@Border@vgui@@8 1007e23c     ammo.obj
 0002:0001e258       ??_R1A@?0A@EA@Image@vgui@@8 1007e258     ammo.obj
 0002:0001e274       ??_R3Image@vgui@@8         1007e274     ammo.obj
 0002:0001e284       ??_R2Image@vgui@@8         1007e284     ammo.obj
 0002:0001e28c       ??_R4App@vgui@@6B@         1007e28c     ammo.obj
 0002:0001e2a0       ??_R3App@vgui@@8           1007e2a0     ammo.obj
 0002:0001e2b0       ??_R2App@vgui@@8           1007e2b0     ammo.obj
 0002:0001e2b8       ??_R1A@?0A@EA@App@vgui@@8  1007e2b8     ammo.obj
 0002:0001e2d4       ??_R4Image@vgui@@6B@       1007e2d4     ammo.obj
 0002:0001e2e8       ??_R4LineBorder@vgui@@6B@  1007e2e8     ammo.obj
 0002:0001e2fc       ??_R3LineBorder@vgui@@8    1007e2fc     ammo.obj
 0002:0001e30c       ??_R2LineBorder@vgui@@8    1007e30c     ammo.obj
 0002:0001e31c       ??_R1A@?0A@EA@LineBorder@vgui@@8 1007e31c     ammo.obj
 0002:0001e338       ??_R4ImagePanel@vgui@@6B@  1007e338     ammo.obj
 0002:0001e34c       ??_R3ImagePanel@vgui@@8    1007e34c     ammo.obj
 0002:0001e35c       ??_R2ImagePanel@vgui@@8    1007e35c     ammo.obj
 0002:0001e368       ??_R1A@?0A@EA@ImagePanel@vgui@@8 1007e368     ammo.obj
 0002:0001e384       ??_R4Bitmap@vgui@@6B@      1007e384     ammo.obj
 0002:0001e398       ??_R3Bitmap@vgui@@8        1007e398     ammo.obj
 0002:0001e3a8       ??_R2Bitmap@vgui@@8        1007e3a8     ammo.obj
 0002:0001e3b4       ??_R1A@?0A@EA@Bitmap@vgui@@8 1007e3b4     ammo.obj
 0002:0001e3d0       ??_R4InputStream@vgui@@6B@ 1007e3d0     ammo.obj
 0002:0001e3e4       ??_R3InputStream@vgui@@8   1007e3e4     ammo.obj
 0002:0001e3f4       ??_R2InputStream@vgui@@8   1007e3f4     ammo.obj
 0002:0001e3fc       ??_R1A@?0A@EA@InputStream@vgui@@8 1007e3fc     ammo.obj
 0002:0001e418       ??_R4BitmapTGA@vgui@@6B@   1007e418     ammo.obj
 0002:0001e42c       ??_R3BitmapTGA@vgui@@8     1007e42c     ammo.obj
 0002:0001e43c       ??_R2BitmapTGA@vgui@@8     1007e43c     ammo.obj
 0002:0001e44c       ??_R1A@?0A@EA@BitmapTGA@vgui@@8 1007e44c     ammo.obj
 0002:0001e468       ??_R4TextPanel@vgui@@6B@   1007e468     ammo.obj
 0002:0001e47c       ??_R3TextPanel@vgui@@8     1007e47c     ammo.obj
 0002:0001e48c       ??_R2TextPanel@vgui@@8     1007e48c     ammo.obj
 0002:0001e498       ??_R1A@?0A@EA@TextPanel@vgui@@8 1007e498     ammo.obj
 0002:0001e4b4       ??_R4FileInputStream@vgui@@6B@ 1007e4b4     ammo.obj
 0002:0001e4c8       ??_R3FileInputStream@vgui@@8 1007e4c8     ammo.obj
 0002:0001e4d8       ??_R2FileInputStream@vgui@@8 1007e4d8     ammo.obj
 0002:0001e4e4       ??_R1A@?0A@EA@FileInputStream@vgui@@8 1007e4e4     ammo.obj
 0002:0001e500       ??_R4MiniApp@vgui@@6B@     1007e500     ammo.obj
 0002:0001e514       ??_R3MiniApp@vgui@@8       1007e514     ammo.obj
 0002:0001e524       ??_R2MiniApp@vgui@@8       1007e524     ammo.obj
 0002:0001e52c       ??_R1A@?0A@EA@MiniApp@vgui@@8 1007e52c     ammo.obj
 0002:0001e548       ??_R4ScrollBar@vgui@@6B@   1007e548     ammo.obj
 0002:0001e55c       ??_R3ScrollBar@vgui@@8     1007e55c     ammo.obj
 0002:0001e56c       ??_R2ScrollBar@vgui@@8     1007e56c     ammo.obj
 0002:0001e578       ??_R1A@?0A@EA@ScrollBar@vgui@@8 1007e578     ammo.obj
 0002:0001e594       ??_R4ScrollPanel@vgui@@6B@ 1007e594     ammo.obj
 0002:0001e5a8       ??_R3ScrollPanel@vgui@@8   1007e5a8     ammo.obj
 0002:0001e5b8       ??_R2ScrollPanel@vgui@@8   1007e5b8     ammo.obj
 0002:0001e5c4       ??_R1A@?0A@EA@ScrollPanel@vgui@@8 1007e5c4     ammo.obj
 0002:0001e5e0       ??_R4Slider@vgui@@6B@      1007e5e0     ammo.obj
